 PhysXCooking_64

 Timestamp is 62d52301 (Mon Jul 18 18:08:17 2022)

 Preferred load address is 0000000180000000

 Start         Length     Name                   Class
 0001:00000000 00000640H .text$di                CODE
 0001:00000640 0003e910H .text$mn                CODE
 0001:0003ef50 00000020H .text$mn$00             CODE
 0001:0003ef70 00000250H .text$x                 CODE
 0002:00000000 00000248H .idata$5                DATA
 0002:00000248 00000010H .00cfg                  DATA
 0002:00000258 00000008H .CRT$XCA                DATA
 0002:00000260 000001e0H .CRT$XCU                DATA
 0002:00000440 00000008H .CRT$XCZ                DATA
 0002:00000448 00000008H .CRT$XIA                DATA
 0002:00000450 00000018H .CRT$XIC                DATA
 0002:00000468 00000008H .CRT$XIZ                DATA
 0002:00000470 00000008H .CRT$XPA                DATA
 0002:00000478 00000010H .CRT$XPX                DATA
 0002:00000488 00000008H .CRT$XPXA               DATA
 0002:00000490 00000008H .CRT$XPZ                DATA
 0002:00000498 00000008H .CRT$XTA                DATA
 0002:000004a0 00000010H .CRT$XTZ                DATA
 0002:000004b0 0000b368H .rdata                  DATA
 0002:0000b818 00000344H .rdata$r                DATA
 0002:0000bb5c 000003dcH .rdata$zzzdbg           DATA
 0002:0000bf38 00000008H .rtc$IAA                DATA
 0002:0000bf40 00000008H .rtc$IZZ                DATA
 0002:0000bf48 00000008H .rtc$TAA                DATA
 0002:0000bf50 00000008H .rtc$TZZ                DATA
 0002:0000bf58 000038e4H .xdata                  DATA
 0002:0000f83c 00000040H .didat$2                DATA
 0002:0000f87c 00000024H .didat$3                DATA
 0002:0000f8a0 00000188H .didat$4                DATA
 0002:0000fa28 00000950H .didat$6                DATA
 0002:00010378 00000188H .didat$7                DATA
 0002:00010500 00001d00H .edata                  DATA
 0002:00012200 00000014H .idata$2                DATA
 0002:00012214 00000014H .idata$3                DATA
 0002:00012228 00000248H .idata$4                DATA
 0002:00012470 00000552H .idata$6                DATA
 0003:00000000 00000a00H .data                   DATA
 0003:00000a00 00000688H .data$r                 DATA
 0003:00001088 00000188H .didat$5                DATA
 0003:00001210 00001648H .bss                    DATA
 0004:00000000 00003060H .pdata                  DATA
 0005:00000000 000000e0H .gfids$y                DATA
 0006:00000000 000000a0H .rsrc$01                DATA
 0006:000000a0 000004b0H .rsrc$02                DATA

  Address         Publics by Value              Rva+Base               Lib:Object

 0000:00000000       __guard_iat_table          0000000000000000     <absolute>
 0000:00000000       __guard_iat_count          0000000000000000     <absolute>
 0000:00000000       __dynamic_value_reloc_table 0000000000000000     <absolute>
 0000:00000000       __guard_longjmp_table      0000000000000000     <absolute>
 0000:00000000       __guard_longjmp_count      0000000000000000     <absolute>
 0000:00000000       __guard_fids_count         0000000000000000     <absolute>
 0000:00000000       ___safe_se_handler_table   0000000000000000     <absolute>
 0000:00000000       ___safe_se_handler_count   0000000000000000     <absolute>
 0000:00000000       __guard_fids_table         0000000000000000     <absolute>
 0000:00000100       __guard_flags              0000000000000100     <absolute>
 0000:00000000       __ImageBase                0000000180000000     <linker-defined>
 0001:00000640       ??0AdjacenciesBuilder@physx@@QEAA@XZ 0000000180001640 f   Adjacencies.obj
 0001:00000650       ??4MutexImpl@shdfnd@physx@@QEAAAEAV012@AEBV012@@Z 0000000180001650 f i Adjacencies.obj
 0001:00000650       ?getPaddedBounds@HeightFieldData@Gu@physx@@QEBAAEBVCenterExtentsPadded@23@XZ 0000000180001650 f i Cooking.obj
 0001:00000650       ?getAABB@AABBTreeBuildNode@Gu@physx@@QEBAAEBVPxBounds3@3@XZ 0000000180001650 f i BVHStructureBuilder.obj
 0001:00000650       ??0BigConvexData@physx@@QEAA@W4PxEMPTY@1@@Z 0000000180001650 f i BigConvexDataBuilder.obj
 0001:00000650       ??0HeightFieldData@Gu@physx@@QEAA@W4PxEMPTY@2@@Z 0000000180001650 f i Cooking.obj
 0001:00000650       ??4PxFoundation@physx@@QEAAAEAV01@AEBV01@@Z 0000000180001650 f i Adjacencies.obj
 0001:00000650       ??0Box@Gu@physx@@QEAA@XZ   0000000180001650 f i ConvexHullUtils.obj
 0001:00000650       ??0Allocator@shdfnd@physx@@QEAA@PEBD@Z 0000000180001650 f i Adjacencies.obj
 0001:00000650       ??0AABBTreeBuildNode@Gu@physx@@QEAA@XZ 0000000180001650 f i BVHStructureBuilder.obj
 0001:00000650       ??4Allocator@shdfnd@physx@@QEAAAEAV012@$$QEAV012@@Z 0000000180001650 f i Adjacencies.obj
 0001:00000650       ??4Allocator@shdfnd@physx@@QEAAAEAV012@AEBV012@@Z 0000000180001650 f i Adjacencies.obj
 0001:00000660       ??0PxFoundation@physx@@QEAA@AEBV01@@Z 0000000180001660 f i Adjacencies.obj
 0001:00000660       ??0PxFoundation@physx@@QEAA@XZ 0000000180001660 f i Adjacencies.obj
 0001:00000670       ??1Adjacencies@physx@@QEAA@XZ 0000000180001670 f   Adjacencies.obj
 0001:000006e0       ??1AdjacenciesBuilder@physx@@QEAA@XZ 00000001800016e0 f   Adjacencies.obj
 0001:000006f0       ??1PxFoundation@physx@@MEAA@XZ 00000001800016f0 f i Adjacencies.obj
 0001:00000700       ??_EPxFoundation@physx@@MEAAPEAXI@Z 0000000180001700 f i Adjacencies.obj
 0001:00000890       ?ComputeNbBoundaryEdges@Adjacencies@physx@@QEBAIXZ 0000000180001890 f   Adjacencies.obj
 0001:00000b70       ?GetNbHits@RadixSort@Cm@physx@@QEBAIXZ 0000000180001b70 f i Adjacencies.obj
 0001:00000b80       ?GetNbTotalCalls@RadixSort@Cm@physx@@QEBAIXZ 0000000180001b80 f i Adjacencies.obj
 0001:00000b90       ?Init@AdjacenciesBuilder@physx@@QEAA_NAEBUADJACENCIESCREATE@2@@Z 0000000180001b90 f   Adjacencies.obj
 0001:00001160       ?getAllocator@Foundation@shdfnd@physx@@QEAAAEAVPxAllocatorCallback@3@XZ 0000000180002160 f i Adjacencies.obj
 0001:00001170       ?getAllocatorCallback@Foundation@shdfnd@physx@@UEAAAEAVPxAllocatorCallback@3@XZ 0000000180002170 f i Adjacencies.obj
 0001:00001180       ?getErrorCallback@Foundation@shdfnd@physx@@UEAAAEAVPxErrorCallback@3@XZ 0000000180002180 f i Adjacencies.obj
 0001:00001180       ?GetRanks@RadixSort@Cm@physx@@QEBAPEBIXZ 0000000180002180 f i Adjacencies.obj
 0001:00001190       ?getErrorLevel@Foundation@shdfnd@physx@@UEBA?AW4Enum@PxErrorCode@3@XZ 0000000180002190 f i Adjacencies.obj
 0001:000011a0       ?getInternalErrorCallback@Foundation@shdfnd@physx@@QEAAAEAVPxErrorCallback@3@XZ 00000001800021a0 f i Adjacencies.obj
 0001:000011b0       ?getNamedAllocMap@Foundation@shdfnd@physx@@QEAAAEAV?$HashMap@PEBVNamedAllocator@shdfnd@physx@@PEBDU?$Hash@PEBVNamedAllocator@shdfnd@physx@@@23@VNonTrackingAllocator@23@@23@XZ 00000001800021b0 f i Adjacencies.obj
 0001:000011c0       ?getNamedAllocMutex@Foundation@shdfnd@physx@@QEAAAEAV?$MutexT@VAllocator@shdfnd@physx@@@23@XZ 00000001800021c0 f i Adjacencies.obj
 0001:000011d0       ?getReportAllocationNames@Foundation@shdfnd@physx@@UEBA_NXZ 00000001800021d0 f i Adjacencies.obj
 0001:000011e0       ?getTempAllocFreeTable@Foundation@shdfnd@physx@@QEAAAEAV?$Array@PEATTempAllocatorChunk@shdfnd@physx@@VAllocator@23@@23@XZ 00000001800021e0 f i Adjacencies.obj
 0001:000011f0       ?getTempAllocMutex@Foundation@shdfnd@physx@@QEAAAEAV?$MutexT@VAllocator@shdfnd@physx@@@23@XZ 00000001800021f0 f i Adjacencies.obj
 0001:00001200       ?invalidateRanks@RadixSort@Cm@physx@@QEAAXXZ 0000000180002200 f i Adjacencies.obj
 0001:00001210       ?setErrorLevel@Foundation@shdfnd@physx@@UEAAXW4Enum@PxErrorCode@3@@Z 0000000180002210 f i Adjacencies.obj
 0001:00001220       ?setReportAllocationNames@Foundation@shdfnd@physx@@UEAAX_N@Z 0000000180002220 f i Adjacencies.obj
 0001:00001230       ??0DebugText@Cm@physx@@QEAA@$$QEAU012@@Z 0000000180002230 f i Cooking.obj
 0001:00001230       ??0DebugText@Cm@physx@@QEAA@AEBU012@@Z 0000000180002230 f i Cooking.obj
 0001:00001310       ??4HeightFieldData@Gu@physx@@QEAAAEAU012@$$QEAU012@@Z 0000000180002310 f i Cooking.obj
 0001:00001310       ??0HeightFieldData@Gu@physx@@QEAA@$$QEAU012@@Z 0000000180002310 f i Cooking.obj
 0001:00001310       ??0HeightFieldData@Gu@physx@@QEAA@AEBU012@@Z 0000000180002310 f i Cooking.obj
 0001:00001310       ??4HeightFieldData@Gu@physx@@QEAAAEAU012@AEBU012@@Z 0000000180002310 f i Cooking.obj
 0001:00001370       ??0HeightFieldData@Gu@physx@@QEAA@XZ 0000000180002370 f i Cooking.obj
 0001:00001380       ??0RenderOutput@Cm@physx@@QEAA@AEAVRenderBuffer@12@@Z 0000000180002380 f i Cooking.obj
 0001:000013d0       ??0RenderOutput@Cm@physx@@QEAA@AEBV012@@Z 00000001800023d0 f i Cooking.obj
 0001:00001470       ??1PxConvexMesh@physx@@MEAA@XZ 0000000180002470 f i Cooking.obj
 0001:00001470       ??1PxHeightField@physx@@MEAA@XZ 0000000180002470 f i Cooking.obj
 0001:00001480       ??4DebugText@Cm@physx@@QEAAAEAU012@AEBU012@@Z 0000000180002480 f i Cooking.obj
 0001:00001480       ??4DebugText@Cm@physx@@QEAAAEAU012@$$QEAU012@@Z 0000000180002480 f i Cooking.obj
 0001:000014f0       ??4FPUGuard@shdfnd@physx@@QEAAAEAV012@AEBV012@@Z 00000001800024f0 f i Cooking.obj
 0001:00001510       ??_GCooking@physx@@UEAAPEAXI@Z 0000000180002510 f i Cooking.obj
 0001:00001510       ??_ECooking@physx@@UEAAPEAXI@Z 0000000180002510 f i Cooking.obj
 0001:00001560       ??_EPxBase@physx@@MEAAPEAXI@Z 0000000180002560 f i Cooking.obj
 0001:00001560       ??_GPxBase@physx@@MEAAPEAXI@Z 0000000180002560 f i Cooking.obj
 0001:00001590       ??_EPxCooking@physx@@MEAAPEAXI@Z 0000000180002590 f i Cooking.obj
 0001:00001590       ??_GPxCooking@physx@@MEAAPEAXI@Z 0000000180002590 f i Cooking.obj
 0001:000015c0       ?allocate@?$ReflectionAllocator@UPxDebugLine@physx@@@shdfnd@physx@@QEAAPEAX_KPEBDH@Z 00000001800025c0 f i Cooking.obj
 0001:00001660       ?computeHullPolygons@Cooking@physx@@UEBA_NAEBVPxSimpleTriangleMesh@2@AEAVPxAllocatorCallback@2@AEAIAEAPEAVPxVec3@2@2AEAPEAI2AEAPEAUPxHullPolygon@2@@Z 0000000180002660 f   Cooking.obj
 0001:00001840       ?cookBVHStructure@Cooking@physx@@UEBA_NAEBVPxBVHStructureDesc@2@AEAVPxOutputStream@2@@Z 0000000180002840 f   Cooking.obj
 0001:000018f0       ?cookConvexMesh@Cooking@physx@@UEBA_NAEBVPxConvexMeshDesc@2@AEAVPxOutputStream@2@PEAW4Enum@PxConvexMeshCookingResult@2@@Z 00000001800028f0 f   Cooking.obj
 0001:00001ad0       ?cookConvexMeshInternal@Cooking@physx@@AEBA_NAEBVPxConvexMeshDesc@2@AEAVConvexMeshBuilder@2@PEAVConvexHullLib@2@PEAW4Enum@PxConvexMeshCookingResult@2@@Z 0000000180002ad0 f   Cooking.obj
 0001:00001cc0       ?cookHeightField@Cooking@physx@@UEBA_NAEBVPxHeightFieldDesc@2@AEAVPxOutputStream@2@@Z 0000000180002cc0 f   Cooking.obj
 0001:00001dc0       ?cookTriangleMesh@Cooking@physx@@UEBA_NAEBVPxTriangleMeshDesc@2@AEAVPxOutputStream@2@PEAW4Enum@PxTriangleMeshCookingResult@2@@Z 0000000180002dc0 f   Cooking.obj
 0001:00001f20       ?copy@?$Array@UPxDebugLine@physx@@V?$ReflectionAllocator@UPxDebugLine@physx@@@shdfnd@2@@shdfnd@physx@@KAXPEAUPxDebugLine@3@0PEBU43@@Z 0000000180002f20 f i Cooking.obj
 0001:000020c0       ?createBVHStructure@Cooking@physx@@UEBAPEAVPxBVHStructure@2@AEBVPxBVHStructureDesc@2@AEAVPxPhysicsInsertionCallback@2@@Z 00000001800030c0 f   Cooking.obj
 0001:00002170       ?createConvexMesh@Cooking@physx@@UEBAPEAVPxConvexMesh@2@AEBVPxConvexMeshDesc@2@AEAVPxPhysicsInsertionCallback@2@PEAW4Enum@PxConvexMeshCookingResult@2@@Z 0000000180003170 f   Cooking.obj
 0001:00002360       ?createHeightField@Cooking@physx@@UEBAPEAVPxHeightField@2@AEBVPxHeightFieldDesc@2@AEAVPxPhysicsInsertionCallback@2@@Z 0000000180003360 f   Cooking.obj
 0001:000024c0       ?createTriangleMesh@Cooking@physx@@UEBAPEAVPxTriangleMesh@2@AEBVPxTriangleMeshDesc@2@AEAVPxPhysicsInsertionCallback@2@PEAW4Enum@PxTriangleMeshCookingResult@2@@Z 00000001800034c0 f   Cooking.obj
 0001:00002610       ?getConcreteTypeName@PxConvexMesh@physx@@UEBAPEBDXZ 0000000180003610 f i Cooking.obj
 0001:00002620       ?getConcreteTypeName@PxHeightField@physx@@UEBAPEBDXZ 0000000180003620 f i Cooking.obj
 0001:00002630       ?getConvexEdgeThreshold@HeightField@Gu@physx@@UEBAMXZ 0000000180003630 f i Cooking.obj
 0001:00002640       ?getFlags@HeightField@Gu@physx@@UEBA?AV?$PxFlags@W4Enum@PxHeightFieldFlag@physx@@G@3@XZ 0000000180003640 f i Cooking.obj
 0001:00002650       ?getFormat@HeightField@Gu@physx@@UEBA?AW4Enum@PxHeightFieldFormat@3@XZ 0000000180003650 f i Cooking.obj
 0001:00002660       ?getHeight@HeightField@Gu@physx@@UEBAMMM@Z 0000000180003660 f i Cooking.obj
 0001:000026a0       ?getHeightInternal2@HeightField@Gu@physx@@QEBAMIMM@Z 00000001800036a0 f i Cooking.obj
 0001:00002810       ?getIndexBuffer@ConvexMesh@Gu@physx@@UEBAPEBEXZ 0000000180003810 f i Cooking.obj
 0001:00002850       ?getNbColumns@HeightField@Gu@physx@@UEBAIXZ 0000000180003850 f i Cooking.obj
 0001:00002860       ?getNbPolygons@ConvexMesh@Gu@physx@@UEBAIXZ 0000000180003860 f i Cooking.obj
 0001:00002870       ?getNbRows@HeightField@Gu@physx@@UEBAIXZ 0000000180003870 f i Cooking.obj
 0001:00002880       ?getNbVertices@ConvexMesh@Gu@physx@@UEBAIXZ 0000000180003880 f i Cooking.obj
 0001:00002890       ?getDenormalizeScale@QuantizerImpl@@UEBAAEBVPxVec3@physx@@XZ 0000000180003890 f   Quantizer.obj
 0001:00002890       ?getParams@Cooking@physx@@UEBAAEBUPxCookingParams@2@XZ 0000000180003890 f   Cooking.obj
 0001:000028a0       ?getSample@HeightField@Gu@physx@@UEBAAEBUPxHeightFieldSample@3@II@Z 00000001800038a0 f i Cooking.obj
 0001:000028b0       ?getSampleStride@HeightField@Gu@physx@@UEBAIXZ 00000001800038b0 f i Cooking.obj
 0001:000028c0       ?getTimestamp@HeightField@Gu@physx@@UEBAIXZ 00000001800038c0 f i Cooking.obj
 0001:000028d0       ?getTriangleMaterialIndex@HeightField@Gu@physx@@UEBAGI@Z 00000001800038d0 f i Cooking.obj
 0001:00002910       ?getTriangleNormal@HeightField@Gu@physx@@UEBA?AVPxVec3@3@I@Z 0000000180003910 f i Cooking.obj
 0001:00002930       ?getTriangleNormalInternal@HeightField@Gu@physx@@QEBA?AVPxVec3@3@I@Z 0000000180003930 f i Cooking.obj
 0001:00002a90       ?getVertices@ConvexMesh@Gu@physx@@UEBAPEBVPxVec3@3@XZ 0000000180003a90 f i Cooking.obj
 0001:00002ab0       ?isKindOf@PxBase@physx@@MEBA_NPEBD@Z 0000000180003ab0 f i Cooking.obj
 0001:00002ae0       ?isKindOf@PxConvexMesh@physx@@MEBA_NPEBD@Z 0000000180003ae0 f i Cooking.obj
 0001:00002b30       ?isKindOf@PxHeightField@physx@@MEBA_NPEBD@Z 0000000180003b30 f i Cooking.obj
 0001:00002b80       ?isReleasable@PxBase@physx@@UEBA_NXZ 0000000180003b80 f i Cooking.obj
 0001:00002b90       ?isValid@PxConvexMeshDesc@physx@@QEBA_NXZ 0000000180003b90 f i Cooking.obj
 0001:00002c20       ?isValid@PxTriangleMeshDesc@physx@@QEBA_NXZ 0000000180003c20 f i Cooking.obj
 0001:00002ca0       ?outputSegment@RenderOutput@Cm@physx@@QEAAXAEBVPxVec3@3@0@Z 0000000180003ca0 f i Cooking.obj
 0001:00002d50       ?platformMismatch@Cooking@physx@@UEBA_NXZ 0000000180003d50 f   Cooking.obj
 0001:00002d60       ?preExportDataReset@ConvexMesh@Gu@physx@@QEAAXXZ 0000000180003d60 f i Cooking.obj
 0001:00002d60       ?preExportDataReset@HeightField@Gu@physx@@QEAAXXZ 0000000180003d60 f i Cooking.obj
 0001:00002d70       ?recreate@?$Array@UPxDebugLine@physx@@V?$ReflectionAllocator@UPxDebugLine@physx@@@shdfnd@2@@shdfnd@physx@@IEAAXI@Z 0000000180003d70 f i Cooking.obj
 0001:00002e00       ?release@Cooking@physx@@UEAAXXZ 0000000180003e00 f   Cooking.obj
 0001:00002e20       ?reserveSegments@RenderOutput@Cm@physx@@QEAAPEAUPxDebugLine@3@I@Z 0000000180003e20 f i Cooking.obj
 0001:00002e80       ?setParams@Cooking@physx@@UEAAXAEBUPxCookingParams@2@@Z 0000000180003e80 f   Cooking.obj
 0001:00002ee0       ?validateConvexMesh@Cooking@physx@@UEBA_NAEBVPxConvexMeshDesc@2@@Z 0000000180003ee0 f   Cooking.obj
 0001:00002f40       ?validateTriangleMesh@Cooking@physx@@UEBA_NAEBVPxTriangleMeshDesc@2@@Z 0000000180003f40 f   Cooking.obj
 0001:00002ff0       PxCreateCooking            0000000180003ff0 f   Cooking.obj
 0001:000030e0       ??0ReducedVertexCloud@physx@@QEAA@PEBVPxVec3@1@I@Z 00000001800040e0 f   CookingUtils.obj
 0001:00003100       ??1ReducedVertexCloud@physx@@QEAA@XZ 0000000180004100 f   CookingUtils.obj
 0001:00003160       ?Reduce@ReducedVertexCloud@physx@@QEAA_NPEAUREDUCEDCLOUD@2@@Z 0000000180004160 f   CookingUtils.obj
 0001:000034b0       ??0EdgeListBuilder@Gu@physx@@QEAA@XZ 00000001800044b0 f   EdgeList.obj
 0001:000034d0       ??1EdgeList@Gu@physx@@QEAA@XZ 00000001800044d0 f   EdgeList.obj
 0001:00003570       ??1EdgeListBuilder@Gu@physx@@QEAA@XZ 0000000180004570 f   EdgeList.obj
 0001:000035d0       ?computeActiveEdges@EdgeListBuilder@Gu@physx@@AEAA_NIPEBIPEBGPEBVPxVec3@3@M@Z 00000001800045d0 f   EdgeList.obj
 0001:00004b30       ?createEdgesToFaces@EdgeListBuilder@Gu@physx@@AEAA_NIPEBIPEBG@Z 0000000180005b30 f   EdgeList.obj
 0001:00004d80       ?createFacesToEdges@EdgeListBuilder@Gu@physx@@AEAA_NIPEBIPEBG@Z 0000000180005d80 f   EdgeList.obj
 0001:00005270       ?init@EdgeListBuilder@Gu@physx@@QEAA_NAEBUEDGELISTCREATE@23@@Z 0000000180006270 f   EdgeList.obj
 0001:000053a0       ??0MeshCleaner@physx@@QEAA@IPEBVPxVec3@1@IPEBIM@Z 00000001800063a0 f   MeshCleaner.obj
 0001:00005d00       ??1MeshCleaner@physx@@QEAA@XZ 0000000180006d00 f   MeshCleaner.obj
 0001:00005d90       ??$kmeans_cluster@VPxVec3@physx@@M@@YAIPEBVPxVec3@physx@@IIPEAV01@PEAIMM@Z 0000000180006d90 f i Quantizer.obj
 0001:00006610       ??1QuantizerImpl@@EEAA@XZ  0000000180007610 f i Quantizer.obj
 0001:00006690       ??_GQuantizer@physx@@MEAAPEAXI@Z 0000000180007690 f i Quantizer.obj
 0001:00006690       ??_EQuantizer@physx@@MEAAPEAXI@Z 0000000180007690 f i Quantizer.obj
 0001:000066c0       ??_GQuantizerImpl@@EEAAPEAXI@Z 00000001800076c0 f i Quantizer.obj
 0001:000066c0       ??_EQuantizerImpl@@EEAAPEAXI@Z 00000001800076c0 f i Quantizer.obj
 0001:00006720       ?allocate@?$ReflectionAllocator@VPxVec3@physx@@@shdfnd@physx@@QEAAPEAX_KPEBDH@Z 0000000180007720 f i Quantizer.obj
 0001:000067c0       ?copy@?$Array@VPxVec3@physx@@V?$ReflectionAllocator@VPxVec3@physx@@@shdfnd@2@@shdfnd@physx@@KAXPEAVPxVec3@3@0PEBV43@@Z 00000001800077c0 f i Quantizer.obj
 0001:000068b0       ?createQuantizer@physx@@YAPEAVQuantizer@1@XZ 00000001800078b0 f   Quantizer.obj
 0001:00006960       ?getDenormalizeCenter@QuantizerImpl@@UEBAAEBVPxVec3@physx@@XZ 0000000180007960 f i Quantizer.obj
 0001:00006970       ?growAndPushBack@?$Array@VPxVec3@physx@@V?$ReflectionAllocator@VPxVec3@physx@@@shdfnd@2@@shdfnd@physx@@IEAAAEAVPxVec3@3@AEBV43@@Z 0000000180007970 f i Quantizer.obj
 0001:00006a60       ?kmeansQuantize3D@QuantizerImpl@@UEAAPEBVPxVec3@physx@@IPEBV23@I_NIAEAI@Z 0000000180007a60 f i Quantizer.obj
 0001:00006cd0       ?normalizeInput@QuantizerImpl@@AEAAXIPEBVPxVec3@physx@@I@Z 0000000180007cd0 f i Quantizer.obj
 0001:00007090       ?release@QuantizerImpl@@UEAAXXZ 0000000180008090 f i Quantizer.obj
 0001:000070b0       ??$?4V?$ReflectionAllocator@USlab@NodeAllocator@Gu@physx@@@shdfnd@physx@@@?$Array@USlab@NodeAllocator@Gu@physx@@V?$ReflectionAllocator@USlab@NodeAllocator@Gu@physx@@@shdfnd@4@@shdfnd@physx@@QEAAAEAV012@AEBV012@@Z 00000001800080b0 f i BVHStructureBuilder.obj
 0001:00007120       ??$copy@V?$ReflectionAllocator@USlab@NodeAllocator@Gu@physx@@@shdfnd@physx@@@?$Array@USlab@NodeAllocator@Gu@physx@@V?$ReflectionAllocator@USlab@NodeAllocator@Gu@physx@@@shdfnd@4@@shdfnd@physx@@IEAAXAEBV012@@Z 0000000180008120 f i BVHStructureBuilder.obj
 0001:000071b0       ??0AABBTreeBuildParams@Gu@physx@@QEAA@IIPEBVPxBounds3@2@@Z 00000001800081b0 f i BVHStructureBuilder.obj
 0001:000071d0       ??0BVHStructureBuilder@physx@@QEAA@XZ 00000001800081d0 f   BVHStructureBuilder.obj
 0001:000071f0       ??0BuildStats@Gu@physx@@QEAA@XZ 00000001800081f0 f i BVHStructureBuilder.obj
 0001:00007200       ??0NodeAllocator@Gu@physx@@QEAA@AEBV012@@Z 0000000180008200 f i BVHStructureBuilder.obj
 0001:00007240       ?reset@AABBTreeBuildParams@Gu@physx@@QEAAXXZ 0000000180008240 f i BVHStructureBuilder.obj
 0001:00007240       ??1AABBTreeBuildParams@Gu@physx@@QEAA@XZ 0000000180008240 f i BVHStructureBuilder.obj
 0001:000072a0       ??1BVHStructureBuilder@physx@@QEAA@XZ 00000001800082a0 f   BVHStructureBuilder.obj
 0001:00007320       ??4AABBTreeBuildNode@Gu@physx@@QEAAAEAV012@AEBV012@@Z 0000000180008320 f i BVHStructureBuilder.obj
 0001:00007320       ??0AABBTreeBuildNode@Gu@physx@@QEAA@AEBV012@@Z 0000000180008320 f i BVHStructureBuilder.obj
 0001:00007360       ??4AABBTreeBuildParams@Gu@physx@@QEAAAEAV012@AEBV012@@Z 0000000180008360 f i BVHStructureBuilder.obj
 0001:00007380       ??4BuildStats@Gu@physx@@QEAAAEAU012@$$QEAU012@@Z 0000000180008380 f i BVHStructureBuilder.obj
 0001:00007390       ??4BuildStats@Gu@physx@@QEAAAEAU012@AEBU012@@Z 0000000180008390 f i BVHStructureBuilder.obj
 0001:000073a0       ??4NodeAllocator@Gu@physx@@QEAAAEAV012@AEBV012@@Z 00000001800083a0 f i BVHStructureBuilder.obj
 0001:000073e0       ??_FAABBTreeBuildParams@Gu@physx@@QEAAXXZ 00000001800083e0 f i BVHStructureBuilder.obj
 0001:00007400       ?allocate@?$ReflectionAllocator@USlab@NodeAllocator@Gu@physx@@@shdfnd@physx@@QEAAPEAX_KPEBDH@Z 0000000180008400 f i BVHStructureBuilder.obj
 0001:000074a0       ?flatten@@YAXAEBVNodeAllocator@Gu@physx@@PEAUBVHNode@23@@Z 00000001800084a0 f   BVHStructureBuilder.obj
 0001:00007660       ?getCount@BuildStats@Gu@physx@@QEBAIXZ 0000000180008660 f i BVHStructureBuilder.obj
 0001:00007670       ?getNbRuntimePrimitives@AABBTreeBuildNode@Gu@physx@@QEBAIXZ 0000000180008670 f i BVHStructureBuilder.obj
 0001:00007670       ?getNbPrimitives@AABBTreeBuildNode@Gu@physx@@QEBAIXZ 0000000180008670 f i BVHStructureBuilder.obj
 0001:00007680       ?getNeg@AABBTreeBuildNode@Gu@physx@@QEBAPEBV123@XZ 0000000180008680 f i BVHStructureBuilder.obj
 0001:000076a0       ?GetRecyclable@RadixSort@Cm@physx@@QEBAPEAIXZ 00000001800086a0 f i Adjacencies.obj
 0001:000076a0       ?GetValencies@BigConvexData@physx@@QEBAPEBUValency@Gu@2@XZ 00000001800086a0 f i BigConvexDataBuilder.obj
 0001:000076a0       ?getPos@AABBTreeBuildNode@Gu@physx@@QEBAPEBV123@XZ 00000001800086a0 f i BVHStructureBuilder.obj
 0001:000076b0       ?getPrimitives@AABBTreeBuildNode@Gu@physx@@QEAAPEAIPEAI@Z 00000001800086b0 f i BVHStructureBuilder.obj
 0001:000076b0       ?getPrimitives@AABBTreeBuildNode@Gu@physx@@QEBAPEBIPEBI@Z 00000001800086b0 f i BVHStructureBuilder.obj
 0001:000076c0       ?increaseCount@BuildStats@Gu@physx@@QEAAXI@Z 00000001800086c0 f i BVHStructureBuilder.obj
 0001:000076d0       ?isLeaf@AABBTreeBuildNode@Gu@physx@@QEBA_NXZ 00000001800086d0 f i BVHStructureBuilder.obj
 0001:000076e0       ?loadFromDesc@BVHStructureBuilder@physx@@QEAA_NAEBVPxBVHStructureDesc@2@@Z 00000001800086e0 f   BVHStructureBuilder.obj
 0001:000078b0       ?moveData@BVHStructureBuilder@physx@@QEAAXAEAUBVHStructureData@Gu@2@@Z 00000001800088b0 f   BVHStructureBuilder.obj
 0001:000078f0       ?recreate@?$Array@USlab@NodeAllocator@Gu@physx@@V?$ReflectionAllocator@USlab@NodeAllocator@Gu@physx@@@shdfnd@4@@shdfnd@physx@@IEAAXI@Z 00000001800088f0 f i BVHStructureBuilder.obj
 0001:000079a0       ?reset@BuildStats@Gu@physx@@QEAAXXZ 00000001800089a0 f i BVHStructureBuilder.obj
 0001:000079b0       ?save@BVHStructureBuilder@physx@@QEBA_NAEAVPxOutputStream@2@_N@Z 00000001800089b0 f   BVHStructureBuilder.obj
 0001:00007b30       ?setCount@BuildStats@Gu@physx@@QEAAXI@Z 0000000180008b30 f i BVHStructureBuilder.obj
 0001:00007b40       ?setNbRunTimePrimitives@AABBTreeBuildNode@Gu@physx@@QEAAXI@Z 0000000180008b40 f i BVHStructureBuilder.obj
 0001:00007b50       ?saveHeightField@physx@@YA_NAEBVHeightField@Gu@1@AEAVPxOutputStream@1@_N@Z 0000000180008b50 f   HeightFieldCooking.obj
 0001:00007d90       ??$median3@I$$CBUSortBoundsPredicate@physx@@@internal@shdfnd@physx@@YAXPEAIHHAEBUSortBoundsPredicate@2@@Z 0000000180008d90 f i RTreeCooking.obj
 0001:00007eb0       ??$partition@I$$CBU?$Less@I@shdfnd@physx@@@internal@shdfnd@physx@@YAHPEAIHHAEBU?$Less@I@12@@Z 0000000180008eb0 f i RTreeCooking.obj
 0001:00007f80       ??$partition@I$$CBUSortBoundsPredicate@physx@@@internal@shdfnd@physx@@YAHPEAIHHAEBUSortBoundsPredicate@2@@Z 0000000180008f80 f i RTreeCooking.obj
 0001:00008070       ??$quickSelectFirstK@UBoundsLTE@physx@@@quickSelect@physx@@YAXPEIAIIIIAEBUBoundsLTE@1@@Z 0000000180009070 f i RTreeCooking.obj
 0001:00008260       ??$smallSort@I$$CBU?$Less@I@shdfnd@physx@@@internal@shdfnd@physx@@YAXPEAIHHAEBU?$Less@I@12@@Z 0000000180009260 f i RTreeCooking.obj
 0001:00008340       ??$smallSort@I$$CBUSortBoundsPredicate@physx@@@internal@shdfnd@physx@@YAXPEAIHHAEBUSortBoundsPredicate@2@@Z 0000000180009340 f i RTreeCooking.obj
 0001:00008630       ??$sort@IU?$Less@I@shdfnd@physx@@V?$ReflectionAllocator@I@23@@shdfnd@physx@@YAXPEAIIAEBU?$Less@I@01@AEBV?$ReflectionAllocator@I@01@I@Z 0000000180009630 f i RTreeCooking.obj
 0001:00008930       ??$sort@IUSortBoundsPredicate@physx@@V?$ReflectionAllocator@I@shdfnd@2@@shdfnd@physx@@YAXPEAIIAEBUSortBoundsPredicate@1@AEBV?$ReflectionAllocator@I@01@I@Z 0000000180009930 f i RTreeCooking.obj
 0001:00008c30       ??0SubSortQuick@physx@@QEAA@PEAIPEBUPxBounds3V@1@IM@Z 0000000180009c30 f i RTreeCooking.obj
 0001:00008d80       ??0SubSortSAH@physx@@QEAA@PEAIPEBUPxBounds3V@1@IPEBI22222M@Z 0000000180009d80 f i RTreeCooking.obj
 0001:00008f10       ?allocate@?$Array@UInterval@physx@@V?$InlineAllocator@$0CAAA@V?$ReflectionAllocator@UInterval@physx@@@shdfnd@physx@@@shdfnd@2@@shdfnd@physx@@IEAAPEAUInterval@3@I@Z 0000000180009f10 f i RTreeCooking.obj
 0001:00008fd0       ?allocate@?$ReflectionAllocator@I@shdfnd@physx@@QEAAPEAX_KPEBDH@Z 0000000180009fd0 f i RTreeCooking.obj
 0001:00009070       ?allocate@?$ReflectionAllocator@UPxBounds3V@physx@@@shdfnd@physx@@QEAAPEAX_KPEBDH@Z 000000018000a070 f i RTreeCooking.obj
 0001:00009110       ?allocate@?$ReflectionAllocator@URTreeNodeNQ@physx@@@shdfnd@physx@@QEAAPEAX_KPEBDH@Z 000000018000a110 f i RTreeCooking.obj
 0001:000091b0       ?allocate@?$ReflectionAllocator@URTreeNodeQ@Gu@physx@@@shdfnd@physx@@QEAAPEAX_KPEBDH@Z 000000018000a1b0 f i RTreeCooking.obj
 0001:00009ca0       ?buildFromTriangles@RTreeCooker@physx@@SAXAEAURTree@Gu@2@PEBVPxVec3@2@IPEBGPEBIIAEAV?$Array@IV?$ReflectionAllocator@I@shdfnd@physx@@@shdfnd@2@PEAURemapCallback@12@MW4Enum@PxMeshCookingHint@2@@Z 000000018000aca0 f   RTreeCooking.obj
 0001:00009f60       ?copy@?$Array@URTreeNodeNQ@physx@@V?$ReflectionAllocator@URTreeNodeNQ@physx@@@shdfnd@2@@shdfnd@physx@@KAXPEAURTreeNodeNQ@3@0PEBU43@@Z 000000018000af60 f i RTreeCooking.obj
 0001:0000a100       ?growAndPushBack@?$Array@IV?$ReflectionAllocator@I@shdfnd@physx@@@shdfnd@physx@@IEAAAEAIAEBI@Z 000000018000b100 f i RTreeCooking.obj
 0001:0000a1d0       ?growAndPushBack@?$Array@UInterval@physx@@V?$InlineAllocator@$0CAAA@V?$ReflectionAllocator@UInterval@physx@@@shdfnd@physx@@@shdfnd@2@@shdfnd@physx@@IEAAAEAUInterval@3@AEBU43@@Z 000000018000b1d0 f i RTreeCooking.obj
 0001:0000a2c0       ?growAndPushBack@?$Array@UPxBounds3V@physx@@V?$ReflectionAllocator@UPxBounds3V@physx@@@shdfnd@2@@shdfnd@physx@@IEAAAEAUPxBounds3V@3@AEBU43@@Z 000000018000b2c0 f i RTreeCooking.obj
 0001:0000a3b0       ?growAndPushBack@?$Array@URTreeNodeNQ@physx@@V?$ReflectionAllocator@URTreeNodeNQ@physx@@@shdfnd@2@@shdfnd@physx@@IEAAAEAURTreeNodeNQ@3@AEBU43@@Z 000000018000b3b0 f i RTreeCooking.obj
 0001:0000a4b0       ?growAndPushBack@?$Array@URTreeNodeQ@Gu@physx@@V?$ReflectionAllocator@URTreeNodeQ@Gu@physx@@@shdfnd@3@@shdfnd@physx@@IEAAAEAURTreeNodeQ@Gu@3@AEBU453@@Z 000000018000b4b0 f i RTreeCooking.obj
 0001:0000a5b0       ?recreate@?$Array@IV?$ReflectionAllocator@I@shdfnd@physx@@@shdfnd@physx@@IEAAXI@Z 000000018000b5b0 f i RTreeCooking.obj
 0001:0000a660       ?recreate@?$Array@UPxBounds3V@physx@@V?$ReflectionAllocator@UPxBounds3V@physx@@@shdfnd@2@@shdfnd@physx@@IEAAXI@Z 000000018000b660 f i RTreeCooking.obj
 0001:0000a710       ?recreate@?$Array@URTreeNodeNQ@physx@@V?$ReflectionAllocator@URTreeNodeNQ@physx@@@shdfnd@2@@shdfnd@physx@@IEAAXI@Z 000000018000b710 f i RTreeCooking.obj
 0001:0000a7a0       ?recreate@?$Array@URTreeNodeQ@Gu@physx@@V?$ReflectionAllocator@URTreeNodeQ@Gu@physx@@@shdfnd@3@@shdfnd@physx@@IEAAXI@Z 000000018000b7a0 f i RTreeCooking.obj
 0001:0000a860       ?recreate@?$Array@VPxVec3@physx@@V?$ReflectionAllocator@VPxVec3@physx@@@shdfnd@2@@shdfnd@physx@@IEAAXI@Z 000000018000b860 f i RTreeCooking.obj
 0001:0000a8f0       ?resize@?$Array@IV?$ReflectionAllocator@I@shdfnd@physx@@@shdfnd@physx@@QEAAXIAEBI@Z 000000018000b8f0 f i RTreeCooking.obj
 0001:0000a960       ?resizeUninitialized@?$Array@URTreeNodeNQ@physx@@V?$ReflectionAllocator@URTreeNodeNQ@physx@@@shdfnd@2@@shdfnd@physx@@QEAAXI@Z 000000018000b960 f i RTreeCooking.obj
 0001:0000a9a0       ?sort4@SubSortQuick@physx@@QEAAXPEIAIIAEAV?$Array@URTreeNodeNQ@physx@@V?$ReflectionAllocator@URTreeNodeNQ@physx@@@shdfnd@2@@shdfnd@2@AEAIAEAUPxBounds3V@2@I@Z 000000018000b9a0 f i RTreeCooking.obj
 0001:0000ad30       ?sort4@SubSortSAH@physx@@QEAAXPEAIIAEAV?$Array@URTreeNodeNQ@physx@@V?$ReflectionAllocator@URTreeNodeNQ@physx@@@shdfnd@2@@shdfnd@2@AEAIIPEAURTreeNodeNQ@2@@Z 000000018000bd30 f i RTreeCooking.obj
 0001:0000b4a0       ?split@SubSortSAH@physx@@QEAAIPEAII@Z 000000018000c4a0 f i RTreeCooking.obj
 0001:0000bc50       ?computeLocalBounds@MeshBulider@physx@@IEAAXAEAVMeshDataBase@Gu@2@@Z 000000018000cc50 f   MeshBuilder.obj
 0001:0000bd00       ??$median3@UEdgeTriLookup@physx@@$$CBU?$Less@UEdgeTriLookup@physx@@@shdfnd@2@@internal@shdfnd@physx@@YAXPEAUEdgeTriLookup@2@HHAEBU?$Less@UEdgeTriLookup@physx@@@12@@Z 000000018000cd00 f i TriangleMeshBuilder.obj
 0001:0000be10       ??$partition@UEdgeTriLookup@physx@@$$CBU?$Less@UEdgeTriLookup@physx@@@shdfnd@2@@internal@shdfnd@physx@@YAHPEAUEdgeTriLookup@2@HHAEBU?$Less@UEdgeTriLookup@physx@@@12@@Z 000000018000ce10 f i TriangleMeshBuilder.obj
 0001:0000bf30       ??$smallSort@UEdgeTriLookup@physx@@$$CBU?$Less@UEdgeTriLookup@physx@@@shdfnd@2@@internal@shdfnd@physx@@YAXPEAUEdgeTriLookup@2@HHAEBU?$Less@UEdgeTriLookup@physx@@@12@@Z 000000018000cf30 f i TriangleMeshBuilder.obj
 0001:0000c040       ??$sort@UEdgeTriLookup@physx@@U?$Less@UEdgeTriLookup@physx@@@shdfnd@2@V?$ReflectionAllocator@UEdgeTriLookup@physx@@@42@@shdfnd@physx@@YAXPEAUEdgeTriLookup@1@IAEBU?$Less@UEdgeTriLookup@physx@@@01@AEBV?$ReflectionAllocator@UEdgeTriLookup@physx@@@01@I@Z 000000018000d040 f i TriangleMeshBuilder.obj
 0001:0000c340       ??0BV4TriangleData@Gu@physx@@QEAA@XZ 000000018000d340 f i TriangleMeshBuilder.obj
 0001:0000c3f0       ??0BV4TriangleMeshBuilder@physx@@QEAA@AEBUPxCookingParams@1@@Z 000000018000d3f0 f   TriangleMeshBuilder.obj
 0001:0000c430       ??0RTreeTriangleMeshBuilder@physx@@QEAA@AEBUPxCookingParams@1@@Z 000000018000d430 f   TriangleMeshBuilder.obj
 0001:0000c4f0       ??1BV4TriangleMeshBuilder@physx@@UEAA@XZ 000000018000d4f0 f   TriangleMeshBuilder.obj
 0001:0000c580       ??1MeshDataBase@Gu@physx@@UEAA@XZ 000000018000d580 f i TriangleMeshBuilder.obj
 0001:0000c660       ??1RTreeTriangleMeshBuilder@physx@@UEAA@XZ 000000018000d660 f   TriangleMeshBuilder.obj
 0001:0000c710       ??1TriangleMeshData@Gu@physx@@UEAA@XZ 000000018000d710 f i TriangleMeshBuilder.obj
 0001:0000c7e0       ??_GBV4TriangleData@Gu@physx@@UEAAPEAXI@Z 000000018000d7e0 f i TriangleMeshBuilder.obj
 0001:0000c7e0       ??_EBV4TriangleData@Gu@physx@@UEAAPEAXI@Z 000000018000d7e0 f i TriangleMeshBuilder.obj
 0001:0000c860       ??_GBV4TriangleMeshBuilder@physx@@UEAAPEAXI@Z 000000018000d860 f i TriangleMeshBuilder.obj
 0001:0000c860       ??_EBV4TriangleMeshBuilder@physx@@UEAAPEAXI@Z 000000018000d860 f i TriangleMeshBuilder.obj
 0001:0000c8a0       ??_GMeshDataBase@Gu@physx@@UEAAPEAXI@Z 000000018000d8a0 f i TriangleMeshBuilder.obj
 0001:0000c8a0       ??_EMeshDataBase@Gu@physx@@UEAAPEAXI@Z 000000018000d8a0 f i TriangleMeshBuilder.obj
 0001:0000c900       ??_ERTreeCookerRemap@physx@@UEAAPEAXI@Z 000000018000d900 f i TriangleMeshBuilder.obj
 0001:0000c900       ??_GRTreeCookerRemap@physx@@UEAAPEAXI@Z 000000018000d900 f i TriangleMeshBuilder.obj
 0001:0000c930       ??_ERTreeTriangleData@Gu@physx@@UEAAPEAXI@Z 000000018000d930 f i TriangleMeshBuilder.obj
 0001:0000c930       ??_GRTreeTriangleData@Gu@physx@@UEAAPEAXI@Z 000000018000d930 f i TriangleMeshBuilder.obj
 0001:0000c9e0       ??_GRTreeTriangleMeshBuilder@physx@@UEAAPEAXI@Z 000000018000d9e0 f i TriangleMeshBuilder.obj
 0001:0000c9e0       ??_ERTreeTriangleMeshBuilder@physx@@UEAAPEAXI@Z 000000018000d9e0 f i TriangleMeshBuilder.obj
 0001:0000ca20       ??_GRemapCallback@RTreeCooker@physx@@UEAAPEAXI@Z 000000018000da20 f i TriangleMeshBuilder.obj
 0001:0000ca20       ??_ERemapCallback@RTreeCooker@physx@@UEAAPEAXI@Z 000000018000da20 f i TriangleMeshBuilder.obj
 0001:0000ca50       ??_ETriangleMeshBuilder@physx@@UEAAPEAXI@Z 000000018000da50 f i TriangleMeshBuilder.obj
 0001:0000ca50       ??_GTriangleMeshBuilder@physx@@UEAAPEAXI@Z 000000018000da50 f i TriangleMeshBuilder.obj
 0001:0000cac0       ??_GTriangleMeshData@Gu@physx@@UEAAPEAXI@Z 000000018000dac0 f i TriangleMeshBuilder.obj
 0001:0000cac0       ??_ETriangleMeshData@Gu@physx@@UEAAPEAXI@Z 000000018000dac0 f i TriangleMeshBuilder.obj
 0001:0000cb20       ?allocateMaterials@TriangleMeshData@Gu@physx@@QEAAPEAGXZ 000000018000db20 f i TriangleMeshBuilder.obj
 0001:0000cbe0       ?allocateTriangles@TriangleMeshData@Gu@physx@@QEAAPEAXI_NI@Z 000000018000dbe0 f i TriangleMeshBuilder.obj
 0001:0000ccd0       ?allocateVertices@MeshDataBase@Gu@physx@@QEAAPEAVPxVec3@3@I@Z 000000018000dcd0 f i TriangleMeshBuilder.obj
 0001:0000d1e0       ?checkMeshIndicesSize@TriangleMeshBuilder@physx@@QEAAXXZ 000000018000e1e0 f   TriangleMeshBuilder.obj
 0001:0000d2f0       ?cleanMesh@TriangleMeshBuilder@physx@@QEAA_N_NPEAW4Enum@PxTriangleMeshCookingResult@2@@Z 000000018000e2f0 f   TriangleMeshBuilder.obj
 0001:0000d830       ?createEdgeList@TriangleMeshBuilder@physx@@IEAAXXZ 000000018000e830 f   TriangleMeshBuilder.obj
 0001:0000d960       ?createGRBData@TriangleMeshBuilder@physx@@QEAAXXZ 000000018000e960 f   TriangleMeshBuilder.obj
 0001:0000da60       ?createGRBMidPhaseAndData@TriangleMeshBuilder@physx@@QEAAXI@Z 000000018000ea60 f   TriangleMeshBuilder.obj
 0001:0000dc10       ?createMidPhaseStructure@BV32TriangleMeshBuilder@physx@@SAXAEBUPxCookingParams@2@AEAVTriangleMeshData@Gu@2@AEAVBV32Tree@52@@Z 000000018000ec10 f   TriangleMeshBuilder.obj
 0001:0000dde0       ?createMidPhaseStructure@BV4TriangleMeshBuilder@physx@@UEAAXXZ 000000018000ede0 f   TriangleMeshBuilder.obj
 0001:0000e0f0       ?createMidPhaseStructure@RTreeTriangleMeshBuilder@physx@@UEAAXXZ 000000018000f0f0 f   TriangleMeshBuilder.obj
 0001:0000e1d0       ?createSharedEdgeData@TriangleMeshBuilder@physx@@QEAAX_N0@Z 000000018000f1d0 f   TriangleMeshBuilder.obj
 0001:0000e750       ?getMidphaseID@BV4TriangleMeshBuilder@physx@@UEBA?AW4Enum@PxMeshMidPhase@2@XZ 000000018000f750 f i TriangleMeshBuilder.obj
 0001:0000e750       DllMain                    000000018000f750 f i LIBCMT:dll_dllmain_stub.obj
 0001:0000e750       ?length@charNode@@UEBAHXZ  000000018000f750 f i libvcruntime:undname.obj
 0001:0000e750       _get_startup_argv_mode     000000018000f750 f i LIBCMT:argv_mode.obj
 0001:0000e760       ?getMidphaseID@RTreeTriangleMeshBuilder@physx@@UEBA?AW4Enum@PxMeshMidPhase@2@XZ 000000018000f760 f i TriangleMeshBuilder.obj
 0001:0000e770       ?importMesh@TriangleMeshBuilder@physx@@IEAA_NAEBVPxTriangleMeshDesc@2@AEBUPxCookingParams@2@PEAW4Enum@PxTriangleMeshCookingResult@2@_N@Z 000000018000f770 f   TriangleMeshBuilder.obj
 0001:0000ea70       ?loadFromDesc@TriangleMeshBuilder@physx@@QEAA_NAEBVPxTriangleMeshDesc@2@PEAW4Enum@PxTriangleMeshCookingResult@2@_N@Z 000000018000fa70 f   TriangleMeshBuilder.obj
 0001:0000ed60       ?onMeshIndexFormatChange@BV4TriangleMeshBuilder@physx@@UEAAXXZ 000000018000fd60 f   TriangleMeshBuilder.obj
 0001:0000eda0       ?recordTriangleIndices@TriangleMeshBuilder@physx@@QEAAXXZ 000000018000fda0 f   TriangleMeshBuilder.obj
 0001:0000eea0       ?remap@RTreeCookerRemap@physx@@UEAAXPEAIII@Z 000000018000fea0 f i TriangleMeshBuilder.obj
 0001:0000eec0       ?remapTopology@TriangleMeshBuilder@physx@@QEAAXPEBI@Z 000000018000fec0 f   TriangleMeshBuilder.obj
 0001:0000f1b0       ?save@TriangleMeshBuilder@physx@@QEBA_NAEAVPxOutputStream@2@_NAEBUPxCookingParams@2@@Z 00000001800101b0 f   TriangleMeshBuilder.obj
 0001:0000f620       ?saveMidPhaseStructure@BV32TriangleMeshBuilder@physx@@SAXPEAVBV32Tree@Gu@2@AEAVPxOutputStream@2@_N@Z 0000000180010620 f   TriangleMeshBuilder.obj
 0001:0000f7c0       ?saveMidPhaseStructure@BV4TriangleMeshBuilder@physx@@UEBAXAEAVPxOutputStream@2@_N@Z 00000001800107c0 f   TriangleMeshBuilder.obj
 0001:0000f960       ?saveMidPhaseStructure@RTreeTriangleMeshBuilder@physx@@UEBAXAEAVPxOutputStream@2@_N@Z 0000000180010960 f   TriangleMeshBuilder.obj
 0001:0000fba0       ??0BigConvexDataBuilder@physx@@QEAA@PEBUConvexHullData@Gu@1@PEAVBigConvexData@1@PEBVPxVec3@1@@Z 0000000180010ba0 f   BigConvexDataBuilder.obj
 0001:0000fbb0       ??4BigConvexData@physx@@QEAAAEAV01@AEBV01@@Z 0000000180010bb0 f i BigConvexDataBuilder.obj
 0001:0000fbd0       ?GetAdjacentVerts@BigConvexData@physx@@QEBAPEBEXZ 0000000180010bd0 f i BigConvexDataBuilder.obj
 0001:0000fbe0       ?GetValency@BigConvexData@physx@@QEBAGI@Z 0000000180010be0 f i BigConvexDataBuilder.obj
 0001:0000fbe0       ?GetNbNeighbors@BigConvexData@physx@@QEBAGI@Z 0000000180010be0 f i BigConvexDataBuilder.obj
 0001:0000fbf0       ?GetNbSamples@BigConvexData@physx@@QEBAIXZ 0000000180010bf0 f i BigConvexDataBuilder.obj
 0001:0000fc00       ?GetNbVerts@BigConvexData@physx@@QEBAIXZ 0000000180010c00 f i BigConvexDataBuilder.obj
 0001:0000fc00       ?length@pcharNode@@UEBAHXZ 0000000180010c00 f i libvcruntime:undname.obj
 0001:0000fc10       ?GetNeighbors@BigConvexData@physx@@QEBAPEBEI@Z 0000000180010c10 f i BigConvexDataBuilder.obj
 0001:0000fc20       ?GetOffset@BigConvexData@physx@@QEBAGI@Z 0000000180010c20 f i BigConvexDataBuilder.obj
 0001:0000fc30       ?GetSubdiv@BigConvexData@physx@@QEBAIXZ 0000000180010c30 f i BigConvexDataBuilder.obj
 0001:0000fc40       ?computeValencies@BigConvexDataBuilder@physx@@QEAA_NAEBVConvexHullBuilder@2@@Z 0000000180010c40 f   BigConvexDataBuilder.obj
 0001:00010030       ?initialize@BigConvexDataBuilder@physx@@QEAA_NXZ 0000000180011030 f   BigConvexDataBuilder.obj
 0001:000100d0       ?precompute@BigConvexDataBuilder@physx@@QEAA_NI@Z 00000001800110d0 f   BigConvexDataBuilder.obj
 0001:00010a90       ?save@BigConvexDataBuilder@physx@@QEBA_NAEAVPxOutputStream@2@_N@Z 0000000180011a90 f   BigConvexDataBuilder.obj
 0001:00010b70       ?saveValencies@BigConvexDataBuilder@physx@@QEBA_NAEAVPxOutputStream@2@_N@Z 0000000180011b70 f   BigConvexDataBuilder.obj
 0001:00010d20       ??0ConvexHullBuilder@physx@@QEAA@PEAUConvexHullData@Gu@1@_N@Z 0000000180011d20 f   ConvexHullBuilder.obj
 0001:00010d50       ??1ConvexHullBuilder@physx@@QEAA@XZ 0000000180011d50 f   ConvexHullBuilder.obj
 0001:00010e50       ?calculateVertexMapTable@ConvexHullBuilder@physx@@QEAA_NI_N@Z 0000000180011e50 f   ConvexHullBuilder.obj
 0001:00011060       ?checkHullPolygons@ConvexHullBuilder@physx@@QEBA_NXZ 0000000180012060 f   ConvexHullBuilder.obj
 0001:00011490       ?computeGeomCenter@ConvexHullBuilder@physx@@IEBA_NAEAVPxVec3@2@IPEAUHullTriangleData@2@@Z 0000000180012490 f   ConvexHullBuilder.obj
 0001:000116c0       ?copy@ConvexHullBuilder@physx@@QEAA_NAEAUConvexHullData@Gu@2@AEAI@Z 00000001800126c0 f   ConvexHullBuilder.obj
 0001:00011910       ?createEdgeList@ConvexHullBuilder@physx@@QEAA_N_NI@Z 0000000180012910 f   ConvexHullBuilder.obj
 0001:000121e0       ?init@ConvexHullBuilder@physx@@QEAA_NIPEBVPxVec3@2@PEBIIIPEBUPxHullPolygon@2@_NPEAVConvexHullLib@2@@Z 00000001800131e0 f   ConvexHullBuilder.obj
 0001:000125e0       ?save@ConvexHullBuilder@physx@@QEBA_NAEAVPxOutputStream@2@_N@Z 00000001800135e0 f   ConvexHullBuilder.obj
 0001:000128f0       ??1ConvexHullLib@physx@@UEAA@XZ 00000001800138f0 f   ConvexHullLib.obj
 0001:00012950       ??_GConvexHullLib@physx@@UEAAPEAXI@Z 0000000180013950 f i ConvexHullLib.obj
 0001:00012950       ??_EConvexHullLib@physx@@UEAAPEAXI@Z 0000000180013950 f i ConvexHullLib.obj
 0001:00012e30       ?cleanupVertices@ConvexHullLib@physx@@IEAA_NIPEBVPxVec3@2@IAEAIPEAV32@AEAV32@3@Z 0000000180013e30 f   ConvexHullLib.obj
 0001:000132d0       ?shiftAndcleanupVertices@ConvexHullLib@physx@@IEAA_NIPEBVPxVec3@2@IAEAIPEAV32@AEAV32@3@Z 00000001800142d0 f   ConvexHullLib.obj
 0001:00013710       ?shiftConvexMeshDesc@ConvexHullLib@physx@@IEAAXAEAVPxConvexMeshDesc@2@@Z 0000000180014710 f   ConvexHullLib.obj
 0001:000137d0       ?swapLargestFace@ConvexHullLib@physx@@IEAAXAEAVPxConvexMeshDesc@2@@Z 00000001800147d0 f   ConvexHullLib.obj
 0001:000139b0       ??0Box@Gu@physx@@QEAA@AEBV012@@Z 00000001800149b0 f i ConvexHullUtils.obj
 0001:000139b0       ??4Box@Gu@physx@@QEAAAEBV012@AEBV012@@Z 00000001800149b0 f i ConvexHullUtils.obj
 0001:00013a10       ??0Box@Gu@physx@@QEAA@AEBVPxVec3@2@0AEBVPxMat33@2@@Z 0000000180014a10 f i ConvexHullUtils.obj
 0001:00013a80       ??0ConvexHull@physx@@QEAA@AEBVPxVec3@1@AEBVPxTransform@1@AEBV?$Array@VPxPlane@physx@@V?$ReflectionAllocator@VPxPlane@physx@@@shdfnd@2@@shdfnd@1@@Z 0000000180014a80 f   ConvexHullUtils.obj
 0001:00014e50       ??0PxQuat@physx@@QEAA@AEBVPxMat33@1@@Z 0000000180015e50 f i ConvexHullUtils.obj
 0001:00015050       ??1HeightFieldData@Gu@physx@@QEAA@XZ 0000000180016050 f i Cooking.obj
 0001:00015050       ??1AABBTreeBuildNode@Gu@physx@@QEAA@XZ 0000000180016050 f i BVHStructureBuilder.obj
 0001:00015050       _guard_check_icall_nop     0000000180016050 f i LIBCMT:guard_support.obj
 0001:00015050       ??_FAllocator@shdfnd@physx@@QEAAXXZ 0000000180016050 f i Adjacencies.obj
 0001:00015050       ??1Box@Gu@physx@@QEAA@XZ   0000000180016050 f i ConvexHullUtils.obj
 0001:00015050       ?onMeshIndexFormatChange@TriangleMeshBuilder@physx@@UEAAXXZ 0000000180016050 f i TriangleMeshBuilder.obj
 0001:00015050       ??1BigConvexDataBuilder@physx@@QEAA@XZ 0000000180016050 f i BigConvexDataBuilder.obj
 0001:00015050       __except_validate_context_record 0000000180016050 f i libvcruntime:jbcxrval.obj
 0001:00015060       ?allocate@?$ReflectionAllocator@VHalfEdge@ConvexHull@physx@@@shdfnd@physx@@QEAAPEAX_KPEBDH@Z 0000000180016060 f i ConvexHullUtils.obj
 0001:00015100       ?allocate@?$ReflectionAllocator@VPxPlane@physx@@@shdfnd@physx@@QEAAPEAX_KPEBDH@Z 0000000180016100 f i ConvexHullUtils.obj
 0001:000151a0       ?assertIntact@ConvexHull@physx@@QEBA_NM@Z 00000001800161a0 f   ConvexHullUtils.obj
 0001:000154b0       ?computeAABBExtent@Box@Gu@physx@@QEBA?AVPxVec3@3@XZ 00000001800164b0 f i ConvexHullUtils.obj
 0001:00015570       ?computeBoxPoints@Box@Gu@physx@@QEBAXPEIAVPxVec3@3@@Z 0000000180016570 f i ConvexHullUtils.obj
 0001:000155b0       ?computeOBBFromConvex@physx@@YA_NAEBVPxConvexMeshDesc@1@AEAVPxVec3@1@AEAVPxTransform@1@@Z 00000001800165b0 f   ConvexHullUtils.obj
 0001:00015cf0       ?computeOBBSIMD@local@@YAXIPEBT__m128@@AEAT2@AEBT2@1@Z 0000000180016cf0 f   ConvexHullUtils.obj
 0001:00015f50       ?convexHullCrop@physx@@YAPEAVConvexHull@1@AEBV21@AEBVPxPlane@1@M@Z 0000000180016f50 f   ConvexHullUtils.obj
 0001:00016d80       ?copy@?$Array@VPxPlane@physx@@V?$ReflectionAllocator@VPxPlane@physx@@@shdfnd@2@@shdfnd@physx@@KAXPEAVPxPlane@3@0PEBV43@@Z 0000000180017d80 f i ConvexHullUtils.obj
 0001:00016eb0       ?copyHull@ConvexHull@physx@@QEAAXAEBV12@@Z 0000000180017eb0 f i ConvexHullUtils.obj
 0001:00016f60       ?create@?$Array@VPxPlane@physx@@V?$ReflectionAllocator@VPxPlane@physx@@@shdfnd@2@@shdfnd@physx@@KAXPEAVPxPlane@3@0AEBV43@@Z 0000000180017f60 f i ConvexHullUtils.obj
 0001:00017060       ?create@?$Array@VPxVec3@physx@@V?$ReflectionAllocator@VPxVec3@physx@@@shdfnd@2@@shdfnd@physx@@KAXPEAVPxVec3@3@0AEBV43@@Z 0000000180018060 f i ConvexHullUtils.obj
 0001:00017140       ?findCandidatePlane@ConvexHull@physx@@QEBAHMM@Z 0000000180018140 f   ConvexHullUtils.obj
 0001:00017650       ?getInverse@PxMat33@physx@@QEBA?BV12@XZ 0000000180018650 f i ConvexHullUtils.obj
 0001:000178e0       ?getTransform@Box@Gu@physx@@QEBA?AVPxTransform@3@XZ 00000001800188e0 f i ConvexHullUtils.obj
 0001:00017940       ?growAndPushBack@?$Array@VHalfEdge@ConvexHull@physx@@V?$ReflectionAllocator@VHalfEdge@ConvexHull@physx@@@shdfnd@3@@shdfnd@physx@@IEAAAEAVHalfEdge@ConvexHull@3@AEBV453@@Z 0000000180018940 f i ConvexHullUtils.obj
 0001:00017a10       ?growAndPushBack@?$Array@VPxPlane@physx@@V?$ReflectionAllocator@VPxPlane@physx@@@shdfnd@2@@shdfnd@physx@@IEAAAEAVPxPlane@3@AEBV43@@Z 0000000180018a10 f i ConvexHullUtils.obj
 0001:00017b00       ?isValid@Box@Gu@physx@@QEBA_NXZ 0000000180018b00 f i ConvexHullUtils.obj
 0001:00017b20       ?maxNumVertsPerFace@ConvexHull@physx@@QEBAIXZ 0000000180018b20 f   ConvexHullUtils.obj
 0001:00017b80       ?recreate@?$Array@VHalfEdge@ConvexHull@physx@@V?$ReflectionAllocator@VHalfEdge@ConvexHull@physx@@@shdfnd@3@@shdfnd@physx@@IEAAXI@Z 0000000180018b80 f i ConvexHullUtils.obj
 0001:00017c30       ?recreate@?$Array@VPxPlane@physx@@V?$ReflectionAllocator@VPxPlane@physx@@@shdfnd@2@@shdfnd@physx@@IEAAXI@Z 0000000180018c30 f i ConvexHullUtils.obj
 0001:00017cc0       ?resize@?$Array@VHalfEdge@ConvexHull@physx@@V?$ReflectionAllocator@VHalfEdge@ConvexHull@physx@@@shdfnd@3@@shdfnd@physx@@QEAAXIAEBVHalfEdge@ConvexHull@3@@Z 0000000180018cc0 f i ConvexHullUtils.obj
 0001:00017d30       ?resize@?$Array@VPxPlane@physx@@V?$ReflectionAllocator@VPxPlane@physx@@@shdfnd@2@@shdfnd@physx@@QEAAXIAEBVPxPlane@3@@Z 0000000180018d30 f i ConvexHullUtils.obj
 0001:00017d90       ?resize@?$Array@VPxVec3@physx@@V?$ReflectionAllocator@VPxVec3@physx@@@shdfnd@2@@shdfnd@physx@@QEAAXIAEBVPxVec3@3@@Z 0000000180018d90 f i ConvexHullUtils.obj
 0001:00017df0       ?rotate@Box@Gu@physx@@QEBA?AVPxVec3@3@AEBV43@@Z 0000000180018df0 f i ConvexHullUtils.obj
 0001:00017ea0       ?rotateInv@Box@Gu@physx@@QEBA?AVPxVec3@3@AEBV43@@Z 0000000180018ea0 f i ConvexHullUtils.obj
 0001:00017f30       ?setAxes@Box@Gu@physx@@QEAAXAEBVPxVec3@3@00@Z 0000000180018f30 f i ConvexHullUtils.obj
 0001:00017f70       ?setEmpty@Box@Gu@physx@@QEAAXXZ 0000000180018f70 f i ConvexHullUtils.obj
 0001:00017fb0       ?transform@Box@Gu@physx@@QEBA?AVPxVec3@3@AEBV43@@Z 0000000180018fb0 f i ConvexHullUtils.obj
 0001:00018070       ??0ConvexMeshBuilder@physx@@QEAA@_N@Z 0000000180019070 f   ConvexMeshBuilder.obj
 0001:000180d0       ??1ConvexMeshBuilder@physx@@QEAA@XZ 00000001800190d0 f   ConvexMeshBuilder.obj
 0001:00018530       ?build@ConvexMeshBuilder@physx@@QEAA_NAEBVPxConvexMeshDesc@2@I_NPEAVConvexHullLib@2@@Z 0000000180019530 f   ConvexMeshBuilder.obj
 0001:000186c0       ?computeGaussMaps@ConvexMeshBuilder@physx@@QEAA_NXZ 00000001800196c0 f   ConvexMeshBuilder.obj
 0001:000187b0       ?computeHullPolygons@ConvexMeshBuilder@physx@@QEAA_NAEBIPEBVPxVec3@2@0PEBIAEAVPxAllocatorCallback@2@AEAIAEAPEAV32@4AEAPEAI4AEAPEAUPxHullPolygon@2@@Z 00000001800197b0 f   ConvexMeshBuilder.obj
 0001:000189c0       ?computeInternalObjects@ConvexMeshBuilder@physx@@QEAAXXZ 00000001800199c0 f   ConvexMeshBuilder.obj
 0001:00018a40       ?computeMassInfo@ConvexMeshBuilder@physx@@QEAAX_N@Z 0000000180019a40 f   ConvexMeshBuilder.obj
 0001:00018e60       ?copy@ConvexMeshBuilder@physx@@QEAA_NAEAUConvexHullInitData@Gu@2@@Z 0000000180019e60 f   ConvexMeshBuilder.obj
 0001:00018f80       ?isFinite@PxVec3@physx@@QEBA_NXZ 0000000180019f80 f i ConvexMeshBuilder.obj
 0001:00018fe0       ?loadConvexHull@ConvexMeshBuilder@physx@@QEAA_NAEBVPxConvexMeshDesc@2@PEAVConvexHullLib@2@@Z 0000000180019fe0 f   ConvexMeshBuilder.obj
 0001:00019280       ?save@ConvexMeshBuilder@physx@@QEBA_NAEAVPxOutputStream@2@_N@Z 000000018001a280 f   ConvexMeshBuilder.obj
 0001:00019490       ??$PlaneEquation@U?$TriangleT@I@Gu@physx@@@@YA?AVPxPlane@physx@@AEBU?$TriangleT@I@Gu@1@PEBVPxVec3@1@@Z 000000018001a490 f i ConvexPolygonsBuilder.obj
 0001:00019620       ??$copy@V?$ReflectionAllocator@VPair@@@shdfnd@physx@@@?$Array@VPair@@V?$ReflectionAllocator@VPair@@@shdfnd@physx@@@shdfnd@physx@@IEAAXAEBV012@@Z 000000018001a620 f i ConvexPolygonsBuilder.obj
 0001:000196a0       ??0ConvexPolygonsBuilder@physx@@QEAA@PEAUConvexHullData@Gu@1@_N@Z 000000018001a6a0 f   ConvexPolygonsBuilder.obj
 0001:000196c0       ??1ConvexPolygonsBuilder@physx@@QEAA@XZ 000000018001a6c0 f   ConvexPolygonsBuilder.obj
 0001:0001a560       ?allocate@?$ReflectionAllocator@VPair@@@shdfnd@physx@@QEAAPEAX_KPEBDH@Z 000000018001b560 f i ConvexPolygonsBuilder.obj
 0001:0001adf0       ?computeHullPolygons@ConvexPolygonsBuilder@physx@@QEAA_NAEBIPEBVPxVec3@2@0PEBI@Z 000000018001bdf0 f   ConvexPolygonsBuilder.obj
 0001:0001b240       ?createPolygonData@ConvexPolygonsBuilder@physx@@AEAA_NXZ 000000018001c240 f   ConvexPolygonsBuilder.obj
 0001:0001bad0       ?createTrianglesFromPolygons@ConvexPolygonsBuilder@physx@@AEAA_NXZ 000000018001cad0 f   ConvexPolygonsBuilder.obj
 0001:0001d050       ?growAndPushBack@?$Array@VPair@@V?$ReflectionAllocator@VPair@@@shdfnd@physx@@@shdfnd@physx@@IEAAAEAVPair@@AEBV4@@Z 000000018001e050 f i ConvexPolygonsBuilder.obj
 0001:0001d130       ??0QuickHull@local@@QEAA@AEBUPxCookingParams@physx@@AEBVPxConvexMeshDesc@3@@Z 000000018001e130 f   QuickHullConvexHullLib.obj
 0001:0001d1e0       ??0QuickHullConvexHullLib@physx@@QEAA@AEBVPxConvexMeshDesc@1@AEBUPxCookingParams@1@@Z 000000018001e1e0 f   QuickHullConvexHullLib.obj
 0001:0001d2d0       ??1?$MemBlock@UQuickHullFace@local@@$00@local@@QEAA@XZ 000000018001e2d0 f i QuickHullConvexHullLib.obj
 0001:0001d2d0       ??1?$MemBlock@UQuickHullHalfEdge@local@@$0A@@local@@QEAA@XZ 000000018001e2d0 f i QuickHullConvexHullLib.obj
 0001:0001d360       ??1ConvexHull@physx@@QEAA@XZ 000000018001e360 f i QuickHullConvexHullLib.obj
 0001:0001d400       ??1QuickHull@local@@QEAA@XZ 000000018001e400 f   QuickHullConvexHullLib.obj
 0001:0001d540       ??1QuickHullConvexHullLib@physx@@UEAA@XZ 000000018001e540 f   QuickHullConvexHullLib.obj
 0001:0001d610       ??_GQuickHullConvexHullLib@physx@@UEAAPEAXI@Z 000000018001e610 f i QuickHullConvexHullLib.obj
 0001:0001d610       ??_EQuickHullConvexHullLib@physx@@UEAAPEAXI@Z 000000018001e610 f i QuickHullConvexHullLib.obj
 0001:0001d670       ?addNewFacesFromHorizon@QuickHull@local@@IEAAXPEBUQuickHullVertex@2@AEBV?$Array@PEAUQuickHullHalfEdge@local@@V?$ReflectionAllocator@PEAUQuickHullHalfEdge@local@@@shdfnd@physx@@@shdfnd@physx@@AEAV?$Array@PEAUQuickHullFace@local@@V?$ReflectionAllocator@PEAUQuickHullFace@local@@@shdfnd@physx@@@56@@Z 000000018001e670 f   QuickHullConvexHullLib.obj
 0001:0001d7d0       ?addPointToHull@QuickHull@local@@IEAA_NPEBUQuickHullVertex@2@AEAUQuickHullFace@2@AEA_N@Z 000000018001e7d0 f   QuickHullConvexHullLib.obj
 0001:0001dab0       ?addSimplex@QuickHull@local@@IEAAXPEAUQuickHullVertex@2@_N@Z 000000018001eab0 f   QuickHullConvexHullLib.obj
 0001:0001df20       ?allocate@?$ReflectionAllocator@PEAUQuickHullFace@local@@@shdfnd@physx@@QEAAPEAX_KPEBDH@Z 000000018001ef20 f i QuickHullConvexHullLib.obj
 0001:0001dfc0       ?allocate@?$ReflectionAllocator@PEAUQuickHullHalfEdge@local@@@shdfnd@physx@@QEAAPEAX_KPEBDH@Z 000000018001efc0 f i QuickHullConvexHullLib.obj
 0001:0001e060       ?allocate@?$ReflectionAllocator@PEAUQuickHullVertex@local@@@shdfnd@physx@@QEAAPEAX_KPEBDH@Z 000000018001f060 f i QuickHullConvexHullLib.obj
 0001:0001e100       ?allocate@?$ReflectionAllocator@UExpandPoint@local@@@shdfnd@physx@@QEAAPEAX_KPEBDH@Z 000000018001f100 f i QuickHullConvexHullLib.obj
 0001:0001e1a0       ?buildHull@QuickHull@local@@QEAA?AW4Enum@QuickHullResult@2@XZ 000000018001f1a0 f   QuickHullConvexHullLib.obj
 0001:0001e330       ?calculateHorizon@QuickHull@local@@IEAAXAEBVPxVec3@physx@@PEAUQuickHullHalfEdge@2@AEAUQuickHullFace@2@AEAV?$Array@PEAUQuickHullHalfEdge@local@@V?$ReflectionAllocator@PEAUQuickHullHalfEdge@local@@@shdfnd@physx@@@shdfnd@4@AEAV?$Array@PEAUQuickHullFace@local@@V?$ReflectionAllocator@PEAUQuickHullFace@local@@@shdfnd@physx@@@84@@Z 000000018001f330 f   QuickHullConvexHullLib.obj
 0001:0001e4e0       ?canMergeFaces@QuickHull@local@@IEAA_NAEBUQuickHullHalfEdge@2@@Z 000000018001f4e0 f   QuickHullConvexHullLib.obj
 0001:0001ed10       ?cleanupForSimplex@QuickHullConvexHullLib@physx@@IEAA_NPEAVPxVec3@2@IPEAUQuickHullVertex@local@@1AEAM2@Z 000000018001fd10 f   QuickHullConvexHullLib.obj
 0001:0001f850       ?computeMinMaxVerts@QuickHull@local@@IEAAXXZ 0000000180020850 f   QuickHullConvexHullLib.obj
 0001:0001fc20       ?connectHalfEdges@QuickHullFace@local@@AEAAPEAU12@PEAUQuickHullHalfEdge@2@0@Z 0000000180020c20 f   QuickHullConvexHullLib.obj
 0001:0001ff90       ?copy@?$Array@UExpandPoint@local@@V?$ReflectionAllocator@UExpandPoint@local@@@shdfnd@physx@@@shdfnd@physx@@KAXPEAUExpandPoint@local@@0PEBU45@@Z 0000000180020f90 f i QuickHullConvexHullLib.obj
 0001:00020010       ?createConvexHull@QuickHullConvexHullLib@physx@@UEAA?AW4Enum@PxConvexMeshCookingResult@2@XZ 0000000180021010 f   QuickHullConvexHullLib.obj
 0001:00020260       ?createEdgeList@QuickHullConvexHullLib@physx@@UEAA_NIPEBEPEAPEAEPEAPEAG2@Z 0000000180021260 f   QuickHullConvexHullLib.obj
 0001:00020550       ?createTriangle@QuickHull@local@@IEAAPEAUQuickHullFace@2@AEBUQuickHullVertex@2@00@Z 0000000180021550 f   QuickHullConvexHullLib.obj
 0001:000208f0       ?deleteFacePoints@QuickHull@local@@IEAAXAEAUQuickHullFace@2@PEAU32@@Z 00000001800218f0 f   QuickHullConvexHullLib.obj
 0001:00020a10       ?doAdjacentMerge@QuickHull@local@@IEAA_NAEAUQuickHullFace@2@_NAEA_N@Z 0000000180021a10 f   QuickHullConvexHullLib.obj
 0001:00020c90       ?expandHull@QuickHullConvexHullLib@physx@@IEAA?AW4Enum@PxConvexMeshCookingResult@2@XZ 0000000180021c90 f   QuickHullConvexHullLib.obj
 0001:00021580       ?expandHullOBB@QuickHullConvexHullLib@physx@@IEAA?AW4Enum@PxConvexMeshCookingResult@2@XZ 0000000180022580 f   QuickHullConvexHullLib.obj
 0001:00021990       ?fillConvexMeshDesc@QuickHullConvexHullLib@physx@@UEAAXAEAVPxConvexMeshDesc@2@@Z 0000000180022990 f   QuickHullConvexHullLib.obj
 0001:000219e0       ?fillConvexMeshDescFromCroppedHull@QuickHullConvexHullLib@physx@@IEAAXAEAVPxConvexMeshDesc@2@@Z 00000001800229e0 f   QuickHullConvexHullLib.obj
 0001:00021be0       ?fillConvexMeshDescFromQuickHull@QuickHullConvexHullLib@physx@@IEAAXAEAVPxConvexMeshDesc@2@@Z 0000000180022be0 f   QuickHullConvexHullLib.obj
 0001:00021f50       ?findSimplex@QuickHull@local@@IEAA_NXZ 0000000180022f50 f   QuickHullConvexHullLib.obj
 0001:00022b10       ?getFreeItem@?$MemBlock@UQuickHullFace@local@@$00@local@@QEAAPEAUQuickHullFace@2@XZ 0000000180023b10 f i QuickHullConvexHullLib.obj
 0001:00022c40       ?getFreeItem@?$MemBlock@UQuickHullHalfEdge@local@@$0A@@local@@QEAAPEAUQuickHullHalfEdge@2@XZ 0000000180023c40 f i QuickHullConvexHullLib.obj
 0001:00022d20       ?growAndPushBack@?$Array@PEAUQuickHullFace@local@@V?$ReflectionAllocator@PEAUQuickHullFace@local@@@shdfnd@physx@@@shdfnd@physx@@IEAAAEAPEAUQuickHullFace@local@@AEBQEAU45@@Z 0000000180023d20 f i QuickHullConvexHullLib.obj
 0001:00022e00       ?growAndPushBack@?$Array@PEAUQuickHullHalfEdge@local@@V?$ReflectionAllocator@PEAUQuickHullHalfEdge@local@@@shdfnd@physx@@@shdfnd@physx@@IEAAAEAPEAUQuickHullHalfEdge@local@@AEBQEAU45@@Z 0000000180023e00 f i QuickHullConvexHullLib.obj
 0001:00022ee0       ?growAndPushBack@?$Array@PEAUQuickHullVertex@local@@V?$ReflectionAllocator@PEAUQuickHullVertex@local@@@shdfnd@physx@@@shdfnd@physx@@IEAAAEAPEAUQuickHullVertex@local@@AEBQEAU45@@Z 0000000180023ee0 f i QuickHullConvexHullLib.obj
 0001:00022fc0       ?growAndPushBack@?$Array@UExpandPoint@local@@V?$ReflectionAllocator@UExpandPoint@local@@@shdfnd@physx@@@shdfnd@physx@@IEAAAEAUExpandPoint@local@@AEBU45@@Z 0000000180023fc0 f i QuickHullConvexHullLib.obj
 0001:000230c0       ?init@?$MemBlock@UQuickHullFace@local@@$00@local@@QEAAXI@Z 00000001800240c0 f i QuickHullConvexHullLib.obj
 0001:000231c0       ?init@?$MemBlock@UQuickHullHalfEdge@local@@$0A@@local@@QEAAXI@Z 00000001800241c0 f i QuickHullConvexHullLib.obj
 0001:00023260       ?mergeAdjacentFace@QuickHullFace@local@@QEAA_NPEAUQuickHullHalfEdge@2@AEAV?$Array@PEAUQuickHullFace@local@@V?$ReflectionAllocator@PEAUQuickHullFace@local@@@shdfnd@physx@@@shdfnd@physx@@@Z 0000000180024260 f   QuickHullConvexHullLib.obj
 0001:000236d0       ?nextPointToAdd@QuickHull@local@@IEAAPEAUQuickHullVertex@2@AEAPEAUQuickHullFace@2@@Z 00000001800246d0 f   QuickHullConvexHullLib.obj
 0001:00023820       ?parseInputVertices@QuickHull@local@@QEAAXPEBVPxVec3@physx@@I@Z 0000000180024820 f   QuickHullConvexHullLib.obj
 0001:00023980       ?postMergeHull@QuickHull@local@@IEAAXXZ 0000000180024980 f   QuickHullConvexHullLib.obj
 0001:00023af0       ?preallocate@QuickHull@local@@QEAAXI@Z 0000000180024af0 f   QuickHullConvexHullLib.obj
 0001:00023c30       ?recreate@?$Array@PEAUQuickHullFace@local@@V?$ReflectionAllocator@PEAUQuickHullFace@local@@@shdfnd@physx@@@shdfnd@physx@@IEAAXI@Z 0000000180024c30 f i QuickHullConvexHullLib.obj
 0001:00023ce0       ?recreate@?$Array@PEAUQuickHullHalfEdge@local@@V?$ReflectionAllocator@PEAUQuickHullHalfEdge@local@@@shdfnd@physx@@@shdfnd@physx@@IEAAXI@Z 0000000180024ce0 f i QuickHullConvexHullLib.obj
 0001:00023d90       ?recreate@?$Array@PEAUQuickHullVertex@local@@V?$ReflectionAllocator@PEAUQuickHullVertex@local@@@shdfnd@physx@@@shdfnd@physx@@IEAAXI@Z 0000000180024d90 f i QuickHullConvexHullLib.obj
 0001:00023e40       ?recreate@?$Array@UExpandPoint@local@@V?$ReflectionAllocator@UExpandPoint@local@@@shdfnd@physx@@@shdfnd@physx@@IEAAXI@Z 0000000180024e40 f i QuickHullConvexHullLib.obj
 0001:00023ed0       ?reset@?$MemBlock@UQuickHullFace@local@@$00@local@@QEAAXXZ 0000000180024ed0 f i QuickHullConvexHullLib.obj
 0001:00023f40       ?reset@?$MemBlock@UQuickHullHalfEdge@local@@$0A@@local@@QEAAXXZ 0000000180024f40 f i QuickHullConvexHullLib.obj
 0001:00023fb0       ?resolveUnclaimedPoints@QuickHull@local@@IEAAXAEBV?$Array@PEAUQuickHullFace@local@@V?$ReflectionAllocator@PEAUQuickHullFace@local@@@shdfnd@physx@@@shdfnd@physx@@@Z 0000000180024fb0 f   QuickHullConvexHullLib.obj
 0001:00024210       ?setPrecomputedMinMax@QuickHull@local@@QEAAXPEBUQuickHullVertex@2@0MM@Z 0000000180025210 f   QuickHullConvexHullLib.obj
 0001:00024fc0       ?computeVolumeIntegralsEberly@physx@@YA_NAEBVPxConvexMeshDesc@1@MAEAUPxIntegrals@1@AEBVPxVec3@1@@Z 0000000180025fc0 f   VolumeIntegration.obj
 0001:00025000       ?computeVolumeIntegralsEberlySIMD@physx@@YA_NAEBVPxConvexMeshDesc@1@MAEAUPxIntegrals@1@AEBVPxVec3@1@@Z 0000000180026000 f   VolumeIntegration.obj
 0001:00025760       ?cookingDelayHook@@YAP6A_JXZIPEAUDelayLoadInfo@@@Z 0000000180026760 f   WindowsCookingDelayLoadHook.obj
 0001:000257b0       ?physXCommonDliNotePreLoadLibrary@Cm@physx@@YAP6A_JXZPEBDPEBVPxDelayLoadHook@2@@Z 00000001800267b0 f i WindowsCookingDelayLoadHook.obj
 0001:00025830       PxSetPhysXCookingDelayLoadHook 0000000180026830 f   WindowsCookingDelayLoadHook.obj
 0001:00025838       __imp_load_??0RadixSortBuffered@Cm@physx@@QEAA@XZ 0000000180026838 f   PhysXCommon_64:PhysXCommon_64.dll
 0001:00025844       __tailMerge_PhysXCommon_64_dll 0000000180026844 f i PhysXCommon_64:PhysXCommon_64.dll
 0001:000258bd       ??0RadixSortBuffered@Cm@physx@@QEAA@XZ 00000001800268bd f   PhysXCommon_64:PhysXCommon_64.dll
 0001:000258c3       __imp_load_??1RadixSortBuffered@Cm@physx@@UEAA@XZ 00000001800268c3 f   PhysXCommon_64:PhysXCommon_64.dll
 0001:000258cf       ??1RadixSortBuffered@Cm@physx@@UEAA@XZ 00000001800268cf f   PhysXCommon_64:PhysXCommon_64.dll
 0001:000258d5       __imp_load_?Sort@RadixSortBuffered@Cm@physx@@QEAAAEAV123@PEBIIW4RadixHint@23@@Z 00000001800268d5 f   PhysXCommon_64:PhysXCommon_64.dll
 0001:000258e1       ?Sort@RadixSortBuffered@Cm@physx@@QEAAAEAV123@PEBIIW4RadixHint@23@@Z 00000001800268e1 f   PhysXCommon_64:PhysXCommon_64.dll
 0001:000258e7       __imp_load_??0HeightField@Gu@physx@@QEAA@PEAVGuMeshFactory@2@@Z 00000001800268e7 f   PhysXCommon_64:PhysXCommon_64.dll
 0001:000258f3       ??0HeightField@Gu@physx@@QEAA@PEAVGuMeshFactory@2@@Z 00000001800268f3 f   PhysXCommon_64:PhysXCommon_64.dll
 0001:000258f9       __imp_load_?loadFromDesc@HeightField@Gu@physx@@QEAA_NAEBVPxHeightFieldDesc@3@@Z 00000001800268f9 f   PhysXCommon_64:PhysXCommon_64.dll
 0001:00025905       ?loadFromDesc@HeightField@Gu@physx@@QEAA_NAEBVPxHeightFieldDesc@3@@Z 0000000180026905 f   PhysXCommon_64:PhysXCommon_64.dll
 0001:0002590b       __imp_load_?computeCellCoordinates@HeightField@Gu@physx@@QEBAIMMAEAM0@Z 000000018002690b f   PhysXCommon_64:PhysXCommon_64.dll
 0001:00025917       ?computeCellCoordinates@HeightField@Gu@physx@@QEBAIMMAEAM0@Z 0000000180026917 f   PhysXCommon_64:PhysXCommon_64.dll
 0001:0002591d       __imp_load_?releaseMemory@HeightField@Gu@physx@@QEAAXXZ 000000018002691d f   PhysXCommon_64:PhysXCommon_64.dll
 0001:00025929       ?releaseMemory@HeightField@Gu@physx@@QEAAXXZ 0000000180026929 f   PhysXCommon_64:PhysXCommon_64.dll
 0001:0002592f       __imp_load_??1HeightField@Gu@physx@@UEAA@XZ 000000018002692f f   PhysXCommon_64:PhysXCommon_64.dll
 0001:0002593b       ??1HeightField@Gu@physx@@UEAA@XZ 000000018002693b f   PhysXCommon_64:PhysXCommon_64.dll
 0001:00025941       __imp_load_??0NodeAllocator@Gu@physx@@QEAA@XZ 0000000180026941 f   PhysXCommon_64:PhysXCommon_64.dll
 0001:0002594d       ??0NodeAllocator@Gu@physx@@QEAA@XZ 000000018002694d f   PhysXCommon_64:PhysXCommon_64.dll
 0001:00025953       __imp_load_??1NodeAllocator@Gu@physx@@QEAA@XZ 0000000180026953 f   PhysXCommon_64:PhysXCommon_64.dll
 0001:0002595f       ??1NodeAllocator@Gu@physx@@QEAA@XZ 000000018002695f f   PhysXCommon_64:PhysXCommon_64.dll
 0001:00025965       __imp_load_?release@NodeAllocator@Gu@physx@@QEAAXXZ 0000000180026965 f   PhysXCommon_64:PhysXCommon_64.dll
 0001:00025971       ?release@NodeAllocator@Gu@physx@@QEAAXXZ 0000000180026971 f   PhysXCommon_64:PhysXCommon_64.dll
 0001:00025977       __imp_load_?buildAABBTree@Gu@physx@@YA_NAEAVAABBTreeBuildParams@12@AEAVNodeAllocator@12@AEAUBuildStats@12@AEAPEAI@Z 0000000180026977 f   PhysXCommon_64:PhysXCommon_64.dll
 0001:00025983       ?buildAABBTree@Gu@physx@@YA_NAEAVAABBTreeBuildParams@12@AEAVNodeAllocator@12@AEAUBuildStats@12@AEAPEAI@Z 0000000180026983 f   PhysXCommon_64:PhysXCommon_64.dll
 0001:00025989       __imp_load_?writeDword@physx@@YAXI_NAEAVPxOutputStream@1@@Z 0000000180026989 f   PhysXCommon_64:PhysXCommon_64.dll
 0001:00025995       ?writeDword@physx@@YAXI_NAEAVPxOutputStream@1@@Z 0000000180026995 f   PhysXCommon_64:PhysXCommon_64.dll
 0001:0002599b       __imp_load_?writeFloatBuffer@physx@@YAXPEBMI_NAEAVPxOutputStream@1@@Z 000000018002699b f   PhysXCommon_64:PhysXCommon_64.dll
 0001:000259a7       ?writeFloatBuffer@physx@@YAXPEBMI_NAEAVPxOutputStream@1@@Z 00000001800269a7 f   PhysXCommon_64:PhysXCommon_64.dll
 0001:000259ad       __imp_load_?writeHeader@physx@@YA_NCCCCI_NAEAVPxOutputStream@1@@Z 00000001800269ad f   PhysXCommon_64:PhysXCommon_64.dll
 0001:000259b9       ?writeHeader@physx@@YA_NCCCCI_NAEAVPxOutputStream@1@@Z 00000001800269b9 f   PhysXCommon_64:PhysXCommon_64.dll
 0001:000259bf       __imp_load_?writeWord@physx@@YAXG_NAEAVPxOutputStream@1@@Z 00000001800269bf f   PhysXCommon_64:PhysXCommon_64.dll
 0001:000259cb       ?writeWord@physx@@YAXG_NAEAVPxOutputStream@1@@Z 00000001800269cb f   PhysXCommon_64:PhysXCommon_64.dll
 0001:000259d1       __imp_load_?writeFloat@physx@@YAXM_NAEAVPxOutputStream@1@@Z 00000001800269d1 f   PhysXCommon_64:PhysXCommon_64.dll
 0001:000259dd       ?writeFloat@physx@@YAXM_NAEAVPxOutputStream@1@@Z 00000001800269dd f   PhysXCommon_64:PhysXCommon_64.dll
 0001:000259e3       __imp_load_?computeBoundsAroundVertices@Gu@physx@@YAXAEAVPxBounds3@2@IPEIBVPxVec3@2@@Z 00000001800269e3 f   PhysXCommon_64:PhysXCommon_64.dll
 0001:000259ef       ?computeBoundsAroundVertices@Gu@physx@@YAXAEAVPxBounds3@2@IPEIBVPxVec3@2@@Z 00000001800269ef f   PhysXCommon_64:PhysXCommon_64.dll
 0001:000259f5       __imp_load_??0SourceMesh@Gu@physx@@QEAA@XZ 00000001800269f5 f   PhysXCommon_64:PhysXCommon_64.dll
 0001:00025a01       ??0SourceMesh@Gu@physx@@QEAA@XZ 0000000180026a01 f   PhysXCommon_64:PhysXCommon_64.dll
 0001:00025a07       __imp_load_??1SourceMesh@Gu@physx@@QEAA@XZ 0000000180026a07 f   PhysXCommon_64:PhysXCommon_64.dll
 0001:00025a13       ??1SourceMesh@Gu@physx@@QEAA@XZ 0000000180026a13 f   PhysXCommon_64:PhysXCommon_64.dll
 0001:00025a19       __imp_load_??0BV4Tree@Gu@physx@@QEAA@XZ 0000000180026a19 f   PhysXCommon_64:PhysXCommon_64.dll
 0001:00025a25       ??0BV4Tree@Gu@physx@@QEAA@XZ 0000000180026a25 f   PhysXCommon_64:PhysXCommon_64.dll
 0001:00025a2b       __imp_load_??1BV4Tree@Gu@physx@@QEAA@XZ 0000000180026a2b f   PhysXCommon_64:PhysXCommon_64.dll
 0001:00025a37       ??1BV4Tree@Gu@physx@@QEAA@XZ 0000000180026a37 f   PhysXCommon_64:PhysXCommon_64.dll
 0001:00025a3d       __imp_load_??0BV32Tree@Gu@physx@@QEAA@XZ 0000000180026a3d f   PhysXCommon_64:PhysXCommon_64.dll
 0001:00025a49       ??0BV32Tree@Gu@physx@@QEAA@XZ 0000000180026a49 f   PhysXCommon_64:PhysXCommon_64.dll
 0001:00025a4f       __imp_load_??1BV32Tree@Gu@physx@@QEAA@XZ 0000000180026a4f f   PhysXCommon_64:PhysXCommon_64.dll
 0001:00025a5b       ??1BV32Tree@Gu@physx@@QEAA@XZ 0000000180026a5b f   PhysXCommon_64:PhysXCommon_64.dll
 0001:00025a61       __imp_load_?writeWordBuffer@physx@@YAXPEBGI_NAEAVPxOutputStream@1@@Z 0000000180026a61 f   PhysXCommon_64:PhysXCommon_64.dll
 0001:00025a6d       ?writeWordBuffer@physx@@YAXPEBGI_NAEAVPxOutputStream@1@@Z 0000000180026a6d f   PhysXCommon_64:PhysXCommon_64.dll
 0001:00025a73       __imp_load_?computeMaxIndex@physx@@YAIPEBII@Z 0000000180026a73 f   PhysXCommon_64:PhysXCommon_64.dll
 0001:00025a7f       ?computeMaxIndex@physx@@YAIPEBII@Z 0000000180026a7f f   PhysXCommon_64:PhysXCommon_64.dll
 0001:00025a85       __imp_load_?storeIndices@physx@@YAXIIPEBIAEAVPxOutputStream@1@_N@Z 0000000180026a85 f   PhysXCommon_64:PhysXCommon_64.dll
 0001:00025a91       ?storeIndices@physx@@YAXIIPEBIAEAVPxOutputStream@1@_N@Z 0000000180026a91 f   PhysXCommon_64:PhysXCommon_64.dll
 0001:00025a97       __imp_load_?BuildBV4Ex@Gu@physx@@YA_NAEAVBV4Tree@12@AEAVSourceMesh@12@MI@Z 0000000180026a97 f   PhysXCommon_64:PhysXCommon_64.dll
 0001:00025aa3       ?BuildBV4Ex@Gu@physx@@YA_NAEAVBV4Tree@12@AEAVSourceMesh@12@MI@Z 0000000180026aa3 f   PhysXCommon_64:PhysXCommon_64.dll
 0001:00025aa9       __imp_load_?BuildBV32Ex@Gu@physx@@YA_NAEAVBV32Tree@12@AEAVSourceMesh@12@MI@Z 0000000180026aa9 f   PhysXCommon_64:PhysXCommon_64.dll
 0001:00025ab5       ?BuildBV32Ex@Gu@physx@@YA_NAEAVBV32Tree@12@AEAVSourceMesh@12@MI@Z 0000000180026ab5 f   PhysXCommon_64:PhysXCommon_64.dll
 0001:00025abb       __imp_load_?computeMaxIndex@physx@@YAGPEBGI@Z 0000000180026abb f   PhysXCommon_64:PhysXCommon_64.dll
 0001:00025ac7       ?computeMaxIndex@physx@@YAGPEBGI@Z 0000000180026ac7 f   PhysXCommon_64:PhysXCommon_64.dll
 0001:00025acd       __imp_load_?WriteHeader@Gu@physx@@YA_NEEEEI_NAEAVPxOutputStream@2@@Z 0000000180026acd f   PhysXCommon_64:PhysXCommon_64.dll
 0001:00025ad9       ?WriteHeader@Gu@physx@@YA_NEEEEI_NAEAVPxOutputStream@2@@Z 0000000180026ad9 f   PhysXCommon_64:PhysXCommon_64.dll
 0001:00025adf       __imp_load_?StoreIndices@Gu@physx@@YAXGIPEBGAEAVPxOutputStream@2@_N@Z 0000000180026adf f   PhysXCommon_64:PhysXCommon_64.dll
 0001:00025aeb       ?StoreIndices@Gu@physx@@YAXGIPEBGAEAVPxOutputStream@2@_N@Z 0000000180026aeb f   PhysXCommon_64:PhysXCommon_64.dll
 0001:00025af1       __imp_load_?CreateOffsets@BigConvexData@physx@@IEAAXXZ 0000000180026af1 f   PhysXCommon_64:PhysXCommon_64.dll
 0001:00025afd       ?CreateOffsets@BigConvexData@physx@@IEAAXXZ 0000000180026afd f   PhysXCommon_64:PhysXCommon_64.dll
 0001:00025b03       __imp_load_?computeOBBPoints@Gu@physx@@YAXPEIAVPxVec3@2@AEBV32@1111@Z 0000000180026b03 f   PhysXCommon_64:PhysXCommon_64.dll
 0001:00025b0f       ?computeOBBPoints@Gu@physx@@YAXPEIAVPxVec3@2@AEBV32@1111@Z 0000000180026b0f f   PhysXCommon_64:PhysXCommon_64.dll
 0001:00025b15       __imp_load_??0BigConvexData@physx@@QEAA@XZ 0000000180026b15 f   PhysXCommon_64:PhysXCommon_64.dll
 0001:00025b21       ??0BigConvexData@physx@@QEAA@XZ 0000000180026b21 f   PhysXCommon_64:PhysXCommon_64.dll
 0001:00025b27       __imp_load_??1BigConvexData@physx@@QEAA@XZ 0000000180026b27 f   PhysXCommon_64:PhysXCommon_64.dll
 0001:00025b33       ??1BigConvexData@physx@@QEAA@XZ 0000000180026b33 f   PhysXCommon_64:PhysXCommon_64.dll
 0001:00025b39       __imp_load_PxGetFoundation 0000000180026b39 f   PhysXFoundation_64:PhysXFoundation_64.dll
 0001:00025b45       __tailMerge_PhysXFoundation_64_dll 0000000180026b45 f i PhysXFoundation_64:PhysXFoundation_64.dll
 0001:00025bbe       PxGetFoundation            0000000180026bbe f   PhysXFoundation_64:PhysXFoundation_64.dll
 0001:00025bc4       __imp_load_?getAllocator@shdfnd@physx@@YAAEAVPxAllocatorCallback@2@XZ 0000000180026bc4 f   PhysXFoundation_64:PhysXFoundation_64.dll
 0001:00025bd0       ?getAllocator@shdfnd@physx@@YAAEAVPxAllocatorCallback@2@XZ 0000000180026bd0 f   PhysXFoundation_64:PhysXFoundation_64.dll
 0001:00025bd6       __imp_load_?getInstance@Foundation@shdfnd@physx@@SAAEAV123@XZ 0000000180026bd6 f   PhysXFoundation_64:PhysXFoundation_64.dll
 0001:00025be2       ?getInstance@Foundation@shdfnd@physx@@SAAEAV123@XZ 0000000180026be2 f   PhysXFoundation_64:PhysXFoundation_64.dll
 0001:00025be8       __imp_load_?error@Foundation@shdfnd@physx@@QEAAXW4Enum@PxErrorCode@3@PEBDH1ZZ 0000000180026be8 f   PhysXFoundation_64:PhysXFoundation_64.dll
 0001:00025bf4       ?error@Foundation@shdfnd@physx@@QEAAXW4Enum@PxErrorCode@3@PEBDH1ZZ 0000000180026bf4 f   PhysXFoundation_64:PhysXFoundation_64.dll
 0001:00025bfa       __imp_load_?incRefCount@Foundation@shdfnd@physx@@SAXXZ 0000000180026bfa f   PhysXFoundation_64:PhysXFoundation_64.dll
 0001:00025c06       ?incRefCount@Foundation@shdfnd@physx@@SAXXZ 0000000180026c06 f   PhysXFoundation_64:PhysXFoundation_64.dll
 0001:00025c0c       __imp_load_?decRefCount@Foundation@shdfnd@physx@@SAXXZ 0000000180026c0c f   PhysXFoundation_64:PhysXFoundation_64.dll
 0001:00025c18       ?decRefCount@Foundation@shdfnd@physx@@SAXXZ 0000000180026c18 f   PhysXFoundation_64:PhysXFoundation_64.dll
 0001:00025c1e       __imp_load_??0FPUGuard@shdfnd@physx@@QEAA@XZ 0000000180026c1e f   PhysXFoundation_64:PhysXFoundation_64.dll
 0001:00025c2a       ??0FPUGuard@shdfnd@physx@@QEAA@XZ 0000000180026c2a f   PhysXFoundation_64:PhysXFoundation_64.dll
 0001:00025c30       __imp_load_??1FPUGuard@shdfnd@physx@@QEAA@XZ 0000000180026c30 f   PhysXFoundation_64:PhysXFoundation_64.dll
 0001:00025c3c       ??1FPUGuard@shdfnd@physx@@QEAA@XZ 0000000180026c3c f   PhysXFoundation_64:PhysXFoundation_64.dll
 0001:00025c42       __imp_load_?allocate@TempAllocator@shdfnd@physx@@QEAAPEAX_KPEBDH@Z 0000000180026c42 f   PhysXFoundation_64:PhysXFoundation_64.dll
 0001:00025c4e       ?allocate@TempAllocator@shdfnd@physx@@QEAAPEAX_KPEBDH@Z 0000000180026c4e f   PhysXFoundation_64:PhysXFoundation_64.dll
 0001:00025c54       __imp_load_?deallocate@TempAllocator@shdfnd@physx@@QEAAXPEAX@Z 0000000180026c54 f   PhysXFoundation_64:PhysXFoundation_64.dll
 0001:00025c60       ?deallocate@TempAllocator@shdfnd@physx@@QEAAXPEAX@Z 0000000180026c60 f   PhysXFoundation_64:PhysXFoundation_64.dll
 0001:00025c66       __imp_load_?PxDiagonalize@physx@@YA?AVPxVec3@1@AEBVPxMat33@1@AEAVPxQuat@1@@Z 0000000180026c66 f   PhysXFoundation_64:PhysXFoundation_64.dll
 0001:00025c72       ?PxDiagonalize@physx@@YA?AVPxVec3@1@AEBVPxMat33@1@AEAVPxQuat@1@@Z 0000000180026c72 f   PhysXFoundation_64:PhysXFoundation_64.dll
 0001:00025c78       ?DloadAcquireSectionWriteAccess@@YAXXZ 0000000180026c78 f i Delayimp:delayhlp.obj
 0001:00025d34       ?DloadGetSRWLockFunctionPointers@@YAEXZ 0000000180026d34 f i Delayimp:delayhlp.obj
 0001:00025dd0       ?DloadMakePermanentImageCommit@@YAXPEAX_K@Z 0000000180026dd0 f i Delayimp:delayhlp.obj
 0001:00025e68       ?DloadObtainSection@@YAPEAXPEAK0@Z 0000000180026e68 f i Delayimp:delayhlp.obj
 0001:00025f00       ?DloadProtectSection@@YAXKPEAK@Z 0000000180026f00 f i Delayimp:delayhlp.obj
 0001:00025f90       ?DloadReleaseSectionWriteAccess@@YAXXZ 0000000180026f90 f i Delayimp:delayhlp.obj
 0001:00026034       __delayLoadHelper2         0000000180027034 f   Delayimp:delayhlp.obj
 0001:00026330       ??3@YAXPEAX_K@Z            0000000180027330 f   LIBCMT:delete_scalar_size.obj
 0001:00026330       ??_V@YAXPEAX@Z             0000000180027330 f   LIBCMT:delete_array.obj
 0001:00026340       ??_V@YAXPEAX_K@Z           0000000180027340 f   LIBCMT:delete_array_size.obj
 0001:00026340       ?__global_delete@@YAXPEAX_K@Z 0000000180027340 f   BVHStructureBuilder.obj
 0001:00026348       ?__scrt_initialize_type_info@@YAXXZ 0000000180027348 f   LIBCMT:tncleanup.obj
 0001:00026358       ?__scrt_uninitialize_type_info@@YAXXZ 0000000180027358 f   LIBCMT:tncleanup.obj
 0001:00026364       ??_Gtype_info@@UEAAPEAXI@Z 0000000180027364 f i LIBCMT:std_type_info_static.obj
 0001:00026364       ??_Etype_info@@UEAAPEAXI@Z 0000000180027364 f i LIBCMT:std_type_info_static.obj
 0001:000263a0       _alloca_probe              00000001800273a0 f   LIBCMT:_chkstk_.obj
 0001:000263a0       __chkstk                   00000001800273a0 f   LIBCMT:_chkstk_.obj
 0001:000263f4       ??3@YAXPEAX@Z              00000001800273f4 f   LIBCMT:delete_scalar.obj
 0001:00026748       _DllMainCRTStartup         0000000180027748 f   LIBCMT:dll_dllmain.obj
 0001:00026788       __scrt_acquire_startup_lock 0000000180027788 f   LIBCMT:utility.obj
 0001:000267c4       __scrt_dllmain_after_initialize_c 00000001800277c4 f   LIBCMT:utility.obj
 0001:000267f8       __scrt_dllmain_before_initialize_c 00000001800277f8 f   LIBCMT:utility.obj
 0001:00026810       __scrt_dllmain_crt_thread_attach 0000000180027810 f   LIBCMT:utility.obj
 0001:00026838       __scrt_dllmain_crt_thread_detach 0000000180027838 f   LIBCMT:utility.obj
 0001:00026850       __scrt_dllmain_exception_filter 0000000180027850 f   LIBCMT:utility.obj
 0001:000268b4       __scrt_dllmain_uninitialize_c 00000001800278b4 f   LIBCMT:utility.obj
 0001:000268e4       __scrt_dllmain_uninitialize_critical 00000001800278e4 f   LIBCMT:utility.obj
 0001:000268f8       __scrt_initialize_crt      00000001800278f8 f   LIBCMT:utility.obj
 0001:00026944       __scrt_initialize_onexit_tables 0000000180027944 f   LIBCMT:utility.obj
 0001:00026a10       __scrt_is_nonwritable_in_current_image 0000000180027a10 f   LIBCMT:utility.obj
 0001:00026aac       __scrt_release_startup_lock 0000000180027aac f   LIBCMT:utility.obj
 0001:00026ad0       __scrt_uninitialize_crt    0000000180027ad0 f   LIBCMT:utility.obj
 0001:00026afc       _onexit                    0000000180027afc f   LIBCMT:utility.obj
 0001:00026b4c       atexit                     0000000180027b4c f   LIBCMT:utility.obj
 0001:00026b64       __security_init_cookie     0000000180027b64 f   LIBCMT:gs_support.obj
 0001:00026c10       __local_stdio_printf_options 0000000180027c10 f i LIBCMT:default_local_stdio_options.obj
 0001:00026c18       __local_stdio_scanf_options 0000000180027c18 f i LIBCMT:default_local_stdio_options.obj
 0001:00026c20       __scrt_initialize_default_local_stdio_options 0000000180027c20 f   LIBCMT:default_local_stdio_options.obj
 0001:00026c3c       __scrt_get_dyn_tls_init_callback 0000000180027c3c f   LIBCMT:dyn_tls_init.obj
 0001:00026c44       __crt_debugger_hook        0000000180027c44 f   LIBCMT:utility_desktop.obj
 0001:00026c4c       __scrt_fastfail            0000000180027c4c f   LIBCMT:utility_desktop.obj
 0001:00026d94       _RTC_Initialize            0000000180027d94 f   LIBCMT:_initsect_.obj
 0001:00026de0       _RTC_Terminate             0000000180027de0 f   LIBCMT:_initsect_.obj
 0001:00026e2c       _guard_check_icall         0000000180027e2c f i LIBCMT:checkcfg.obj
 0001:00026e40       __isa_available_init       0000000180027e40 f   LIBCMT:_cpu_disp_.obj
 0001:00027008       __scrt_is_ucrt_dll_in_use  0000000180028008 f   LIBCMT:ucrt_detection.obj
 0001:00027014       _purecall                  0000000180028014 f   libvcruntime:purevirt.obj
 0001:00027060       __std_type_info_destroy_list 0000000180028060 f   libvcruntime:std_type_info.obj
 0001:0002708c       __std_type_info_name       000000018002808c f   libvcruntime:std_type_info.obj
 0001:000271c0       memset                     00000001800281c0 f   libvcruntime:memset.obj
 0001:00027370       memcpy                     0000000180028370 f   libvcruntime:memcpy.obj
 0001:00027370       memmove                    0000000180028370 f   libvcruntime:memcpy.obj
 0001:000277a8       strstr                     00000001800287a8 f   libvcruntime:strstr.obj
 0001:0002799c       __C_specific_handler       000000018002899c f   libvcruntime:_chandler_.obj
 0001:00027b98       __vcrt_initialize          0000000180028b98 f   libvcruntime:initialization.obj
 0001:00027bcc       __vcrt_thread_attach       0000000180028bcc f   libvcruntime:initialization.obj
 0001:00027be0       __vcrt_thread_detach       0000000180028be0 f   libvcruntime:initialization.obj
 0001:00027bf4       __vcrt_uninitialize        0000000180028bf4 f   libvcruntime:initialization.obj
 0001:00027c14       __vcrt_uninitialize_critical 0000000180028c14 f   libvcruntime:initialization.obj
 0001:00027c24       __vcrt_initialize_pure_virtual_call_handler 0000000180028c24 f   libvcruntime:purevirt_data.obj
 0001:00027c48       ??0DName@@QEAA@AEAPEBDD@Z  0000000180028c48 f   libvcruntime:undname.obj
 0001:00027d28       ??0DName@@QEAA@AEBV0@@Z    0000000180028d28 f i libvcruntime:undname.obj
 0001:00027d34       ??0DName@@QEAA@D@Z         0000000180028d34 f   libvcruntime:undname.obj
 0001:00027d6c       ??0DName@@QEAA@PEAV0@@Z    0000000180028d6c f   libvcruntime:undname.obj
 0001:00027df4       ??0DName@@QEAA@PEBD@Z      0000000180028df4 f   libvcruntime:undname.obj
 0001:00027e3c       ??0DName@@QEAA@W4DNameStatus@@@Z 0000000180028e3c f   libvcruntime:undname.obj
 0001:00027e8c       ??0DName@@QEAA@_J@Z        0000000180028e8c f   libvcruntime:undname.obj
 0001:00027f38       ??0DName@@QEAA@_K@Z        0000000180028f38 f   libvcruntime:undname.obj
 0001:00027fc8       ??0UnDecorator@@QEAA@PEADPEBDHP6APEADJ@ZK@Z 0000000180028fc8 f i libvcruntime:undname.obj
 0001:0002803c       ??0pcharNode@@QEAA@PEBDH@Z 000000018002903c f   libvcruntime:undname.obj
 0001:000280c4       ??4DName@@QEAAAEAV0@PEBD@Z 00000001800290c4 f   libvcruntime:undname.obj
 0001:00028104       ??4DName@@QEAAAEAV0@W4DNameStatus@@@Z 0000000180029104 f   libvcruntime:undname.obj
 0001:00028140       ??AReplicator@@QEBA?AVDName@@H@Z 0000000180029140 f   libvcruntime:undname.obj
 0001:00028188       ??BUnDecorator@@QEAAPEADXZ 0000000180029188 f i libvcruntime:undname.obj
 0001:00028398       ??YDName@@QEAAAEAV0@AEBV0@@Z 0000000180029398 f   libvcruntime:undname.obj
 0001:000283d8       ??YDName@@QEAAAEAV0@D@Z    00000001800293d8 f   libvcruntime:undname.obj
 0001:0002845c       ??YDName@@QEAAAEAV0@PEBD@Z 000000018002945c f   libvcruntime:undname.obj
 0001:000284e8       ??YDName@@QEAAAEAV0@W4DNameStatus@@@Z 00000001800294e8 f   libvcruntime:undname.obj
 0001:0002852c       ??YReplicator@@QEAAAEAV0@AEBVDName@@@Z 000000018002952c f   libvcruntime:undname.obj
 0001:0002858c       ?append@DName@@AEAAXPEAVDNameNode@@@Z 000000018002958c f   libvcruntime:undname.obj
 0001:000285f0       ?composeDeclaration@UnDecorator@@CA?AVDName@@AEBV2@@Z 00000001800295f0 f i libvcruntime:undname.obj
 0001:0002948c       ?doPchar@DName@@AEAAXPEBDH@Z 000000018002a48c f   libvcruntime:undname.obj
 0001:00029538       ?getArgumentList@UnDecorator@@CA?AVDName@@XZ 000000018002a538 f   libvcruntime:undname.obj
 0001:0002967c       ?getArgumentTypes@UnDecorator@@CA?AVDName@@XZ 000000018002a67c f   libvcruntime:undname.obj
 0001:00029778       ?getArrayType@UnDecorator@@CA?AVDName@@AEBV2@@Z 000000018002a778 f i libvcruntime:undname.obj
 0001:000299b4       ?getBasedType@UnDecorator@@CA?AVDName@@XZ 000000018002a9b4 f   libvcruntime:undname.obj
 0001:00029a74       ?getBasicDataType@UnDecorator@@CA?AVDName@@AEBV2@@Z 000000018002aa74 f   libvcruntime:undname.obj
 0001:00029eb8       ?getCallingConvention@UnDecorator@@CA?AVDName@@XZ 000000018002aeb8 f   libvcruntime:undname.obj
 0001:00029fb8       ?getDataIndirectType@UnDecorator@@CA?AVDName@@AEBV2@PEBD0H@Z 000000018002afb8 f   libvcruntime:undname.obj
 0001:0002a6f0       ?getDataType@UnDecorator@@CA?AVDName@@PEAV2@@Z 000000018002b6f0 f   libvcruntime:undname.obj
 0001:0002a7d4       ?getDecoratedName@UnDecorator@@CA?AVDName@@XZ 000000018002b7d4 f   libvcruntime:undname.obj
 0001:0002aa48       ?getDimension@UnDecorator@@CA?AVDName@@_N@Z 000000018002ba48 f   libvcruntime:undname.obj
 0001:0002aba4       ?getDispatchTarget@UnDecorator@@CA?AVDName@@XZ 000000018002bba4 f   libvcruntime:undname.obj
 0001:0002ac08       ?getECSUDataType@UnDecorator@@CA?AVDName@@XZ 000000018002bc08 f   libvcruntime:undname.obj
 0001:0002ad6c       ?getEnumType@UnDecorator@@CA?AVDName@@XZ 000000018002bd6c f i libvcruntime:undname.obj
 0001:0002ae54       ?getExtendedDataIndirectType@UnDecorator@@CA?AVDName@@AEAPEBDAEA_NH@Z 000000018002be54 f   libvcruntime:undname.obj
 0001:0002b098       ?getExternalDataType@UnDecorator@@CA?AVDName@@AEBV2@@Z 000000018002c098 f i libvcruntime:undname.obj
 0001:0002b16c       ?getFunctionIndirectType@UnDecorator@@CA?AVDName@@AEBV2@@Z 000000018002c16c f   libvcruntime:undname.obj
 0001:0002b68c       ?getLastChar@DNameStatusNode@@UEBADXZ 000000018002c68c f i libvcruntime:undname.obj
 0001:0002b698       ?getLastChar@charNode@@UEBADXZ 000000018002c698 f i libvcruntime:undname.obj
 0001:0002b69c       ?getLastChar@pDNameNode@@UEBADXZ 000000018002c69c f i libvcruntime:undname.obj
 0001:0002b6d8       ?getLastChar@pairNode@@UEBADXZ 000000018002c6d8 f i libvcruntime:undname.obj
 0001:0002b730       ?getLastChar@pcharNode@@UEBADXZ 000000018002c730 f i libvcruntime:undname.obj
 0001:0002b748       ?getMemory@_HeapManager@@QEAAPEAX_KH@Z 000000018002c748 f   libvcruntime:undname.obj
 0001:0002b804       ?getNumberOfDimensions@UnDecorator@@CAHXZ 000000018002c804 f   libvcruntime:undname.obj
 0001:0002b878       ?getOperatorName@UnDecorator@@CA?AVDName@@_NPEA_N@Z 000000018002c878 f i libvcruntime:undname.obj
 0001:0002bfcc       ?getPrimaryDataType@UnDecorator@@CA?AVDName@@AEBV2@@Z 000000018002cfcc f   libvcruntime:undname.obj
 0001:0002c22c       ?getPtrRefDataType@UnDecorator@@CA?AVDName@@AEBV2@H@Z 000000018002d22c f   libvcruntime:undname.obj
 0001:0002c354       ?getPtrRefType@UnDecorator@@CA?AVDName@@AEBV2@0PEBD@Z 000000018002d354 f   libvcruntime:undname.obj
 0001:0002c488       ?getRestrictionSpec@UnDecorator@@CA?AVDName@@XZ 000000018002d488 f   libvcruntime:undname.obj
 0001:0002c5b4       ?getReturnType@UnDecorator@@CA?AVDName@@PEAV2@@Z 000000018002d5b4 f   libvcruntime:undname.obj
 0001:0002c5e8       ?getScope@UnDecorator@@CA?AVDName@@XZ 000000018002d5e8 f   libvcruntime:undname.obj
 0001:0002ca94       ?getScopedName@UnDecorator@@CA?AVDName@@XZ 000000018002da94 f   libvcruntime:undname.obj
 0001:0002cbac       ?getSignedDimension@UnDecorator@@CA?AVDName@@XZ 000000018002dbac f   libvcruntime:undname.obj
 0001:0002cc28       ?getString@DName@@QEBAPEADPEADH@Z 000000018002dc28 f i libvcruntime:undname.obj
 0001:0002ccd8       ?getString@DNameStatusNode@@UEBAPEADPEAD0@Z 000000018002dcd8 f i libvcruntime:undname.obj
 0001:0002cd1c       ?getString@charNode@@UEBAPEADPEAD0@Z 000000018002dd1c f i libvcruntime:undname.obj
 0001:0002cd30       ?getString@pDNameNode@@UEBAPEADPEAD0@Z 000000018002dd30 f i libvcruntime:undname.obj
 0001:0002cd90       ?getString@pairNode@@UEBAPEADPEAD0@Z 000000018002dd90 f i libvcruntime:undname.obj
 0001:0002ce14       ?getString@pcharNode@@UEBAPEADPEAD0@Z 000000018002de14 f i libvcruntime:undname.obj
 0001:0002ce4c       ?getStringEncoding@UnDecorator@@CA?AVDName@@PEADH@Z 000000018002de4c f   libvcruntime:undname.obj
 0001:0002cf0c       ?getSymbolName@UnDecorator@@CA?AVDName@@XZ 000000018002df0c f i libvcruntime:undname.obj
 0001:0002cf58       ?getTemplateArgumentList@UnDecorator@@CA?AVDName@@XZ 000000018002df58 f   libvcruntime:undname.obj
 0001:0002d228       ?getTemplateConstant@UnDecorator@@CA?AVDName@@XZ 000000018002e228 f   libvcruntime:undname.obj
 0001:0002d5d0       ?getTemplateName@UnDecorator@@CA?AVDName@@_N@Z 000000018002e5d0 f   libvcruntime:undname.obj
 0001:0002d7ac       ?getThrowTypes@UnDecorator@@CA?AVDName@@XZ 000000018002e7ac f   libvcruntime:undname.obj
 0001:0002d870       ?getTypeEncoding@UnDecorator@@CAHXZ 000000018002e870 f i libvcruntime:undname.obj
 0001:0002dbd4       ?getVfTableType@UnDecorator@@CA?AVDName@@AEBV2@@Z 000000018002ebd4 f i libvcruntime:undname.obj
 0001:0002dda4       ?getZName@UnDecorator@@CA?AVDName@@_N0@Z 000000018002eda4 f   libvcruntime:undname.obj
 0001:0002e040       ?length@DNameStatusNode@@UEBAHXZ 000000018002f040 f i libvcruntime:undname.obj
 0001:0002e044       ?length@pDNameNode@@UEBAHXZ 000000018002f044 f i libvcruntime:undname.obj
 0001:0002e080       ?length@pairNode@@UEBAHXZ  000000018002f080 f i libvcruntime:undname.obj
 0001:0002e0ec       ?make@DNameStatusNode@@SAPEAV1@W4DNameStatus@@@Z 000000018002f0ec f i libvcruntime:undname.obj
 0001:0002e174       __unDName                  000000018002f174 f   libvcruntime:undname.obj
 0001:0002e26c       sprintf_s                  000000018002f26c f i libvcruntime:undname.obj
 0001:0002e2d0       _local_unwind              000000018002f2d0 f   libvcruntime:_jmpuwind_.obj
 0001:0002e300       _NLG_Notify                000000018002f300 f   libvcruntime:_jmpuwind_.obj
 0001:0002e320       __NLG_Dispatch2            000000018002f320 f   libvcruntime:_jmpuwind_.obj
 0001:0002e330       __NLG_Return2              000000018002f330 f   libvcruntime:_jmpuwind_.obj
 0001:0002e334       __vcrt_freefls             000000018002f334 f   libvcruntime:per_thread_data.obj
 0001:0002e354       __vcrt_freeptd             000000018002f354 f   libvcruntime:per_thread_data.obj
 0001:0002e3a4       __vcrt_getptd_noexit       000000018002f3a4 f   libvcruntime:per_thread_data.obj
 0001:0002e45c       __vcrt_initialize_ptd      000000018002f45c f   libvcruntime:per_thread_data.obj
 0001:0002e49c       __vcrt_uninitialize_ptd    000000018002f49c f   libvcruntime:per_thread_data.obj
 0001:0002e4c0       __vcrt_initialize_locks    000000018002f4c0 f   libvcruntime:locks.obj
 0001:0002e508       __vcrt_lock                000000018002f508 f   libvcruntime:locks.obj
 0001:0002e524       __vcrt_uninitialize_locks  000000018002f524 f   libvcruntime:locks.obj
 0001:0002e55c       __vcrt_unlock              000000018002f55c f   libvcruntime:locks.obj
 0001:0002e740       __vcrt_FlsAlloc            000000018002f740 f   libvcruntime:winapi_downlevel.obj
 0001:0002e794       __vcrt_FlsFree             000000018002f794 f   libvcruntime:winapi_downlevel.obj
 0001:0002e7e8       __vcrt_FlsGetValue         000000018002f7e8 f   libvcruntime:winapi_downlevel.obj
 0001:0002e83c       __vcrt_FlsSetValue         000000018002f83c f   libvcruntime:winapi_downlevel.obj
 0001:0002e8a4       __vcrt_InitializeCriticalSectionEx 000000018002f8a4 f   libvcruntime:winapi_downlevel.obj
 0001:0002e91c       __vcrt_initialize_winapi_thunks 000000018002f91c f   libvcruntime:winapi_downlevel.obj
 0001:0002e968       __vcrt_uninitialize_winapi_thunks 000000018002f968 f   libvcruntime:winapi_downlevel.obj
 0001:0002e9c0       strcmp                     000000018002f9c0 f   libucrt:strcmp.obj
 0001:0002ea28       atan2f                     000000018002fa28 f   libucrt:atan2f.obj
 0001:0002ee40       powf                       000000018002fe40 f   libucrt:powf.obj
 0001:0002fd10       cosf                       0000000180030d10 f   libucrt:cosf.obj
 0001:00030210       sinf                       0000000180031210 f   libucrt:sinf.obj
 0001:00030908       _fpclass                   0000000180031908 f   libucrt:ieeemisc.obj
 0001:00030990       free                       0000000180031990 f   libucrt:free.obj
 0001:000309a4       _initterm                  00000001800319a4 f   libucrt:initterm.obj
 0001:00030a08       _initterm_e                0000000180031a08 f   libucrt:initterm.obj
 0001:00030a48       _seh_filter_dll            0000000180031a48 f   libucrt:exception_filter.obj
 0001:00030a5c       _seh_filter_exe            0000000180031a5c f   libucrt:exception_filter.obj
 0001:00030e4c       __acrt_initialize_thread_local_exit_callback 0000000180031e4c f   libucrt:exit.obj
 0001:00030e54       _cexit                     0000000180031e54 f   libucrt:exit.obj
 0001:00030e64       _exit                      0000000180031e64 f   libucrt:exit.obj
 0001:00030e70       _is_c_termination_complete 0000000180031e70 f   libucrt:exit.obj
 0001:0003103c       __acrt_allocate_buffer_for_argv 000000018003203c f   libucrt:argv_parsing.obj
 0001:0003109c       _configure_narrow_argv     000000018003209c f   libucrt:argv_parsing.obj
 0001:00031414       __dcrt_uninitialize_environments_nolock 0000000180032414 f   libucrt:environment_initialization.obj
 0001:0003144c       _initialize_narrow_environment 000000018003244c f   libucrt:environment_initialization.obj
 0001:00031794       _crt_atexit                0000000180032794 f   libucrt:onexit.obj
 0001:000317a4       _execute_onexit_table      00000001800327a4 f   libucrt:onexit.obj
 0001:000317e0       _initialize_onexit_table   00000001800327e0 f   libucrt:onexit.obj
 0001:00031808       _register_onexit_function  0000000180032808 f   libucrt:onexit.obj
 0001:00031888       __acrt_uninitialize_command_line 0000000180032888 f   libucrt:argv_data.obj
 0001:00031980       __acrt_initialize          0000000180032980 f   libucrt:initialization.obj
 0001:00031994       __acrt_thread_attach       0000000180032994 f   libucrt:initialization.obj
 0001:000319a8       __acrt_thread_detach       00000001800329a8 f   libucrt:initialization.obj
 0001:000319b8       __acrt_uninitialize        00000001800329b8 f   libucrt:initialization.obj
 0001:000319f0       __acrt_uninitialize_critical 00000001800329f0 f   libucrt:initialization.obj
 0001:00031a00       terminate                  0000000180032a00 f   libucrt:terminate.obj
 0001:00031a20       abort                      0000000180032a20 f   libucrt:abort.obj
 0001:00031a78       _free_base                 0000000180032a78 f   libucrt:free_base.obj
 0001:00031ab8       _malloc_base               0000000180032ab8 f   libucrt:malloc_base.obj
 0001:00031b18       strcpy_s                   0000000180032b18 f   libucrt:strcpy_s.obj
 0001:00031d44       ??$ensure_buffer_is_big_enough@D@formatting_buffer@__crt_stdio_output@@QEAA_N_K@Z 0000000180032d44 f i libucrt:output.obj
 0001:00031dec       ??$type_case_integer_parse_into_buffer@I@?$output_processor@DV?$string_output_adapter@D@__crt_stdio_output@@V?$format_validation_base@DV?$string_output_adapter@D@__crt_stdio_output@@@2@@__crt_stdio_output@@AEAAXII_N@Z 0000000180032dec f i libucrt:output.obj
 0001:00031e7c       ??$type_case_integer_parse_into_buffer@_K@?$output_processor@DV?$string_output_adapter@D@__crt_stdio_output@@V?$format_validation_base@DV?$string_output_adapter@D@__crt_stdio_output@@@2@@__crt_stdio_output@@AEAAX_KI_N@Z 0000000180032e7c f i libucrt:output.obj
 0001:00031f10       ??$write_multiple_characters@V?$string_output_adapter@D@__crt_stdio_output@@D@__crt_stdio_output@@YAXAEBV?$string_output_adapter@D@0@DHQEAH@Z 0000000180032f10 f i libucrt:output.obj
 0001:00031f88       ??0_LocaleUpdate@@QEAA@QEAU__crt_locale_pointers@@@Z 0000000180032f88 f i libucrt:output.obj
 0001:00032024       ?crop_zeroes@__crt_stdio_output@@YAXPEADQEAU__crt_locale_pointers@@@Z 0000000180033024 f i libucrt:output.obj
 0001:00032090       ?force_decimal_point@__crt_stdio_output@@YAXPEADQEAU__crt_locale_pointers@@@Z 0000000180033090 f i libucrt:output.obj
 0001:00032100       ?parse_int_from_format_string@?$output_processor@DV?$string_output_adapter@D@__crt_stdio_output@@V?$format_validation_base@DV?$string_output_adapter@D@__crt_stdio_output@@@2@@__crt_stdio_output@@AEAA_NQEAH@Z 0000000180033100 f i libucrt:output.obj
 0001:000321a4       ?process@?$output_processor@DV?$string_output_adapter@D@__crt_stdio_output@@V?$format_validation_base@DV?$string_output_adapter@D@__crt_stdio_output@@@2@@__crt_stdio_output@@QEAAHXZ 00000001800331a4 f i libucrt:output.obj
 0001:000323bc       ?state_case_normal@?$output_processor@DV?$string_output_adapter@D@__crt_stdio_output@@V?$format_validation_base@DV?$string_output_adapter@D@__crt_stdio_output@@@2@@__crt_stdio_output@@AEAA_NXZ 00000001800333bc f i libucrt:output.obj
 0001:00032430       ?state_case_normal_tchar@?$output_processor@DV?$string_output_adapter@D@__crt_stdio_output@@V?$format_validation_base@DV?$string_output_adapter@D@__crt_stdio_output@@@2@@__crt_stdio_output@@AEAA_ND@Z 0000000180033430 f i libucrt:output.obj
 0001:000324d8       ?state_case_size@?$output_processor@DV?$string_output_adapter@D@__crt_stdio_output@@V?$format_validation_base@DV?$string_output_adapter@D@__crt_stdio_output@@@2@@__crt_stdio_output@@AEAA_NXZ 00000001800334d8 f i libucrt:output.obj
 0001:0003264c       ?state_case_type@?$output_processor@DV?$string_output_adapter@D@__crt_stdio_output@@V?$format_validation_base@DV?$string_output_adapter@D@__crt_stdio_output@@@2@@__crt_stdio_output@@AEAA_NXZ 000000018003364c f i libucrt:output.obj
 0001:000328b4       ?type_case_Z@?$output_processor@DV?$string_output_adapter@D@__crt_stdio_output@@V?$format_validation_base@DV?$string_output_adapter@D@__crt_stdio_output@@@2@@__crt_stdio_output@@AEAA_NXZ 00000001800338b4 f i libucrt:output.obj
 0001:0003292c       ?type_case_a@?$output_processor@DV?$string_output_adapter@D@__crt_stdio_output@@V?$format_validation_base@DV?$string_output_adapter@D@__crt_stdio_output@@@2@@__crt_stdio_output@@AEAA_NXZ 000000018003392c f i libucrt:output.obj
 0001:00032ae8       ?type_case_c_tchar@?$output_processor@DV?$string_output_adapter@D@__crt_stdio_output@@V?$format_validation_base@DV?$string_output_adapter@D@__crt_stdio_output@@@2@@__crt_stdio_output@@AEAA_ND@Z 0000000180033ae8 f i libucrt:output.obj
 0001:00032ba4       ?type_case_integer@?$output_processor@DV?$string_output_adapter@D@__crt_stdio_output@@V?$format_validation_base@DV?$string_output_adapter@D@__crt_stdio_output@@@2@@__crt_stdio_output@@AEAA_NI_N@Z 0000000180033ba4 f i libucrt:output.obj
 0001:00032d6c       ?type_case_n@?$output_processor@DV?$string_output_adapter@D@__crt_stdio_output@@V?$format_validation_base@DV?$string_output_adapter@D@__crt_stdio_output@@@2@@__crt_stdio_output@@AEAA_NXZ 0000000180033d6c f i libucrt:output.obj
 0001:00032e48       ?type_case_s@?$output_processor@DV?$string_output_adapter@D@__crt_stdio_output@@V?$format_validation_base@DV?$string_output_adapter@D@__crt_stdio_output@@@2@@__crt_stdio_output@@AEAA_NXZ 0000000180033e48 f i libucrt:output.obj
 0001:00032ee0       ?write_stored_string_tchar@?$output_processor@DV?$string_output_adapter@D@__crt_stdio_output@@V?$format_validation_base@DV?$string_output_adapter@D@__crt_stdio_output@@@2@@__crt_stdio_output@@AEAA_ND@Z 0000000180033ee0 f i libucrt:output.obj
 0001:00032fb8       ?write_string@?$string_output_adapter@D@__crt_stdio_output@@QEBAXQEBDHQEAHAEAV__crt_deferred_errno_cache@@@Z 0000000180033fb8 f i libucrt:output.obj
 0001:0003305c       __stdio_common_vsprintf_s  000000018003405c f   libucrt:output.obj
 0001:000330c0       ??$parse_integer@KV?$c_string_character_source@D@__crt_strtox@@@__crt_strtox@@YAKQEAU__crt_locale_pointers@@V?$c_string_character_source@D@0@H_N@Z 00000001800340c0 f i libucrt:atox.obj
 0001:000333fc       atol                       00000001800343fc f   libucrt:atox.obj
 0001:00033428       _calloc_base               0000000180034428 f   libucrt:calloc_base.obj
 0001:000334a0       _clrfp                     00000001800344a0 f   libucrt:fpctrl.obj
 0001:000334c0       _ctrlfp                    00000001800344c0 f   libucrt:fpctrl.obj
 0001:0003353c       _set_statfp                000000018003453c f   libucrt:fpctrl.obj
 0001:0003355c       _statfp                    000000018003455c f   libucrt:fpctrl.obj
 0001:00033694       _handle_error              0000000180034694 f   libucrt:libm_error.obj
 0001:000337bc       _handle_errorf             00000001800347bc f   libucrt:libm_error.obj
 0001:000338f0       _handle_nan                00000001800348f0 f   libucrt:libm_error.obj
 0001:0003390c       _handle_nanf               000000018003490c f   libucrt:libm_error.obj
 0001:00033920       _powf_special              0000000180034920 f   libucrt:pow_special.obj
 0001:00033aac       __acrt_initialize_fma3     0000000180034aac f   libucrt:fma3_available.obj
 0001:00033b20       __remainder_piby2d2f_forAsm 0000000180034b20 f   libucrt:remainder_piby2f_forasm.obj
 0001:00033c70       __remainder_piby2_fma3     0000000180034c70 f   libucrt:remainder_piby2_forfma3.obj
 0001:00033e60       __remainder_piby2_fma3_bdl 0000000180034e60 f   libucrt:remainder_piby2_forfma3.obj
 0001:00033ed8       _cosf_special              0000000180034ed8 f   libucrt:sincos_special.obj
 0001:00033f78       _sinf_special              0000000180034f78 f   libucrt:sincos_special.obj
 0001:00033f90       __remainder_piby2d2f_forC  0000000180034f90 f   libucrt:remainder_piby2f_forc.obj
 0001:00034494       __acrt_freeptd             0000000180035494 f   libucrt:per_thread_data.obj
 0001:000344d8       __acrt_getptd              00000001800354d8 f   libucrt:per_thread_data.obj
 0001:000345ac       __acrt_getptd_head         00000001800355ac f   libucrt:per_thread_data.obj
 0001:00034654       __acrt_getptd_noexit       0000000180035654 f   libucrt:per_thread_data.obj
 0001:00034720       __acrt_initialize_ptd      0000000180035720 f   libucrt:per_thread_data.obj
 0001:0003475c       __acrt_uninitialize_ptd    000000018003575c f   libucrt:per_thread_data.obj
 0001:00034780       __acrt_initialize_locks    0000000180035780 f   libucrt:locks.obj
 0001:000347c8       __acrt_lock                00000001800357c8 f   libucrt:locks.obj
 0001:000347e4       __acrt_uninitialize_locks  00000001800357e4 f   libucrt:locks.obj
 0001:0003481c       __acrt_unlock              000000018003581c f   libucrt:locks.obj
 0001:00034838       __acrt_get_process_end_policy 0000000180035838 f   libucrt:win_policies.obj
 0001:00034874       __acrt_call_reportfault    0000000180035874 f   libucrt:invalid_parameter.obj
 0001:000349d0       __acrt_initialize_invalid_parameter_handler 00000001800359d0 f   libucrt:invalid_parameter.obj
 0001:000349d8       _invalid_parameter         00000001800359d8 f   libucrt:invalid_parameter.obj
 0001:00034a88       _invalid_parameter_noinfo  0000000180035a88 f   libucrt:invalid_parameter.obj
 0001:00034aa8       _invoke_watson             0000000180035aa8 f   libucrt:invalid_parameter.obj
 0001:00034af0       __acrt_errno_from_os_error 0000000180035af0 f   libucrt:errno.obj
 0001:00034b38       __acrt_errno_map_os_error  0000000180035b38 f   libucrt:errno.obj
 0001:00034b88       __doserrno                 0000000180035b88 f   libucrt:errno.obj
 0001:00034ba8       _errno                     0000000180035ba8 f   libucrt:errno.obj
 0001:00034bdc       ??$__acrt_mbs_to_wcs_cp@U__crt_win32_buffer_internal_dynamic_resizing@@@@YAHQEBDAEAV?$__crt_win32_buffer@_WU__crt_win32_buffer_internal_dynamic_resizing@@@@I@Z 0000000180035bdc f i libucrt:argv_wildcards.obj
 0001:00034d54       ??$__acrt_wcs_to_mbs_cp@U__crt_win32_buffer_internal_dynamic_resizing@@@@YAHQEB_WAEAV?$__crt_win32_buffer@DU__crt_win32_buffer_internal_dynamic_resizing@@@@I@Z 0000000180035d54 f i libucrt:argv_wildcards.obj
 0001:00035584       __acrt_expand_narrow_argv_wildcards 0000000180036584 f   libucrt:argv_wildcards.obj
 0001:0003558c       ??$__acrt_wcs_to_mbs_cp@U__crt_win32_buffer_no_resizing@@@@YAHQEB_WAEAV?$__crt_win32_buffer@DU__crt_win32_buffer_no_resizing@@@@I@Z 000000018003658c f i libucrt:getmodulefilenamea.obj
 0001:000356a0       __acrt_GetModuleFileNameA  00000001800366a0 f   libucrt:getmodulefilenamea.obj
 0001:00035eec       __acrt_initialize_multibyte 0000000180036eec f   libucrt:mbctype.obj
 0001:00035f4c       __acrt_update_thread_multibyte_data 0000000180036f4c f   libucrt:mbctype.obj
 0001:00035f68       _setmbcp_nolock            0000000180036f68 f   libucrt:mbctype.obj
 0001:0003629c       _ismbblead                 000000018003729c f   libucrt:ismbbyte.obj
 0001:000362b0       __acrt_initialize_command_line 00000001800372b0 f   libucrt:argv_data.obj
 0001:000362d8       __acrt_MultiByteToWideChar 00000001800372d8 f   libucrt:multibytetowidechar.obj
 0001:00036334       __acrt_WideCharToMultiByte 0000000180037334 f   libucrt:widechartomultibyte.obj
 0001:000363cc       __dcrt_get_narrow_environment_from_os 00000001800373cc f   libucrt:get_environment_from_os.obj
 0001:000364d0       _recalloc_base             00000001800374d0 f   libucrt:recalloc.obj
 0001:00036740       __acrt_AppPolicyGetProcessTerminationMethodInternal 0000000180037740 f   libucrt:winapi_thunks.obj
 0001:00036790       __acrt_AreFileApisANSI     0000000180037790 f   libucrt:winapi_thunks.obj
 0001:000367cc       __acrt_FlsAlloc            00000001800377cc f   libucrt:winapi_thunks.obj
 0001:00036814       __acrt_FlsFree             0000000180037814 f   libucrt:winapi_thunks.obj
 0001:0003685c       __acrt_FlsGetValue         000000018003785c f   libucrt:winapi_thunks.obj
 0001:000368a4       __acrt_FlsSetValue         00000001800378a4 f   libucrt:winapi_thunks.obj
 0001:000368f8       __acrt_InitializeCriticalSectionEx 00000001800378f8 f   libucrt:winapi_thunks.obj
 0001:0003695c       __acrt_LCMapStringEx       000000018003795c f   libucrt:winapi_thunks.obj
 0001:00036a38       __acrt_LocaleNameToLCID    0000000180037a38 f   libucrt:winapi_thunks.obj
 0001:00036a88       __acrt_initialize_winapi_thunks 0000000180037a88 f   libucrt:winapi_thunks.obj
 0001:00036abc       __acrt_uninitialize_winapi_thunks 0000000180037abc f   libucrt:winapi_thunks.obj
 0001:00036b00       __acrt_initialize_heap     0000000180037b00 f   libucrt:heap_handle.obj
 0001:00036b1c       __acrt_uninitialize_heap   0000000180037b1c f   libucrt:heap_handle.obj
 0001:00036d24       __acrt_initialize_lowio    0000000180037d24 f   libucrt:ioinit.obj
 0001:00036d60       __acrt_uninitialize_lowio  0000000180037d60 f   libucrt:ioinit.obj
 0001:00036da0       __acrt_execute_initializers 0000000180037da0 f   libucrt:shared_initialization.obj
 0001:00036e20       __acrt_execute_uninitializers 0000000180037e20 f   libucrt:shared_initialization.obj
 0001:00036e5c       __acrt_initialize_new_handler 0000000180037e5c f   libucrt:new_handler.obj
 0001:00036e64       _callnewh                  0000000180037e64 f   libucrt:new_handler.obj
 0001:00036e94       _query_new_handler         0000000180037e94 f   libucrt:new_handler.obj
 0001:00036f10       __acrt_get_sigabrt_handler 0000000180037f10 f   libucrt:signal.obj
 0001:00036f40       __acrt_initialize_signal_handlers 0000000180037f40 f   libucrt:signal.obj
 0001:00036f60       raise                      0000000180037f60 f   libucrt:signal.obj
 0001:000371cc       __acrt_has_user_matherr    00000001800381cc f   libucrt:matherr.obj
 0001:000371ec       __acrt_initialize_user_matherr 00000001800381ec f   libucrt:matherr.obj
 0001:000371f4       __acrt_invoke_user_matherr 00000001800381f4 f   libucrt:matherr.obj
 0001:00037400       __acrt_stdio_flush_nolock  0000000180038400 f   libucrt:fflush.obj
 0001:0003747c       _fflush_nolock             000000018003847c f   libucrt:fflush.obj
 0001:000374c8       _flushall                  00000001800384c8 f   libucrt:fflush.obj
 0001:000374d0       __acrt_initialize_stdio    00000001800384d0 f   libucrt:_file.obj
 0001:000375f0       __acrt_uninitialize_stdio  00000001800385f0 f   libucrt:_file.obj
 0001:0003764c       _lock_file                 000000018003864c f   libucrt:_file.obj
 0001:00037658       _unlock_file               0000000180038658 f   libucrt:_file.obj
 0001:00037664       _query_new_mode            0000000180038664 f   libucrt:new_mode.obj
 0001:0003766c       isdigit                    000000018003866c f i libucrt:_ctype.obj
 0001:00037760       _tolower_l                 0000000180038760 f   libucrt:tolower_toupper.obj
 0001:000378a0       tolower                    00000001800388a0 f   libucrt:tolower_toupper.obj
 0001:000378cc       strtol                     00000001800388cc f   libucrt:strtox.obj
 0001:000378f8       _mbtowc_l                  00000001800388f8 f   libucrt:mbtowc.obj
 0001:00037a74       mbtowc                     0000000180038a74 f   libucrt:mbtowc.obj
 0001:00037a7c       _wctomb_s_l                0000000180038a7c f   libucrt:wctomb.obj
 0001:00037c1c       wctomb_s                   0000000180038c1c f   libucrt:wctomb.obj
 0001:00037c30       strnlen                    0000000180038c30 f   libucrt:strnlen.obj
 0001:00037d80       wcsnlen                    0000000180038d80 f   libucrt:strnlen.obj
 0001:00037f58       __acrt_update_locale_info  0000000180038f58 f   libucrt:locale_update.obj
 0001:00037f8c       __acrt_update_multibyte_info 0000000180038f8c f   libucrt:locale_update.obj
 0001:00038994       __acrt_fp_format           0000000180039994 f   libucrt:cvt.obj
 0001:00038c1c       _fileno                    0000000180039c1c f   libucrt:fileno.obj
 0001:00038c44       _get_printf_count_output   0000000180039c44 f   libucrt:printf_count_output.obj
 0001:00038ccc       __acrt_set_locale_changed  0000000180039ccc f   libucrt:wsetlocale.obj
 0001:00038cd8       __acrt_uninitialize_locale 0000000180039cd8 f   libucrt:wsetlocale.obj
 0001:00038d08       __pctype_func              0000000180039d08 f   libucrt:ctype.obj
 0001:00038d38       _isctype_l                 0000000180039d38 f   libucrt:isctype.obj
 0001:00038e60       _get_fpsr                  0000000180039e60 f   libucrt:fpsr.obj
 0001:00038e70       _set_fpsr                  0000000180039e70 f   libucrt:fpsr.obj
 0001:00038e7a       _fclrf                     0000000180039e7a f   libucrt:fpsr.obj
 0001:00038e8e       _frnd                      0000000180039e8e f   libucrt:fpsr.obj
 0001:00038eb0       _raise_exc                 0000000180039eb0 f   libucrt:fpexcept.obj
 0001:00038ed8       _raise_exc_ex              0000000180039ed8 f   libucrt:fpexcept.obj
 0001:000391e8       _raise_excf                000000018003a1e8 f   libucrt:fpexcept.obj
 0001:00039214       _set_errno_from_matherr    000000018003a214 f   libucrt:fpexcept.obj
 0001:00039244       __acrt_add_locale_ref      000000018003a244 f   libucrt:locale_refcounting.obj
 0001:000392d0       __acrt_free_locale         000000018003a2d0 f   libucrt:locale_refcounting.obj
 0001:00039448       __acrt_locale_add_lc_time_reference 000000018003a448 f   libucrt:locale_refcounting.obj
 0001:00039470       __acrt_locale_free_lc_time_if_unreferenced 000000018003a470 f   libucrt:locale_refcounting.obj
 0001:000394a8       __acrt_locale_release_lc_time_reference 000000018003a4a8 f   libucrt:locale_refcounting.obj
 0001:000394d0       __acrt_release_locale_ref  000000018003a4d0 f   libucrt:locale_refcounting.obj
 0001:00039578       __acrt_update_thread_locale_data 000000018003a578 f   libucrt:locale_refcounting.obj
 0001:000395e8       _updatetlocinfoEx_nolock   000000018003a5e8 f   libucrt:locale_refcounting.obj
 0001:00039650       qsort                      000000018003a650 f   libucrt:qsort.obj
 0001:00039a10       strncpy_s                  000000018003aa10 f   libucrt:strncpy_s.obj
 0001:00039b90       strpbrk                    000000018003ab90 f   libucrt:strpbrk.obj
 0001:00039f70       _mbsdec                    000000018003af70 f   libucrt:mbsdec.obj
 0001:00039f78       _mbsdec_l                  000000018003af78 f   libucrt:mbsdec.obj
 0001:0003a024       __acrt_GetStringTypeA      000000018003b024 f   libucrt:getstringtypea.obj
 0001:0003a4cc       __acrt_LCMapStringA        000000018003b4cc f   libucrt:lcmapstringa.obj
 0001:0003a564       _msize_base                000000018003b564 f   libucrt:msize.obj
 0001:0003a5a0       _realloc_base              000000018003b5a0 f   libucrt:realloc_base.obj
 0001:0003a61c       wcsncmp                    000000018003b61c f   libucrt:wcsncmp.obj
 0001:0003a730       __acrt_DownlevelLocaleNameToLCID 000000018003b730 f   libucrt:lcidtoname_downlevel.obj
 0001:0003a764       __acrt_lowio_create_handle_array 000000018003b764 f   libucrt:osfinfo.obj
 0001:0003a80c       __acrt_lowio_destroy_handle_array 000000018003b80c f   libucrt:osfinfo.obj
 0001:0003a85c       __acrt_lowio_ensure_fh_exists 000000018003b85c f   libucrt:osfinfo.obj
 0001:0003a904       __acrt_lowio_lock_fh       000000018003b904 f   libucrt:osfinfo.obj
 0001:0003a92c       __acrt_lowio_unlock_fh     000000018003b92c f   libucrt:osfinfo.obj
 0001:0003a954       _free_osfhnd               000000018003b954 f   libucrt:osfinfo.obj
 0001:0003aa10       _get_osfhandle             000000018003ba10 f   libucrt:osfinfo.obj
 0001:0003ab14       _commit                    000000018003bb14 f   libucrt:commit.obj
 0001:0003b414       _write                     000000018003c414 f   libucrt:write.obj
 0001:0003b500       _write_nolock              000000018003c500 f   libucrt:write.obj
 0001:0003b7dc       _fcloseall                 000000018003c7dc f   libucrt:closeall.obj
 0001:0003b890       __acrt_stdio_free_buffer_nolock 000000018003c890 f   libucrt:_freebuf.obj
 0001:0003b8d0       _isatty                    000000018003c8d0 f   libucrt:isatty.obj
 0001:0003b930       _isleadbyte_l              000000018003c930 f i libucrt:_wctype.obj
 0001:0003b97c       ?__mbrtowc_utf8@__crt_mbstring@@YA_KPEA_WPEBD_KPEAU_Mbstatet@@@Z 000000018003c97c f   libucrt:mbrtowc.obj
 0001:0003b9b8       ?__mbsrtowcs_utf8@__crt_mbstring@@YA_KPEA_WPEAPEBD_KPEAU_Mbstatet@@@Z 000000018003c9b8 f   libucrt:mbrtowc.obj
 0001:0003bb30       ?__c32rtomb_utf8@__crt_mbstring@@YA_KPEAD_UPEAU_Mbstatet@@@Z 000000018003cb30 f   libucrt:c32rtomb.obj
 0001:0003bbe8       __acrt_fp_strflt_to_string 000000018003cbe8 f   libucrt:_fptostr.obj
 0001:0003bcd0       ?divide@__crt_strtox@@YA_KAEAUbig_integer@1@AEBU21@@Z 000000018003ccd0 f i libucrt:cfout.obj
 0001:0003c0fc       __acrt_fltout              000000018003d0fc f   libucrt:cfout.obj
 0001:0003d3b8       __acrt_locale_free_monetary 000000018003e3b8 f   libucrt:initmon.obj
 0001:0003d4c4       __acrt_locale_free_numeric 000000018003e4c4 f   libucrt:initnum.obj
 0001:0003d588       __acrt_locale_free_time    000000018003e588 f   libucrt:inittime.obj
 0001:0003d690       __strncnt                  000000018003e690 f   libucrt:strncnt.obj
 0001:0003d6a8       _query_app_type            000000018003e6a8 f   libucrt:report_runtime_error.obj
 0001:0003d74c       _lseeki64_nolock           000000018003e74c f   libucrt:lseek.obj
 0001:0003d754       _putwch_nolock             000000018003e754 f   libucrt:putwch.obj
 0001:0003d790       _fclose_nolock             000000018003e790 f   libucrt:fclose.obj
 0001:0003d814       fclose                     000000018003e814 f   libucrt:fclose.obj
 0001:0003d878       ?__mbrtoc32_utf8@__crt_mbstring@@YA_KPEA_UPEBD_KPEAU_Mbstatet@@@Z 000000018003e878 f   libucrt:mbrtoc32.obj
 0001:0003da54       fegetenv                   000000018003ea54 f   libucrt:fegetenv.obj
 0001:0003da74       fesetenv                   000000018003ea74 f   libucrt:fesetenv.obj
 0001:0003dac4       feholdexcept               000000018003eac4 f   libucrt:feholdexcept.obj
 0001:0003db14       ceil                       000000018003eb14 f   libucrt:ceil.obj
 0001:0003dbe0       log10                      000000018003ebe0 f   libucrt:log10.obj
 0001:0003e18c       __acrt_fenv_get_control    000000018003f18c f   libucrt:_fenvutils.obj
 0001:0003e280       __acrt_fenv_get_status     000000018003f280 f   libucrt:_fenvutils.obj
 0001:0003e2d4       __acrt_fenv_set_control    000000018003f2d4 f   libucrt:_fenvutils.obj
 0001:0003e41c       __acrt_fenv_set_status     000000018003f41c f   libucrt:_fenvutils.obj
 0001:0003e4a0       __dcrt_lowio_ensure_console_output_initialized 000000018003f4a0 f   libucrt:initcon.obj
 0001:0003e4f4       __dcrt_terminate_console_output 000000018003f4f4 f   libucrt:initcon.obj
 0001:0003e510       __dcrt_write_console       000000018003f510 f   libucrt:initcon.obj
 0001:0003e644       _close                     000000018003f644 f   libucrt:close.obj
 0001:0003e6e8       _close_nolock              000000018003f6e8 f   libucrt:close.obj
 0001:0003e7a8       ?__acrt_stdio_free_stream@@YAXV__crt_stdio_stream@@@Z 000000018003f7a8 f   libucrt:stream.obj
 0001:0003e7c4       _clearfp                   000000018003f7c4 f   libucrt:ieee.obj
 0001:0003e840       _log10_special             000000018003f840 f   libucrt:log_special.obj
 0001:0003e8f6       IsProcessorFeaturePresent  000000018003f8f6 f   kernel32:KERNEL32.dll
 0001:0003e8fc       RtlUnwindEx                000000018003f8fc f   kernel32:KERNEL32.dll
 0001:0003e910       _FindPESection             000000018003f910 f   LIBCMT:pesect.obj
 0001:0003e960       _IsNonwritableInCurrentImage 000000018003f960 f   LIBCMT:pesect.obj
 0001:0003e9b0       _ValidateImageBase         000000018003f9b0 f   LIBCMT:pesect.obj
 0001:0003e9e0       __GSHandlerCheck           000000018003f9e0 f   LIBCMT:_gshandler_.obj
 0001:0003ea00       __GSHandlerCheckCommon     000000018003fa00 f   LIBCMT:_gshandler_.obj
 0001:0003ea70       __security_check_cookie    000000018003fa70 f   LIBCMT:_amdsecgs_.obj
 0001:0003ea94       __raise_securityfailure    000000018003fa94 f   LIBCMT:gs_report.obj
 0001:0003eac8       __report_gsfailure         000000018003fac8 f   LIBCMT:gs_report.obj
 0001:0003eb9c       __report_rangecheckfailure 000000018003fb9c f   LIBCMT:gs_report.obj
 0001:0003ebb0       __report_securityfailure   000000018003fbb0 f   LIBCMT:gs_report.obj
 0001:0003ed30       strrchr                    000000018003fd30 f   libvcruntime:strrchr.obj
 0001:0003ee80       memcmp                     000000018003fe80 f   libvcruntime:memcmp.obj
 0001:0003ef60       _guard_dispatch_icall_nop  000000018003ff60 f   LIBCMT:_guard_dispatch_.obj
 0002:00000000       __imp_LoadLibraryA         0000000180041000     kernel32:KERNEL32.dll
 0002:00000008       __imp_RaiseException       0000000180041008     kernel32:KERNEL32.dll
 0002:00000010       __imp_GetLastError         0000000180041010     kernel32:KERNEL32.dll
 0002:00000018       __imp_GetSystemInfo        0000000180041018     kernel32:KERNEL32.dll
 0002:00000020       __imp_VirtualProtect       0000000180041020     kernel32:KERNEL32.dll
 0002:00000028       __imp_VirtualQuery         0000000180041028     kernel32:KERNEL32.dll
 0002:00000030       __imp_FreeLibrary          0000000180041030     kernel32:KERNEL32.dll
 0002:00000038       __imp_GetModuleHandleW     0000000180041038     kernel32:KERNEL32.dll
 0002:00000040       __imp_GetProcAddress       0000000180041040     kernel32:KERNEL32.dll
 0002:00000048       __imp_LoadLibraryExA       0000000180041048     kernel32:KERNEL32.dll
 0002:00000050       __imp_InitializeSListHead  0000000180041050     kernel32:KERNEL32.dll
 0002:00000058       __imp_QueryPerformanceCounter 0000000180041058     kernel32:KERNEL32.dll
 0002:00000060       __imp_GetCurrentProcessId  0000000180041060     kernel32:KERNEL32.dll
 0002:00000068       __imp_GetCurrentThreadId   0000000180041068     kernel32:KERNEL32.dll
 0002:00000070       __imp_GetSystemTimeAsFileTime 0000000180041070     kernel32:KERNEL32.dll
 0002:00000078       __imp_RtlCaptureContext    0000000180041078     kernel32:KERNEL32.dll
 0002:00000080       __imp_RtlLookupFunctionEntry 0000000180041080     kernel32:KERNEL32.dll
 0002:00000088       __imp_RtlVirtualUnwind     0000000180041088     kernel32:KERNEL32.dll
 0002:00000090       __imp_IsDebuggerPresent    0000000180041090     kernel32:KERNEL32.dll
 0002:00000098       __imp_UnhandledExceptionFilter 0000000180041098     kernel32:KERNEL32.dll
 0002:000000a0       __imp_SetUnhandledExceptionFilter 00000001800410a0     kernel32:KERNEL32.dll
 0002:000000a8       __imp_GetStartupInfoW      00000001800410a8     kernel32:KERNEL32.dll
 0002:000000b0       __imp_IsProcessorFeaturePresent 00000001800410b0     kernel32:KERNEL32.dll
 0002:000000b8       __imp_InterlockedPushEntrySList 00000001800410b8     kernel32:KERNEL32.dll
 0002:000000c0       __imp_InterlockedFlushSList 00000001800410c0     kernel32:KERNEL32.dll
 0002:000000c8       __imp_RtlUnwindEx          00000001800410c8     kernel32:KERNEL32.dll
 0002:000000d0       __imp_SetLastError         00000001800410d0     kernel32:KERNEL32.dll
 0002:000000d8       __imp_EnterCriticalSection 00000001800410d8     kernel32:KERNEL32.dll
 0002:000000e0       __imp_LeaveCriticalSection 00000001800410e0     kernel32:KERNEL32.dll
 0002:000000e8       __imp_DeleteCriticalSection 00000001800410e8     kernel32:KERNEL32.dll
 0002:000000f0       __imp_InitializeCriticalSectionAndSpinCount 00000001800410f0     kernel32:KERNEL32.dll
 0002:000000f8       __imp_TlsAlloc             00000001800410f8     kernel32:KERNEL32.dll
 0002:00000100       __imp_TlsGetValue          0000000180041100     kernel32:KERNEL32.dll
 0002:00000108       __imp_TlsSetValue          0000000180041108     kernel32:KERNEL32.dll
 0002:00000110       __imp_TlsFree              0000000180041110     kernel32:KERNEL32.dll
 0002:00000118       __imp_LoadLibraryExW       0000000180041118     kernel32:KERNEL32.dll
 0002:00000120       __imp_GetCurrentProcess    0000000180041120     kernel32:KERNEL32.dll
 0002:00000128       __imp_ExitProcess          0000000180041128     kernel32:KERNEL32.dll
 0002:00000130       __imp_TerminateProcess     0000000180041130     kernel32:KERNEL32.dll
 0002:00000138       __imp_GetModuleHandleExW   0000000180041138     kernel32:KERNEL32.dll
 0002:00000140       __imp_GetModuleFileNameW   0000000180041140     kernel32:KERNEL32.dll
 0002:00000148       __imp_HeapFree             0000000180041148     kernel32:KERNEL32.dll
 0002:00000150       __imp_HeapAlloc            0000000180041150     kernel32:KERNEL32.dll
 0002:00000158       __imp_FindClose            0000000180041158     kernel32:KERNEL32.dll
 0002:00000160       __imp_FindFirstFileExW     0000000180041160     kernel32:KERNEL32.dll
 0002:00000168       __imp_FindNextFileW        0000000180041168     kernel32:KERNEL32.dll
 0002:00000170       __imp_IsValidCodePage      0000000180041170     kernel32:KERNEL32.dll
 0002:00000178       __imp_GetACP               0000000180041178     kernel32:KERNEL32.dll
 0002:00000180       __imp_GetOEMCP             0000000180041180     kernel32:KERNEL32.dll
 0002:00000188       __imp_GetCPInfo            0000000180041188     kernel32:KERNEL32.dll
 0002:00000190       __imp_GetCommandLineA      0000000180041190     kernel32:KERNEL32.dll
 0002:00000198       __imp_GetCommandLineW      0000000180041198     kernel32:KERNEL32.dll
 0002:000001a0       __imp_MultiByteToWideChar  00000001800411a0     kernel32:KERNEL32.dll
 0002:000001a8       __imp_WideCharToMultiByte  00000001800411a8     kernel32:KERNEL32.dll
 0002:000001b0       __imp_GetEnvironmentStringsW 00000001800411b0     kernel32:KERNEL32.dll
 0002:000001b8       __imp_FreeEnvironmentStringsW 00000001800411b8     kernel32:KERNEL32.dll
 0002:000001c0       __imp_LCMapStringW         00000001800411c0     kernel32:KERNEL32.dll
 0002:000001c8       __imp_GetProcessHeap       00000001800411c8     kernel32:KERNEL32.dll
 0002:000001d0       __imp_GetStdHandle         00000001800411d0     kernel32:KERNEL32.dll
 0002:000001d8       __imp_GetFileType          00000001800411d8     kernel32:KERNEL32.dll
 0002:000001e0       __imp_GetStringTypeW       00000001800411e0     kernel32:KERNEL32.dll
 0002:000001e8       __imp_HeapSize             00000001800411e8     kernel32:KERNEL32.dll
 0002:000001f0       __imp_HeapReAlloc          00000001800411f0     kernel32:KERNEL32.dll
 0002:000001f8       __imp_SetStdHandle         00000001800411f8     kernel32:KERNEL32.dll
 0002:00000200       __imp_FlushFileBuffers     0000000180041200     kernel32:KERNEL32.dll
 0002:00000208       __imp_WriteFile            0000000180041208     kernel32:KERNEL32.dll
 0002:00000210       __imp_GetConsoleCP         0000000180041210     kernel32:KERNEL32.dll
 0002:00000218       __imp_GetConsoleMode       0000000180041218     kernel32:KERNEL32.dll
 0002:00000220       __imp_SetFilePointerEx     0000000180041220     kernel32:KERNEL32.dll
 0002:00000228       __imp_CreateFileW          0000000180041228     kernel32:KERNEL32.dll
 0002:00000230       __imp_CloseHandle          0000000180041230     kernel32:KERNEL32.dll
 0002:00000238       __imp_WriteConsoleW        0000000180041238     kernel32:KERNEL32.dll
 0002:00000240       \177KERNEL32_NULL_THUNK_DATA 0000000180041240     kernel32:KERNEL32.dll
 0002:00000248       __guard_check_icall_fptr   0000000180041248     LIBCMT:guard_support.obj
 0002:00000250       __guard_dispatch_icall_fptr 0000000180041250     LIBCMT:guard_support.obj
 0002:00000258       __xc_a                     0000000180041258     LIBCMT:initializers.obj
 0002:00000440       __xc_z                     0000000180041440     LIBCMT:initializers.obj
 0002:00000448       __xi_a                     0000000180041448     LIBCMT:initializers.obj
 0002:00000450       __acrt_tran_fma3_initializer 0000000180041450     libucrt:fma3_initializer.obj
 0002:00000458       __acrt_multibyte_initializer 0000000180041458     libucrt:multibyte_initializer.obj
 0002:00000460       __acrt_stdio_initializer   0000000180041460     libucrt:stdio_initializer.obj
 0002:00000468       __xi_z                     0000000180041468     LIBCMT:initializers.obj
 0002:00000470       __xp_a                     0000000180041470     LIBCMT:initializers.obj
 0002:00000478       __acrt_locale_terminator   0000000180041478     libucrt:locale_initializer.obj
 0002:00000480       __dcrt_console_output_terminator 0000000180041480     libucrt:console_output_initializer.obj
 0002:00000488       __acrt_stdio_terminator    0000000180041488     libucrt:stdio_initializer.obj
 0002:00000490       __xp_z                     0000000180041490     LIBCMT:initializers.obj
 0002:00000498       __xt_a                     0000000180041498     LIBCMT:initializers.obj
 0002:000004a0       __xt_z                     00000001800414a0     LIBCMT:initializers.obj
 0002:000004b0       ??_7PxFoundation@physx@@6B@ 00000001800414b0     Adjacencies.obj
 0002:000004f0       ??_C@_0EL@NHDACOGM@F?3?2Team_resource?23?4PhysX?94?41?2phy@ 00000001800414f0     Adjacencies.obj
 0002:00000540       ??_C@_0DA@FMEHLBKI@Adjacencies?3?3UpdateLink?3?5invalid@ 0000000180041540     Adjacencies.obj
 0002:00000570       ??_C@_0EA@CPHOACLK@Adjacencies?3?3CreateDatabase?3?5can@ 0000000180041570     Adjacencies.obj
 0002:000005b0       ??_C@_0BM@OIFKLHDN@?$DMallocation?5names?5disabled?$DO?$AA@ 00000001800415b0     Adjacencies.obj
 0002:000005cc       ?sBufferSize@DebugText@Cm@physx@@2HB 00000001800415cc     Cooking.obj
 0002:000005f0       ??_C@_06EJKDJEDO@PxBase?$AA@ 00000001800415f0     Cooking.obj
 0002:000005f8       ??_C@_0N@CDGINLLF@PxConvexMesh?$AA@ 00000001800415f8     Cooking.obj
 0002:00000608       ??_C@_0O@PBAKPCEC@PxHeightField?$AA@ 0000000180041608     Cooking.obj
 0002:00000618       ??_7PxBase@physx@@6B@      0000000180041618     Cooking.obj
 0002:00000640       ??_7PxCooking@physx@@6B@   0000000180041640     Cooking.obj
 0002:000006c0       ??_7Cooking@physx@@6B@     00000001800416c0     Cooking.obj
 0002:00000740       ??_C@_0FC@PJIHAFK@Cooking?3?3validateTriangleMesh?3?5u@ 0000000180041740     Cooking.obj
 0002:000007a0       ??_C@_0EH@DKOPFPB@F?3?2Team_resource?23?4PhysX?94?41?2phy@ 00000001800417a0     Cooking.obj
 0002:000007f0       ??_C@_0EK@EKAIJEBL@Cooking?3?3cookConvexMesh?3?5user?9pr@ 00000001800417f0     Cooking.obj
 0002:00000840       ??_C@_0FA@GFFGAPML@Cooking?3?3cookConvexMesh?3?5provide@ 0000000180041840     Cooking.obj
 0002:00000890       ??_C@_0EP@PKDCPNNO@Cooking?3?3cookConvexMesh?3?5provide@ 0000000180041890     Cooking.obj
 0002:000008e0       ??_C@_0EO@LKFMMDE@Cooking?3?3cookConvexMesh?3?5user?9pr@ 00000001800418e0     Cooking.obj
 0002:00000930       ??_C@_0EH@NAPMDGOM@f?3?2team_resource?23?4physx?94?41?2phy@ 0000000180041930     Cooking.obj
 0002:00000978       __real@3a83126f            0000000180041978     Cooking.obj
 0002:0000097c       __real@3f800000            000000018004197c     Cooking.obj
 0002:00000980       __real@ba83126f            0000000180041980     Cooking.obj
 0002:00000984       __real@bf800000            0000000180041984     Cooking.obj
 0002:00000990       __xmm@000000003a83126f3a83126f3a83126f 0000000180041990     Cooking.obj
 0002:000009a0       __xmm@00000000ba83126fba83126fba83126f 00000001800419a0     Cooking.obj
 0002:000009b0       ??_C@_0BA@DLCJDKDM@NonTrackedAlloc?$AA@ 00000001800419b0     CookingUtils.obj
 0002:000009c0       ??_C@_0EM@JILPJGPN@F?3?2Team_resource?23?4PhysX?94?41?2phy@ 00000001800419c0     CookingUtils.obj
 0002:00000a10       ??_C@_0EI@IOBDIGJM@F?3?2Team_resource?23?4PhysX?94?41?2phy@ 0000000180041a10     EdgeList.obj
 0002:00000a58       ??_C@_0CO@GBNJFPN@EdgeList?3?3CreateFacesToEdges?3?5NU@ 0000000180041a58     EdgeList.obj
 0002:00000a88       ??_C@_0CO@EHJBBMNK@EdgeList?3?3ComputeActiveEdges?3?5NU@ 0000000180041a88     EdgeList.obj
 0002:00000ab8       ??_C@_0DI@GBHLFOFP@ActiveEdges?3?3ComputeConvexEdges?3@ 0000000180041ab8     EdgeList.obj
 0002:00000af0       ??_C@_0DM@JOGBLHDI@ActiveEdges?3?3ComputeConvexEdges?3@ 0000000180041af0     EdgeList.obj
 0002:00000b30       ??_C@_0ED@FEMJKPEL@ActiveEdges?3?3ComputeConvexEdges?3@ 0000000180041b30     EdgeList.obj
 0002:00000b80       ??_C@_0EB@BFDPMFCD@ActiveEdges?3?3ComputeConvexEdges?3@ 0000000180041b80     EdgeList.obj
 0002:00000bc4       __real@bf7fbe77            0000000180041bc4     EdgeList.obj
 0002:00000bd0       __xmm@7fffffff7fffffff7fffffff7fffffff 0000000180041bd0     EdgeList.obj
 0002:00000be0       __xmm@80000000800000008000000080000000 0000000180041be0     EdgeList.obj
 0002:00000bf0       ??_C@_0EL@PCGLADDI@F?3?2Team_resource?23?4PhysX?94?41?2phy@ 0000000180041bf0     MeshCleaner.obj
 0002:00000c3c       __real@3f000000            0000000180041c3c     MeshCleaner.obj
 0002:00000c40       ??_7Quantizer@physx@@6B@   0000000180041c40     Quantizer.obj
 0002:00000c68       ??_7QuantizerImpl@@6B@     0000000180041c68     Quantizer.obj
 0002:00000c90       ??_C@_0EJ@DANKLJAL@F?3?2Team_resource?23?4PhysX?94?41?2phy@ 0000000180041c90     Quantizer.obj
 0002:00000ce0       ??_C@_0EH@IMGJBJM@F?3?2Team_resource?23?4PhysX?94?41?2phy@ 0000000180041ce0     Quantizer.obj
 0002:00000d28       __real@38d1b717            0000000180041d28     Quantizer.obj
 0002:00000d2c       __real@3c23d70a            0000000180041d2c     Quantizer.obj
 0002:00000d30       __real@3f8020c5            0000000180041d30     Quantizer.obj
 0002:00000d34       __real@7f7fffff            0000000180041d34     Quantizer.obj
 0002:00000d38       __real@fe7fffff            0000000180041d38     Quantizer.obj
 0002:00000d40       __xmm@fe7fffff7e7fffff7e7fffff7e7fffff 0000000180041d40     Quantizer.obj
 0002:00000d70       ??_C@_0FD@JMNJCKBJ@F?3?2Team_resource?23?4PhysX?94?41?2phy@ 0000000180041d70     BVHStructureBuilder.obj
 0002:00000dc4       __real@3ba3d70a            0000000180041dc4     BVHStructureBuilder.obj
 0002:00000dd0       ?reductionFactors@SubSortQuick@physx@@2QBMB 0000000180041dd0     RTreeCooking.obj
 0002:00000de0       ?stopAtTrisPerLeaf1@SubSortQuick@physx@@2QBIB 0000000180041de0     RTreeCooking.obj
 0002:00000eb0       ??_C@_0FB@LFOPHBLF@F?3?2Team_resource?23?4PhysX?94?41?2phy@ 0000000180041eb0     RTreeCooking.obj
 0002:00000f10       ??_C@_0EG@PNLLDJO@F?3?2Team_resource?23?4PhysX?94?41?2phy@ 0000000180041f10     RTreeCooking.obj
 0002:00000f60       ??_C@_0EP@CBEGANLN@f?3?2team_resource?23?4physx?94?41?2phy@ 0000000180041f60     RTreeCooking.obj
 0002:00000fb0       __real@37800080            0000000180041fb0     RTreeCooking.obj
 0002:00000fb4       __real@3a03126f            0000000180041fb4     RTreeCooking.obj
 0002:00000fb8       __real@41100000            0000000180041fb8     RTreeCooking.obj
 0002:00000fbc       __real@41700000            0000000180041fbc     RTreeCooking.obj
 0002:00000fc0       __real@42200000            0000000180041fc0     RTreeCooking.obj
 0002:00000fc4       __real@ff7fffff            0000000180041fc4     RTreeCooking.obj
 0002:00000fd0       __xmm@00000001000000010000000100000001 0000000180041fd0     RTreeCooking.obj
 0002:00000fe0       __xmm@00000003000000020000000100000000 0000000180041fe0     RTreeCooking.obj
 0002:00001010       __real@40000000            0000000180042010     MeshBuilder.obj
 0002:00001014       __real@c1b00000            0000000180042014     MeshBuilder.obj
 0002:00001040       ??_7MeshDataBase@Gu@physx@@6B@ 0000000180042040     TriangleMeshBuilder.obj
 0002:00001050       ??_C@_0EK@BMNPCEJD@F?3?2Team_resource?23?4PhysX?94?41?2phy@ 0000000180042050     TriangleMeshBuilder.obj
 0002:000010a0       ??_7TriangleMeshData@Gu@physx@@6B@ 00000001800420a0     TriangleMeshBuilder.obj
 0002:000010a8       ??_7RTreeTriangleData@Gu@physx@@6B@ 00000001800420a8     TriangleMeshBuilder.obj
 0002:000010b0       ??_7BV4TriangleData@Gu@physx@@6B@ 00000001800420b0     TriangleMeshBuilder.obj
 0002:000010b8       ??_7RemapCallback@RTreeCooker@physx@@6B@ 00000001800420b8     TriangleMeshBuilder.obj
 0002:000010c8       ??_7TriangleMeshBuilder@physx@@6B@ 00000001800420c8     TriangleMeshBuilder.obj
 0002:000010f0       ??_7RTreeTriangleMeshBuilder@physx@@6B@ 00000001800420f0     TriangleMeshBuilder.obj
 0002:00001118       ??_7BV4TriangleMeshBuilder@physx@@6B@ 0000000180042118     TriangleMeshBuilder.obj
 0002:00001140       ??_C@_0FJ@CLPMOMHB@f?3?2team_resource?23?4physx?94?41?2phy@ 0000000180042140     TriangleMeshBuilder.obj
 0002:000011a0       ??_C@_0FI@JJFGPEKG@F?3?2Team_resource?23?4PhysX?94?41?2phy@ 00000001800421a0     TriangleMeshBuilder.obj
 0002:000011f8       ??_C@_0DJ@IGODLHLP@TriangleMesh?3?5Enable?5mesh?5weldin@ 00000001800421f8     TriangleMeshBuilder.obj
 0002:00001240       ??_C@_0FJ@HHJLKGDF@TriangleMesh?3?5triangles?5are?5too?5@ 0000000180042240     TriangleMeshBuilder.obj
 0002:000012a0       ??_C@_0CN@KGPHHHLK@TriangleMesh?3?5mesh?5is?5too?5big?5fo@ 00000001800422a0     TriangleMeshBuilder.obj
 0002:000012d0       ??_C@_0DD@CMJGDCNN@TriangleMesh?3?3loadFromDesc?3?5desc@ 00000001800422d0     TriangleMeshBuilder.obj
 0002:00001310       ??_C@_0ED@ILJJNHIP@TriangleMesh?3?3loadFromDesc?3?5mPar@ 0000000180042310     TriangleMeshBuilder.obj
 0002:00001358       ??_C@_0BJ@BKHDBBHO@cleaning?5the?5mesh?5failed?$AA@ 0000000180042358     TriangleMeshBuilder.obj
 0002:00001378       ??_C@_0BK@JIDHMMCE@BV4?5tree?5failed?5to?5build?4?$AA@ 0000000180042378     TriangleMeshBuilder.obj
 0002:00001398       ??_C@_0BL@DHNECNBE@BV32?5tree?5failed?5to?5build?4?$AA@ 0000000180042398     TriangleMeshBuilder.obj
 0002:000013b8       ??_7RTreeCookerRemap@physx@@6B@ 00000001800423b8     TriangleMeshBuilder.obj
 0002:000013c8       __real@3951b717            00000001800423c8     TriangleMeshBuilder.obj
 0002:000013cc       __real@3dcccccd            00000001800423cc     TriangleMeshBuilder.obj
 0002:000013d0       __real@48742400            00000001800423d0     TriangleMeshBuilder.obj
 0002:00001400       ??_C@_0FL@BCEKKOAD@F?3?2Team_resource?23?4PhysX?94?41?2phy@ 0000000180042400     BigConvexDataBuilder.obj
 0002:00001480       ??_C@_0FI@LOIBGMD@F?3?2Team_resource?23?4PhysX?94?41?2phy@ 0000000180042480     ConvexHullBuilder.obj
 0002:000014e0       ??_C@_0EB@DCEIFDGC@ConvexHullBuilder?3?3init?3?5convex?5@ 00000001800424e0     ConvexHullBuilder.obj
 0002:00001530       ??_C@_0FM@KICBLCBH@Gu?3?3ConvexMesh?3?3checkHullPolygon@ 0000000180042530     ConvexHullBuilder.obj
 0002:00001590       ??_C@_0GO@HBFIOGLL@Gu?3?3ConvexMesh?3?3checkHullPolygon@ 0000000180042590     ConvexHullBuilder.obj
 0002:00001600       ??_C@_0HF@OLJFBIEL@ConvexHullBuilder?3?5convex?5hull?5d@ 0000000180042600     ConvexHullBuilder.obj
 0002:00001680       ??_C@_0OG@JNHFOIL@ConvexHullBuilder?3?5convex?5hull?5d@ 0000000180042680     ConvexHullBuilder.obj
 0002:00001770       ??_C@_0EJ@NIOIBAKH@Cooking?3?3cookConvexMesh?3?5non?9man@ 0000000180042770     ConvexHullBuilder.obj
 0002:000017bc       __real@3ca3d70a            00000001800427bc     ConvexHullBuilder.obj
 0002:000017c0       __real@3eaaaaab            00000001800427c0     ConvexHullBuilder.obj
 0002:000017c8       ??_7ConvexHullLib@physx@@6B@ 00000001800427c8     ConvexHullLib.obj
 0002:000017f0       ??_C@_0FE@KDBBNNED@F?3?2Team_resource?23?4PhysX?94?41?2phy@ 00000001800427f0     ConvexHullLib.obj
 0002:00001850       ??_C@_0JE@PABBNGEL@ConvexHullLib?3?3cleanupVertices?3?5@ 0000000180042850     ConvexHullLib.obj
 0002:000018e4       __real@358637bd            00000001800428e4     ConvexHullLib.obj
 0002:000018e8       __real@3d4ccccd            00000001800428e8     ConvexHullLib.obj
 0002:00001910       ??_C@_0FG@JGGLPMFK@F?3?2Team_resource?23?4PhysX?94?41?2phy@ 0000000180042910     ConvexHullUtils.obj
 0002:00001968       __real@00800000            0000000180042968     ConvexHullUtils.obj
 0002:0000196c       __real@3e20d97c            000000018004296c     ConvexHullUtils.obj
 0002:00001970       __real@bf000000            0000000180042970     ConvexHullUtils.obj
 0002:000019a0       ??_C@_0DF@LLFJIJGM@Gu?3?3ConvexMesh?3?3loadFromDesc?3?5de@ 00000001800429a0     ConvexMeshBuilder.obj
 0002:000019e0       ??_C@_0FI@MFEMLGJG@F?3?2Team_resource?23?4PhysX?94?41?2phy@ 00000001800429e0     ConvexMeshBuilder.obj
 0002:00001a40       ??_C@_0HK@JOGKIEAA@Gu?3?3ConvexMesh?3?5Mesh?5has?5a?5negat@ 0000000180042a40     ConvexMeshBuilder.obj
 0002:00001ac0       ??_C@_0DH@NJPPHFFD@Gu?3?3ConvexMesh?3?5Error?5computing?5@ 0000000180042ac0     ConvexMeshBuilder.obj
 0002:00001af8       ??_C@_0DJ@LJDLGLDJ@Gu?3?3ConvexMesh?3?3loadConvexHull?3?5@ 0000000180042af8     ConvexMeshBuilder.obj
 0002:00001b40       ??_C@_0HJ@KJANPPOE@ConvexMeshBuilder?3?3computeHullPo@ 0000000180042b40     ConvexMeshBuilder.obj
 0002:00001bbc       ??_C@_06KDGGGLIJ@PxVec3?$AA@ 0000000180042bbc     ConvexMeshBuilder.obj
 0002:00001bc4       ??_C@_05LMJPANIN@PxU32?$AA@ 0000000180042bc4     ConvexMeshBuilder.obj
 0002:00001bd0       ??_C@_0O@JMAGMMGG@PxHullPolygon?$AA@ 0000000180042bd0     ConvexMeshBuilder.obj
 0002:00001be0       __real@33d6bf95            0000000180042be0     ConvexMeshBuilder.obj
 0002:00001be4       __real@3f13cd3a            0000000180042be4     ConvexMeshBuilder.obj
 0002:00001be8       __real@b3d6bf95            0000000180042be8     ConvexMeshBuilder.obj
 0002:00001bf0       __xmm@80000000000000008000000000000000 0000000180042bf0     ConvexMeshBuilder.obj
 0002:00001c00       ??_C@_0DP@PJBJBEGF@Meshmerizer?3?3extractHullPolygons@ 0000000180042c00     ConvexPolygonsBuilder.obj
 0002:00001c40       ??_C@_0FM@BNLFKDFL@F?3?2Team_resource?23?4PhysX?94?41?2phy@ 0000000180042c40     ConvexPolygonsBuilder.obj
 0002:00001ca0       ??_C@_0DL@IAFKOCCK@ConvexHullBuilder?3?5convex?5hull?5h@ 0000000180042ca0     ConvexPolygonsBuilder.obj
 0002:00001ce0       ??_C@_0GF@OJLJHAMH@ConvexHullBuilder?3?3CreateTriangl@ 0000000180042ce0     ConvexPolygonsBuilder.obj
 0002:00001d48       ??_7QuickHullConvexHullLib@physx@@6B@ 0000000180042d48     QuickHullConvexHullLib.obj
 0002:00001d70       ??_C@_0FN@BHCFBGML@F?3?2Team_resource?23?4PhysX?94?41?2phy@ 0000000180042d70     QuickHullConvexHullLib.obj
 0002:00001dd0       ??_C@_0GA@EPPAEJPM@QuickHullConvexHullLib?3?3findSimp@ 0000000180042dd0     QuickHullConvexHullLib.obj
 0002:00001e30       ??_C@_0FB@NEBIJMML@QuickHullConvexHullLib?3?3findSimp@ 0000000180042e30     QuickHullConvexHullLib.obj
 0002:00001e90       ??_C@_0FB@CLLCBEMM@QuickHullConvexHullLib?3?3findSimp@ 0000000180042e90     QuickHullConvexHullLib.obj
 0002:00001ee4       __real@34c00000            0000000180042ee4     QuickHullConvexHullLib.obj
 0002:00001ee8       __real@3e800000            0000000180042ee8     QuickHullConvexHullLib.obj
 0002:00001f10       __real@00000000            0000000180042f10     VolumeIntegration.obj
 0002:00001f14       __real@3c088889            0000000180042f14     VolumeIntegration.obj
 0002:00001f18       __real@3c888889            0000000180042f18     VolumeIntegration.obj
 0002:00001f1c       __real@3d2aaaab            0000000180042f1c     VolumeIntegration.obj
 0002:00001f20       __real@3e2aaaab            0000000180042f20     VolumeIntegration.obj
 0002:00001f28       __real@3fe0000000000000    0000000180042f28     VolumeIntegration.obj
 0002:00001f30       __real@3ff0000000000000    0000000180042f30     VolumeIntegration.obj
 0002:00001f40       __xmm@3f811111111111113f81111111111111 0000000180042f40     VolumeIntegration.obj
 0002:00001f50       __xmm@3f811111111111113f91111111111111 0000000180042f50     VolumeIntegration.obj
 0002:00001f60       __xmm@3f911111111111113f91111111111111 0000000180042f60     VolumeIntegration.obj
 0002:00001f70       __xmm@3fa55555555555553fa5555555555555 0000000180042f70     VolumeIntegration.obj
 0002:00001f80       __xmm@3fa55555555555553fc5555555555555 0000000180042f80     VolumeIntegration.obj
 0002:00001f90       ??_C@_0BA@EGLNOO@PhysXFoundation?$AA@ 0000000180042f90     WindowsCookingDelayLoadHook.obj
 0002:00001fa0       ??_C@_0M@ILKNCJKN@PhysXCommon?$AA@ 0000000180042fa0     WindowsCookingDelayLoadHook.obj
 0002:00001fb0       __sz_PhysXCommon_64_dll    0000000180042fb0     PhysXCommon_64:PhysXCommon_64.dll
 0002:00001fd0       __sz_PhysXFoundation_64_dll 0000000180042fd0     PhysXFoundation_64:PhysXFoundation_64.dll
 0002:00001fe8       ??_C@_1BK@DBDEIDLH@?$AAK?$AAE?$AAR?$AAN?$AAE?$AAL?$AA3?$AA2?$AA?4?$AAD?$AAL?$AAL?$AA?$AA@ 0000000180042fe8     Delayimp:delayhlp.obj
 0002:00002008       ??_C@_0BI@OMNLIJDB@AcquireSRWLockExclusive?$AA@ 0000000180043008     Delayimp:delayhlp.obj
 0002:00002020       ??_C@_0BI@HMIEPCNJ@ReleaseSRWLockExclusive?$AA@ 0000000180043020     Delayimp:delayhlp.obj
 0002:00002038       __pfnDliFailureHook2       0000000180043038     Delayimp:delayhk1.obj
 0002:00002048       ??_7type_info@@6B@         0000000180043048     LIBCMT:std_type_info_static.obj
 0002:00002050       _pRawDllMain               0000000180043050     LIBCMT:dll_dllmain.obj
 0002:00002050       _pDefaultRawDllMain        0000000180043050     LIBCMT:dll_dllmain.obj
 0002:00002060       _load_config_used          0000000180043060     LIBCMT:loadcfg.obj
 0002:00002420       ??_C@_08EHJDFFNH@__based?$CI?$AA@ 0000000180043420     libvcruntime:undname.obj
 0002:00002430       ??_C@_07KOLFKCDI@__cdecl?$AA@ 0000000180043430     libvcruntime:undname.obj
 0002:00002438       ??_C@_08GHMPAG@__pascal?$AA@ 0000000180043438     libvcruntime:undname.obj
 0002:00002448       ??_C@_09IFJBGAPI@__stdcall?$AA@ 0000000180043448     libvcruntime:undname.obj
 0002:00002458       ??_C@_0L@NPHFGOKO@__thiscall?$AA@ 0000000180043458     libvcruntime:undname.obj
 0002:00002468       ??_C@_0L@JMKHOMEK@__fastcall?$AA@ 0000000180043468     libvcruntime:undname.obj
 0002:00002478       ??_C@_0N@BCKKPABJ@__vectorcall?$AA@ 0000000180043478     libvcruntime:undname.obj
 0002:00002488       ??_C@_09HIJEGCPM@__clrcall?$AA@ 0000000180043488     libvcruntime:undname.obj
 0002:00002494       ??_C@_06GHPCKEAG@__eabi?$AA@ 0000000180043494     libvcruntime:undname.obj
 0002:000024a0       ??_C@_07JOMMBBKO@__ptr64?$AA@ 00000001800434a0     libvcruntime:undname.obj
 0002:000024a8       ??_C@_0L@PILCLIHE@__restrict?$AA@ 00000001800434a8     libvcruntime:undname.obj
 0002:000024b8       ??_C@_0M@GFIIJFMG@__unaligned?$AA@ 00000001800434b8     libvcruntime:undname.obj
 0002:000024c8       ??_C@_09DHDLOLLB@restrict?$CI?$AA@ 00000001800434c8     libvcruntime:undname.obj
 0002:000024d2       ??_C@_00CNPNBAHC@?$AA@     00000001800434d2     libvcruntime:undname.obj
 0002:000024d4       ??_C@_04NIHEBCM@?5new?$AA@ 00000001800434d4     libvcruntime:undname.obj
 0002:000024e0       ??_C@_07FPCDHGMM@?5delete?$AA@ 00000001800434e0     libvcruntime:undname.obj
 0002:000024e8       ??_C@_01NEMOKFLO@?$DN?$AA@ 00000001800434e8     libvcruntime:undname.obj
 0002:000024ec       ??_C@_02GPIOPFAK@?$DO?$DO?$AA@ 00000001800434ec     libvcruntime:undname.obj
 0002:000024f0       ??_C@_02FODMEDOG@?$DM?$DM?$AA@ 00000001800434f0     libvcruntime:undname.obj
 0002:000024f4       ??_C@_01DCLJPIOD@?$CB?$AA@ 00000001800434f4     libvcruntime:undname.obj
 0002:000024f8       ??_C@_02EGOFBIJA@?$DN?$DN?$AA@ 00000001800434f8     libvcruntime:undname.obj
 0002:000024fc       ??_C@_02FDNJECIE@?$CB?$DN?$AA@ 00000001800434fc     libvcruntime:undname.obj
 0002:00002500       ??_C@_02GPECMEKF@?$FL?$FN?$AA@ 0000000180043500     libvcruntime:undname.obj
 0002:00002508       ??_C@_08LHJFAFGD@operator?$AA@ 0000000180043508     libvcruntime:undname.obj
 0002:00002514       ??_C@_02HBOOOICD@?9?$DO?$AA@ 0000000180043514     libvcruntime:undname.obj
 0002:00002518       ??_C@_01NBENCBCI@?$CK?$AA@ 0000000180043518     libvcruntime:undname.obj
 0002:0000251c       ??_C@_02ECNGHCIF@?$CL?$CL?$AA@ 000000018004351c     libvcruntime:undname.obj
 0002:00002520       ??_C@_02BAABKJLB@?9?9?$AA@ 0000000180043520     libvcruntime:undname.obj
 0002:00002524       ??_C@_01JOAMLHOP@?9?$AA@   0000000180043524     libvcruntime:undname.obj
 0002:00002528       ??_C@_01MIFGBAGJ@?$CL?$AA@ 0000000180043528     libvcruntime:undname.obj
 0002:0000252c       ??_C@_01HNPIGOCE@?$CG?$AA@ 000000018004352c     libvcruntime:undname.obj
 0002:00002530       ??_C@_03MNHNFDLC@?9?$DO?$CK?$AA@ 0000000180043530     libvcruntime:undname.obj
 0002:00002534       ??_C@_01KMDKNFGN@?1?$AA@   0000000180043534     libvcruntime:undname.obj
 0002:00002538       ??_C@_01FGNFDNOH@?$CF?$AA@ 0000000180043538     libvcruntime:undname.obj
 0002:0000253c       ??_C@_01MNNFJEPP@?$DM?$AA@ 000000018004353c     libvcruntime:undname.obj
 0002:00002540       ??_C@_02EHCHHCKH@?$DM?$DN?$AA@ 0000000180043540     libvcruntime:undname.obj
 0002:00002544       ??_C@_01PPODPGHN@?$DO?$AA@ 0000000180043544     libvcruntime:undname.obj
 0002:00002548       ??_C@_02EEKDKGMJ@?$DO?$DN?$AA@ 0000000180043548     libvcruntime:undname.obj
 0002:0000254c       ??_C@_01IHBHIGKO@?0?$AA@   000000018004354c     libvcruntime:undname.obj
 0002:00002550       ??_C@_02HCKGKOFO@?$CI?$CJ?$AA@ 0000000180043550     libvcruntime:undname.obj
 0002:00002554       ??_C@_01PJKLJHI@?$HO?$AA@  0000000180043554     libvcruntime:undname.obj
 0002:00002558       ??_C@_01JKBOJNNK@?$FO?$AA@ 0000000180043558     libvcruntime:undname.obj
 0002:0000255c       ??_C@_01DNKMNLPK@?$HM?$AA@ 000000018004355c     libvcruntime:undname.obj
 0002:00002560       ??_C@_02PPKAJPJL@?$CG?$CG?$AA@ 0000000180043560     libvcruntime:undname.obj
 0002:00002564       ??_C@_02NONPIBCD@?$HM?$HM?$AA@ 0000000180043564     libvcruntime:undname.obj
 0002:00002568       ??_C@_02FPIMKNGF@?$CK?$DN?$AA@ 0000000180043568     libvcruntime:undname.obj
 0002:0000256c       ??_C@_02FOEOMHFC@?$CL?$DN?$AA@ 000000018004356c     libvcruntime:undname.obj
 0002:00002570       ??_C@_02FKMDLLOA@?9?$DN?$AA@ 0000000180043570     libvcruntime:undname.obj
 0002:00002574       ??_C@_02FJEHGPIO@?1?$DN?$AA@ 0000000180043574     libvcruntime:undname.obj
 0002:00002578       ??_C@_02FENAOKFI@?$CF?$DN?$AA@ 0000000180043578     libvcruntime:undname.obj
 0002:0000257c       ??_C@_03IKFCCPFF@?$DO?$DO?$DN?$AA@ 000000018004357c     libvcruntime:undname.obj
 0002:00002580       ??_C@_03CDNPDDLA@?$DM?$DM?$DN?$AA@ 0000000180043580     libvcruntime:undname.obj
 0002:00002584       ??_C@_02FGJGFEAB@?$CG?$DN?$AA@ 0000000180043584     libvcruntime:undname.obj
 0002:00002588       ??_C@_02DHLNPPGH@?$HM?$DN?$AA@ 0000000180043588     libvcruntime:undname.obj
 0002:0000258c       ??_C@_02MHEGNOJ@?$FO?$DN?$AA@ 000000018004358c     libvcruntime:undname.obj
 0002:00002590       ??_C@_09IFPLHPGF@?$GAvftable?8?$AA@ 0000000180043590     libvcruntime:undname.obj
 0002:000025a0       ??_C@_09BLBHBJP@?$GAvbtable?8?$AA@ 00000001800435a0     libvcruntime:undname.obj
 0002:000025b0       ??_C@_07FEEIOKP@?$GAvcall?8?$AA@ 00000001800435b0     libvcruntime:undname.obj
 0002:000025b8       ??_C@_08LLFFHHDJ@?$GAtypeof?8?$AA@ 00000001800435b8     libvcruntime:undname.obj
 0002:000025c8       ??_C@_0BF@KDPPACIK@?$GAlocal?5static?5guard?8?$AA@ 00000001800435c8     libvcruntime:undname.obj
 0002:000025e0       ??_C@_08OBABFOLI@?$GAstring?8?$AA@ 00000001800435e0     libvcruntime:undname.obj
 0002:000025f0       ??_C@_0BD@JDLKDPAB@?$GAvbase?5destructor?8?$AA@ 00000001800435f0     libvcruntime:undname.obj
 0002:00002608       ??_C@_0BN@DEGPLNFK@?$GAvector?5deleting?5destructor?8?$AA@ 0000000180043608     libvcruntime:undname.obj
 0002:00002628       ??_C@_0BO@OBMKPJIG@?$GAdefault?5constructor?5closure?8?$AA@ 0000000180043628     libvcruntime:undname.obj
 0002:00002648       ??_C@_0BN@IMDCHIKM@?$GAscalar?5deleting?5destructor?8?$AA@ 0000000180043648     libvcruntime:undname.obj
 0002:00002668       ??_C@_0BO@PFGOCPJJ@?$GAvector?5constructor?5iterator?8?$AA@ 0000000180043668     libvcruntime:undname.obj
 0002:00002688       ??_C@_0BN@LFPFMEDL@?$GAvector?5destructor?5iterator?8?$AA@ 0000000180043688     libvcruntime:undname.obj
 0002:000026a8       ??_C@_0CE@IKBNEHA@?$GAvector?5vbase?5constructor?5iterat@ 00000001800436a8     libvcruntime:undname.obj
 0002:000026d0       ??_C@_0BL@NILFHHPC@?$GAvirtual?5displacement?5map?8?$AA@ 00000001800436d0     libvcruntime:undname.obj
 0002:000026f0       ??_C@_0CB@JONCMFFK@?$GAeh?5vector?5constructor?5iterator?8@ 00000001800436f0     libvcruntime:undname.obj
 0002:00002718       ??_C@_0CA@GCEOPDGL@?$GAeh?5vector?5destructor?5iterator?8?$AA@ 0000000180043718     libvcruntime:undname.obj
 0002:00002738       ??_C@_0CH@OOJPLCPH@?$GAeh?5vector?5vbase?5constructor?5ite@ 0000000180043738     libvcruntime:undname.obj
 0002:00002760       ??_C@_0BL@LLKPOHJI@?$GAcopy?5constructor?5closure?8?$AA@ 0000000180043760     libvcruntime:undname.obj
 0002:00002780       ??_C@_0BA@KBCDOMBN@?$GAudt?5returning?8?$AA@ 0000000180043780     libvcruntime:undname.obj
 0002:00002790       ??_C@_03KLGMFNMG@?$GAEH?$AA@ 0000000180043790     libvcruntime:undname.obj
 0002:00002794       ??_C@_05KHLCHHI@?$GARTTI?$AA@ 0000000180043794     libvcruntime:undname.obj
 0002:000027a0       ??_C@_0BA@KKLDJDLB@?$GAlocal?5vftable?8?$AA@ 00000001800437a0     libvcruntime:undname.obj
 0002:000027b0       ??_C@_0CE@IIHCMGGL@?$GAlocal?5vftable?5constructor?5closu@ 00000001800437b0     libvcruntime:undname.obj
 0002:000027d4       ??_C@_06FHBGPFGH@?5new?$FL?$FN?$AA@ 00000001800437d4     libvcruntime:undname.obj
 0002:000027e0       ??_C@_09LBNFPBCA@?5delete?$FL?$FN?$AA@ 00000001800437e0     libvcruntime:undname.obj
 0002:000027f0       ??_C@_0P@HJKNJFNN@?$GAomni?5callsig?8?$AA@ 00000001800437f0     libvcruntime:undname.obj
 0002:00002800       ??_C@_0BL@CNOONJFP@?$GAplacement?5delete?5closure?8?$AA@ 0000000180043800     libvcruntime:undname.obj
 0002:00002820       ??_C@_0BN@CKNJLHMB@?$GAplacement?5delete?$FL?$FN?5closure?8?$AA@ 0000000180043820     libvcruntime:undname.obj
 0002:00002840       ??_C@_0CG@CFDHKGGD@?$GAmanaged?5vector?5constructor?5iter@ 0000000180043840     libvcruntime:undname.obj
 0002:00002868       ??_C@_0CF@IMGKMJNO@?$GAmanaged?5vector?5destructor?5itera@ 0000000180043868     libvcruntime:undname.obj
 0002:00002890       ??_C@_0CG@HLDDJMAG@?$GAeh?5vector?5copy?5constructor?5iter@ 0000000180043890     libvcruntime:undname.obj
 0002:000028b8       ??_C@_0CM@FCBBDIGB@?$GAeh?5vector?5vbase?5copy?5constructo@ 00000001800438b8     libvcruntime:undname.obj
 0002:000028e8       ??_C@_0BL@CLIPGLGB@?$GAdynamic?5initializer?5for?5?8?$AA@ 00000001800438e8     libvcruntime:undname.obj
 0002:00002908       ??_C@_0CB@PDBIFEP@?$GAdynamic?5atexit?5destructor?5for?5?8@ 0000000180043908     libvcruntime:undname.obj
 0002:00002930       ??_C@_0CD@CGAJBKEJ@?$GAvector?5copy?5constructor?5iterato@ 0000000180043930     libvcruntime:undname.obj
 0002:00002958       ??_C@_0CJ@GJELGAMM@?$GAvector?5vbase?5copy?5constructor?5i@ 0000000180043958     libvcruntime:undname.obj
 0002:00002988       ??_C@_0CL@FGIJHLCE@?$GAmanaged?5vector?5copy?5constructor@ 0000000180043988     libvcruntime:undname.obj
 0002:000029b8       ??_C@_0BM@PMGGMLDN@?$GAlocal?5static?5thread?5guard?8?$AA@ 00000001800439b8     libvcruntime:undname.obj
 0002:000029d8       ??_C@_0N@BDNMDMOL@operator?5?$CC?$CC?5?$AA@ 00000001800439d8     libvcruntime:undname.obj
 0002:000029e8       ??_C@_0BC@DAFEJGAK@?5Type?5Descriptor?8?$AA@ 00000001800439e8     libvcruntime:undname.obj
 0002:00002a00       ??_C@_0BM@LDKODKLH@?5Base?5Class?5Descriptor?5at?5?$CI?$AA@ 0000000180043a00     libvcruntime:undname.obj
 0002:00002a20       ??_C@_0BD@LGICGFMM@?5Base?5Class?5Array?8?$AA@ 0000000180043a20     libvcruntime:undname.obj
 0002:00002a38       ??_C@_0BN@MECKDCOJ@?5Class?5Hierarchy?5Descriptor?8?$AA@ 0000000180043a38     libvcruntime:undname.obj
 0002:00002a58       ??_C@_0BK@CFCOFLF@?5Complete?5Object?5Locator?8?$AA@ 0000000180043a58     libvcruntime:undname.obj
 0002:00002a74       ??_C@_04HEJADOOB@CV?3?5?$AA@ 0000000180043a74     libvcruntime:undname.obj
 0002:00002a7c       ??_C@_02MOLJINC@?3?3?$AA@  0000000180043a7c     libvcruntime:undname.obj
 0002:00002a80       ??_C@_0BE@JAEOCHPE@template?9parameter?9?$AA@ 0000000180043a80     libvcruntime:undname.obj
 0002:00002a98       ??_C@_0O@KHGCOMHP@generic?9type?9?$AA@ 0000000180043a98     libvcruntime:undname.obj
 0002:00002aa8       ??_C@_01NLNLIGKH@?$GA?$AA@ 0000000180043aa8     libvcruntime:undname.obj
 0002:00002aac       ??_C@_01GEODFPGF@?8?$AA@   0000000180043aac     libvcruntime:undname.obj
 0002:00002ab0       ??_C@_0BG@JNJLAMPM@?$GAanonymous?5namespace?8?$AA@ 0000000180043ab0     libvcruntime:undname.obj
 0002:00002ac8       ??_C@_02OHHJMEON@?8?8?$AA@ 0000000180043ac8     libvcruntime:undname.obj
 0002:00002ad0       ??_C@_0BN@IBLMMFAP@?$GAnon?9type?9template?9parameter?$AA@ 0000000180043ad0     libvcruntime:undname.obj
 0002:00002af0       ??_C@_04GKJNKENE@void?$AA@ 0000000180043af0     libvcruntime:undname.obj
 0002:00002af8       ??_C@_0BE@EODMJLIF@?$GAtemplate?9parameter?$AA@ 0000000180043af8     libvcruntime:undname.obj
 0002:00002b0c       ??_C@_03KHICJKCI@?4?4?4?$AA@ 0000000180043b0c     libvcruntime:undname.obj
 0002:00002b10       ??_C@_04HIBGFPH@NULL?$AA@  0000000180043b10     libvcruntime:undname.obj
 0002:00002b18       ??_C@_02DPKJAMEF@?$CFd?$AA@ 0000000180043b18     libvcruntime:undname.obj
 0002:00002b20       ??_C@_0BK@IHCCFNEL@?$GAtemplate?9type?9parameter?9?$AA@ 0000000180043b20     libvcruntime:undname.obj
 0002:00002b40       ??_C@_0BK@OFCNNNKO@?$GAgeneric?9class?9parameter?9?$AA@ 0000000180043b40     libvcruntime:undname.obj
 0002:00002b60       ??_C@_0BL@NGJBLFIL@?$GAgeneric?9method?9parameter?9?$AA@ 0000000180043b60     libvcruntime:undname.obj
 0002:00002b7c       ??_C@_03OPGICMGF@?$HN?8?5?$AA@ 0000000180043b7c     libvcruntime:undname.obj
 0002:00002b80       ??_C@_02IGFCGPIL@?$HN?8?$AA@ 0000000180043b80     libvcruntime:undname.obj
 0002:00002b84       ??_C@_01CLKCMJKC@?5?$AA@   0000000180043b84     libvcruntime:undname.obj
 0002:00002b88       ??_C@_0N@CBHHHENL@?$GAvtordispex?$HL?$AA@ 0000000180043b88     libvcruntime:undname.obj
 0002:00002b98       ??_C@_0L@GHPFDFH@?$GAvtordisp?$HL?$AA@ 0000000180043b98     libvcruntime:undname.obj
 0002:00002ba8       ??_C@_0L@HNGCOGAE@?$GAadjustor?$HL?$AA@ 0000000180043ba8     libvcruntime:undname.obj
 0002:00002bb8       ??_C@_0CB@KJDOOODE@?$GAlocal?5static?5destructor?5helper?8@ 0000000180043bb8     libvcruntime:undname.obj
 0002:00002be0       ??_C@_0DB@ILEFOCIJ@?$GAtemplate?5static?5data?5member?5con@ 0000000180043be0     libvcruntime:undname.obj
 0002:00002c18       ??_C@_0DA@HGFJFBBE@?$GAtemplate?5static?5data?5member?5des@ 0000000180043c18     libvcruntime:undname.obj
 0002:00002c48       ??_C@_07PGOEDBHP@static?5?$AA@ 0000000180043c48     libvcruntime:undname.obj
 0002:00002c50       ??_C@_08NIEOINHE@virtual?5?$AA@ 0000000180043c50     libvcruntime:undname.obj
 0002:00002c60       ??_C@_09LAPHOOG@private?3?5?$AA@ 0000000180043c60     libvcruntime:undname.obj
 0002:00002c70       ??_C@_0M@GAIFPFIP@protected?3?5?$AA@ 0000000180043c70     libvcruntime:undname.obj
 0002:00002c80       ??_C@_08GPDDCMKI@public?3?5?$AA@ 0000000180043c80     libvcruntime:undname.obj
 0002:00002c90       ??_C@_08KJLFOPNE@?$FLthunk?$FN?3?$AA@ 0000000180043c90     libvcruntime:undname.obj
 0002:00002ca0       ??_C@_0M@DHNBOJMP@extern?5?$CCC?$CC?5?$AA@ 0000000180043ca0     libvcruntime:undname.obj
 0002:00002cac       ??_C@_02KCKGHPCA@?$CJ?5?$AA@ 0000000180043cac     libvcruntime:undname.obj
 0002:00002cb0       ??_C@_05CIHEBHNO@char?5?$AA@ 0000000180043cb0     libvcruntime:undname.obj
 0002:00002cb8       ??_C@_06EHJMALKF@short?5?$AA@ 0000000180043cb8     libvcruntime:undname.obj
 0002:00002cc0       ??_C@_04LAHKHJMA@int?5?$AA@ 0000000180043cc0     libvcruntime:undname.obj
 0002:00002cc8       ??_C@_05CJIMAING@long?5?$AA@ 0000000180043cc8     libvcruntime:undname.obj
 0002:00002cd0       ??_C@_09EBBEKKIH@unsigned?5?$AA@ 0000000180043cd0     libvcruntime:undname.obj
 0002:00002cdc       ??_C@_05BEFAKPML@void?5?$AA@ 0000000180043cdc     libvcruntime:undname.obj
 0002:00002ce8       ??_C@_08PABEKFH@volatile?$AA@ 0000000180043ce8     libvcruntime:undname.obj
 0002:00002cf8       ??_C@_0BA@LKIJLKPP@std?3?3nullptr_t?5?$AA@ 0000000180043cf8     libvcruntime:undname.obj
 0002:00002d08       ??_C@_0P@GCOCNKDM@std?3?3nullptr_t?$AA@ 0000000180043d08     libvcruntime:undname.obj
 0002:00002d18       ??_C@_0L@EGPHHEKN@?$DMellipsis?$DO?$AA@ 0000000180043d18     libvcruntime:undname.obj
 0002:00002d24       ??_C@_04EENFHACM@?0?4?4?4?$AA@ 0000000180043d24     libvcruntime:undname.obj
 0002:00002d30       ??_C@_0M@ELJOJFFH@?0?$DMellipsis?$DO?$AA@ 0000000180043d30     libvcruntime:undname.obj
 0002:00002d40       ??_C@_07HDJPLPEK@?5throw?$CI?$AA@ 0000000180043d40     libvcruntime:undname.obj
 0002:00002d48       ??_C@_03PBJBJNON@cpu?$AA@  0000000180043d48     libvcruntime:undname.obj
 0002:00002d4c       ??_C@_03DCBBJBAA@amp?$AA@  0000000180043d4c     libvcruntime:undname.obj
 0002:00002d50       ??_C@_02KEGNLNML@?0?5?$AA@ 0000000180043d50     libvcruntime:undname.obj
 0002:00002d54       ??_C@_04ENMBGAPA@char?$AA@ 0000000180043d54     libvcruntime:undname.obj
 0002:00002d5c       ??_C@_05BFKKPKCG@short?$AA@ 0000000180043d5c     libvcruntime:undname.obj
 0002:00002d64       ??_C@_03JBIPMCLC@int?$AA@  0000000180043d64     libvcruntime:undname.obj
 0002:00002d68       ??_C@_04GOKPGOLB@long?$AA@ 0000000180043d68     libvcruntime:undname.obj
 0002:00002d70       ??_C@_05KNFBNCOH@float?$AA@ 0000000180043d70     libvcruntime:undname.obj
 0002:00002d78       ??_C@_06BNJCAIGJ@double?$AA@ 0000000180043d78     libvcruntime:undname.obj
 0002:00002d80       ??_C@_04DDKJGDCM@bool?$AA@ 0000000180043d80     libvcruntime:undname.obj
 0002:00002d88       ??_C@_06EBGKOKIG@__int8?$AA@ 0000000180043d88     libvcruntime:undname.obj
 0002:00002d90       ??_C@_07ICFHOGAF@__int16?$AA@ 0000000180043d90     libvcruntime:undname.obj
 0002:00002d98       ??_C@_07OFLPPHGP@__int32?$AA@ 0000000180043d98     libvcruntime:undname.obj
 0002:00002da0       ??_C@_07LFCOJCAC@__int64?$AA@ 0000000180043da0     libvcruntime:undname.obj
 0002:00002da8       ??_C@_08GAHOLHEO@__int128?$AA@ 0000000180043da8     libvcruntime:undname.obj
 0002:00002db8       ??_C@_09EEKGDCPH@?$DMunknown?$DO?$AA@ 0000000180043db8     libvcruntime:undname.obj
 0002:00002dc8       ??_C@_08HBIPOFJB@char16_t?$AA@ 0000000180043dc8     libvcruntime:undname.obj
 0002:00002dd8       ??_C@_08IECNCBKG@char32_t?$AA@ 0000000180043dd8     libvcruntime:undname.obj
 0002:00002de8       ??_C@_07CLGGIAMF@wchar_t?$AA@ 0000000180043de8     libvcruntime:undname.obj
 0002:00002df0       ??_C@_06GCICPBLB@__w64?5?$AA@ 0000000180043df0     libvcruntime:undname.obj
 0002:00002df8       ??_C@_07NFANNNEC@UNKNOWN?$AA@ 0000000180043df8     libvcruntime:undname.obj
 0002:00002e00       ??_C@_07EDHNAJHC@signed?5?$AA@ 0000000180043e00     libvcruntime:undname.obj
 0002:00002e08       ??_C@_05BNCCCJPP@const?$AA@ 0000000180043e08     libvcruntime:undname.obj
 0002:00002e10       ??_C@_09EFNPDFFP@?5volatile?$AA@ 0000000180043e10     libvcruntime:undname.obj
 0002:00002e20       ??_C@_0P@GCIFDJCJ@?$GAunknown?5ecsu?8?$AA@ 0000000180043e20     libvcruntime:undname.obj
 0002:00002e30       ??_C@_06MOJHIBMG@union?5?$AA@ 0000000180043e30     libvcruntime:undname.obj
 0002:00002e38       ??_C@_07DIBCDNGL@struct?5?$AA@ 0000000180043e38     libvcruntime:undname.obj
 0002:00002e40       ??_C@_06LJBABKPM@class?5?$AA@ 0000000180043e40     libvcruntime:undname.obj
 0002:00002e48       ??_C@_08KOFANOFK@coclass?5?$AA@ 0000000180043e48     libvcruntime:undname.obj
 0002:00002e58       ??_C@_0N@DLIEFKNA@cointerface?5?$AA@ 0000000180043e58     libvcruntime:undname.obj
 0002:00002e68       ??_C@_05LJGMCFOG@enum?5?$AA@ 0000000180043e68     libvcruntime:undname.obj
 0002:00002e70       ??_C@_09GAIEOBLP@volatile?5?$AA@ 0000000180043e70     libvcruntime:undname.obj
 0002:00002e7c       ??_C@_06LIJLOJAG@const?5?$AA@ 0000000180043e7c     libvcruntime:undname.obj
 0002:00002e84       ??_C@_02KJPKDIBN@?$CG?5?$AA@ 0000000180043e84     libvcruntime:undname.obj
 0002:00002e88       ??_C@_03PCKGMOPB@?$CG?$CG?5?$AA@ 0000000180043e88     libvcruntime:undname.obj
 0002:00002e90       ??_C@_0M@EALIELKG@cli?3?3array?$DM?$AA@ 0000000180043e90     libvcruntime:undname.obj
 0002:00002ea0       ??_C@_0O@GKABPPIF@cli?3?3pin_ptr?$DM?$AA@ 0000000180043ea0     libvcruntime:undname.obj
 0002:00002eb0       ??_C@_02GOGNNPBN@?$CJ?$FL?$AA@ 0000000180043eb0     libvcruntime:undname.obj
 0002:00002eb4       ??_C@_06EEGAIFAK@?$HLflat?$HN?$AA@ 0000000180043eb4     libvcruntime:undname.obj
 0002:00002ebc       ??_C@_05JIBOFOHK@?$HLfor?5?$AA@ 0000000180043ebc     libvcruntime:undname.obj
 0002:00002ec4       ??_C@_02MDINNEEG@s?5?$AA@  0000000180043ec4     libvcruntime:undname.obj
 0002:00002ed0       ??_7charNode@@6B@          0000000180043ed0     libvcruntime:undname.obj
 0002:00002ef0       ??_7pcharNode@@6B@         0000000180043ef0     libvcruntime:undname.obj
 0002:00002f10       ??_7pDNameNode@@6B@        0000000180043f10     libvcruntime:undname.obj
 0002:00002f30       ??_7DNameStatusNode@@6B@   0000000180043f30     libvcruntime:undname.obj
 0002:00002f50       ??_7pairNode@@6B@          0000000180043f50     libvcruntime:undname.obj
 0002:00002f68       ??_C@_04OKOHEJBO@?5?$DP?$DP?5?$AA@ 0000000180043f68     libvcruntime:undname.obj
 0002:00002f90       ??_C@_1BC@DNHGCMLG@?$AAa?$AAd?$AAv?$AAa?$AAp?$AAi?$AA3?$AA2?$AA?$AA@ 0000000180043f90     libvcruntime:winapi_downlevel.obj
 0002:00002fa8       ??_C@_1DM@KHCHBNEB@?$AAa?$AAp?$AAi?$AA?9?$AAm?$AAs?$AA?9?$AAw?$AAi?$AAn?$AA?9?$AAc?$AAo?$AAr?$AAe?$AA?9?$AAf?$AAi?$AAb?$AAe?$AAr?$AAs?$AA?9?$AAl?$AA1?$AA?9?$AA1?$AA?9?$AA1?$AA?$AA@ 0000000180043fa8     libvcruntime:winapi_downlevel.obj
 0002:00002fe8       ??_C@_1DK@LPPGFMPP@?$AAa?$AAp?$AAi?$AA?9?$AAm?$AAs?$AA?9?$AAw?$AAi?$AAn?$AA?9?$AAc?$AAo?$AAr?$AAe?$AA?9?$AAs?$AAy?$AAn?$AAc?$AAh?$AA?9?$AAl?$AA1?$AA?9?$AA2?$AA?9?$AA0?$AA?$AA@ 0000000180043fe8     libvcruntime:winapi_downlevel.obj
 0002:00003028       ??_C@_1BC@GDMECMAK@?$AAk?$AAe?$AAr?$AAn?$AAe?$AAl?$AA3?$AA2?$AA?$AA@ 0000000180044028     libvcruntime:winapi_downlevel.obj
 0002:00003048       ??_C@_08KNHFBNJ@FlsAlloc?$AA@ 0000000180044048     libvcruntime:winapi_downlevel.obj
 0002:00003060       ??_C@_07PEJMOBNF@FlsFree?$AA@ 0000000180044060     libvcruntime:winapi_downlevel.obj
 0002:00003070       ??_C@_0M@GDNOONDI@FlsGetValue?$AA@ 0000000180044070     libvcruntime:winapi_downlevel.obj
 0002:00003088       ??_C@_0M@JCPCPOEF@FlsSetValue?$AA@ 0000000180044088     libvcruntime:winapi_downlevel.obj
 0002:000030a0       ??_C@_0BM@HCFOFFN@InitializeCriticalSectionEx?$AA@ 00000001800440a0     libvcruntime:winapi_downlevel.obj
 0002:00003848       __real@3f1a36e2eb1c432d    0000000180044848     libucrt:atan2f.obj
 0002:00003850       __real@3f490fdb            0000000180044850     libucrt:atan2f.obj
 0002:00003858       __real@3fb0000000000000    0000000180044858     libucrt:atan2f.obj
 0002:00003860       __real@3fc2492482bd6be1    0000000180044860     libucrt:atan2f.obj
 0002:00003868       __real@3fc90fdb            0000000180044868     libucrt:atan2f.obj
 0002:00003870       __real@3fc99999999643a3    0000000180044870     libucrt:atan2f.obj
 0002:00003878       __real@3fd5555555550877    0000000180044878     libucrt:atan2f.obj
 0002:00003880       __real@3fd5555555555538    0000000180044880     libucrt:atan2f.obj
 0002:00003888       __real@3ff921fb54442d18    0000000180044888     libucrt:atan2f.obj
 0002:00003890       __real@400921fb54442d18    0000000180044890     libucrt:atan2f.obj
 0002:00003898       __real@4016cbe4            0000000180044898     libucrt:atan2f.obj
 0002:0000389c       __real@40490fdb            000000018004489c     libucrt:atan2f.obj
 0002:000038a0       __real@4070000000000000    00000001800448a0     libucrt:atan2f.obj
 0002:000038a8       __real@80000000            00000001800448a8     libucrt:atan2f.obj
 0002:000038ac       __real@bf490fdb            00000001800448ac     libucrt:atan2f.obj
 0002:000038b0       __real@bfc90fdb            00000001800448b0     libucrt:atan2f.obj
 0002:000038b4       __real@c016cbe4            00000001800448b4     libucrt:atan2f.obj
 0002:000038b8       __real@c0490fdb            00000001800448b8     libucrt:atan2f.obj
 0002:00004410       __acrt_exception_action_table 0000000180045410     libucrt:exception_filter.obj
 0002:000044d0       __acrt_signal_action_table_count 00000001800454d0     libucrt:exception_filter.obj
 0002:000044d8       __acrt_signal_action_first_fpe_index 00000001800454d8     libucrt:exception_filter.obj
 0002:000044e0       __acrt_signal_action_fpe_count 00000001800454e0     libucrt:exception_filter.obj
 0002:000044e8       ??_C@_1BI@BGOHAHKC@?$AAm?$AAs?$AAc?$AAo?$AAr?$AAe?$AAe?$AA?4?$AAd?$AAl?$AAl?$AA?$AA@ 00000001800454e8     libucrt:exit.obj
 0002:00004500       ??_C@_0P@MIGLKIOC@CorExitProcess?$AA@ 0000000180045500     libucrt:exit.obj
 0002:00004610       format_validation_lookup_table 0000000180045610     libucrt:output.obj
 0002:00004670       ??_C@_1O@CEDCILHN@?$AA?$CI?$AAn?$AAu?$AAl?$AAl?$AA?$CJ?$AA?$AA@ 0000000180045670     libucrt:output.obj
 0002:00004680       ??_C@_06OJHGLDPL@?$CInull?$CJ?$AA@ 0000000180045680     libucrt:output.obj
 0002:00004690       __two_to_jby64_table       0000000180045690     libucrt:two_to_jby64_table.obj
 0002:00004890       __log_F_inv_qword          0000000180045890     libucrt:log_f_inv_qword_table.obj
 0002:000050a0       ??_C@_04MBFDLNIM@powf?$AA@ 00000001800460a0     libucrt:pow_special.obj
 0002:00005220       ??_C@_04LAGPAAHP@sinf?$AA@ 0000000180046220     libucrt:sincos_special.obj
 0002:00005228       ??_C@_04OBBKPIAC@cosf?$AA@ 0000000180046228     libucrt:sincos_special.obj
 0002:00005230       __Lcosfarray               0000000180046230     libucrt:lsincosf_array.obj
 0002:00005260       __Lsinfarray               0000000180046260     libucrt:lsincosf_array.obj
 0002:00005280       __L_2_by_pi_bits           0000000180046280     libucrt:l2_by_pi_bits.obj
 0002:00005558       ??_C@_1M@HPNHIDJI@?$AAj?$AAa?$AA?9?$AAJ?$AAP?$AA?$AA@ 0000000180046558     libucrt:mbctype.obj
 0002:00005568       ??_C@_1M@BIBDDEMK@?$AAz?$AAh?$AA?9?$AAC?$AAN?$AA?$AA@ 0000000180046568     libucrt:mbctype.obj
 0002:00005578       ??_C@_1M@JLOOOEGK@?$AAk?$AAo?$AA?9?$AAK?$AAR?$AA?$AA@ 0000000180046578     libucrt:mbctype.obj
 0002:00005588       ??_C@_1M@CLNBBOPM@?$AAz?$AAh?$AA?9?$AAT?$AAW?$AA?$AA@ 0000000180046588     libucrt:mbctype.obj
 0002:00005640       ??_C@_1EA@JGEFHKEI@?$AAa?$AAp?$AAi?$AA?9?$AAm?$AAs?$AA?9?$AAw?$AAi?$AAn?$AA?9?$AAc?$AAo?$AAr?$AAe?$AA?9?$AAd?$AAa?$AAt?$AAe?$AAt?$AAi?$AAm?$AAe?$AA?9?$AAl?$AA1?$AA?9?$AA1?$AA?9?$AA1?$AA?$AA@ 0000000180046640     libucrt:winapi_thunks.obj
 0002:00005680       ??_C@_1DI@IJCEHOCB@?$AAa?$AAp?$AAi?$AA?9?$AAm?$AAs?$AA?9?$AAw?$AAi?$AAn?$AA?9?$AAc?$AAo?$AAr?$AAe?$AA?9?$AAf?$AAi?$AAl?$AAe?$AA?9?$AAl?$AA1?$AA?9?$AA2?$AA?9?$AA2?$AA?$AA@ 0000000180046680     libucrt:winapi_thunks.obj
 0002:000056c0       ??_C@_1EI@MPIAOHOC@?$AAa?$AAp?$AAi?$AA?9?$AAm?$AAs?$AA?9?$AAw?$AAi?$AAn?$AA?9?$AAc?$AAo?$AAr?$AAe?$AA?9?$AAl?$AAo?$AAc?$AAa?$AAl?$AAi?$AAz?$AAa?$AAt?$AAi?$AAo?$AAn?$AA?9?$AAl?$AA1?$AA?9@ 00000001800466c0     libucrt:winapi_thunks.obj
 0002:00005710       ??_C@_1FK@FPHCKFIE@?$AAa?$AAp?$AAi?$AA?9?$AAm?$AAs?$AA?9?$AAw?$AAi?$AAn?$AA?9?$AAc?$AAo?$AAr?$AAe?$AA?9?$AAl?$AAo?$AAc?$AAa?$AAl?$AAi?$AAz?$AAa?$AAt?$AAi?$AAo?$AAn?$AA?9?$AAo?$AAb?$AAs@ 0000000180046710     libucrt:winapi_thunks.obj
 0002:00005770       ??_C@_1EM@DILCGIIO@?$AAa?$AAp?$AAi?$AA?9?$AAm?$AAs?$AA?9?$AAw?$AAi?$AAn?$AA?9?$AAc?$AAo?$AAr?$AAe?$AA?9?$AAp?$AAr?$AAo?$AAc?$AAe?$AAs?$AAs?$AAt?$AAh?$AAr?$AAe?$AAa?$AAd?$AAs?$AA?9?$AAl@ 0000000180046770     libucrt:winapi_thunks.obj
 0002:000057c0       ??_C@_1DM@LNCGDDPN@?$AAa?$AAp?$AAi?$AA?9?$AAm?$AAs?$AA?9?$AAw?$AAi?$AAn?$AA?9?$AAc?$AAo?$AAr?$AAe?$AA?9?$AAs?$AAt?$AAr?$AAi?$AAn?$AAg?$AA?9?$AAl?$AA1?$AA?9?$AA1?$AA?9?$AA0?$AA?$AA@ 00000001800467c0     libucrt:winapi_thunks.obj
 0002:00005800       ??_C@_1DO@FPAPJEMD@?$AAa?$AAp?$AAi?$AA?9?$AAm?$AAs?$AA?9?$AAw?$AAi?$AAn?$AA?9?$AAc?$AAo?$AAr?$AAe?$AA?9?$AAs?$AAy?$AAs?$AAi?$AAn?$AAf?$AAo?$AA?9?$AAl?$AA1?$AA?9?$AA2?$AA?9?$AA1?$AA?$AA@ 0000000180046800     libucrt:winapi_thunks.obj
 0002:00005840       ??_C@_1DK@NDHNAHIO@?$AAa?$AAp?$AAi?$AA?9?$AAm?$AAs?$AA?9?$AAw?$AAi?$AAn?$AA?9?$AAc?$AAo?$AAr?$AAe?$AA?9?$AAw?$AAi?$AAn?$AAr?$AAt?$AA?9?$AAl?$AA1?$AA?9?$AA1?$AA?9?$AA0?$AA?$AA@ 0000000180046840     libucrt:winapi_thunks.obj
 0002:00005880       ??_C@_1DM@KGHDGBCM@?$AAa?$AAp?$AAi?$AA?9?$AAm?$AAs?$AA?9?$AAw?$AAi?$AAn?$AA?9?$AAc?$AAo?$AAr?$AAe?$AA?9?$AAx?$AAs?$AAt?$AAa?$AAt?$AAe?$AA?9?$AAl?$AA2?$AA?9?$AA1?$AA?9?$AA0?$AA?$AA@ 0000000180046880     libucrt:winapi_thunks.obj
 0002:000058c0       ??_C@_1EO@IJIOEFOH@?$AAa?$AAp?$AAi?$AA?9?$AAm?$AAs?$AA?9?$AAw?$AAi?$AAn?$AA?9?$AAr?$AAt?$AAc?$AAo?$AAr?$AAe?$AA?9?$AAn?$AAt?$AAu?$AAs?$AAe?$AAr?$AA?9?$AAw?$AAi?$AAn?$AAd?$AAo?$AAw?$AA?9@ 00000001800468c0     libucrt:winapi_thunks.obj
 0002:00005910       ??_C@_1FG@HHGEKANL@?$AAa?$AAp?$AAi?$AA?9?$AAm?$AAs?$AA?9?$AAw?$AAi?$AAn?$AA?9?$AAs?$AAe?$AAc?$AAu?$AAr?$AAi?$AAt?$AAy?$AA?9?$AAs?$AAy?$AAs?$AAt?$AAe?$AAm?$AAf?$AAu?$AAn?$AAc?$AAt?$AAi@ 0000000180046910     libucrt:winapi_thunks.obj
 0002:00005970       ??_C@_1EG@DBIOJECG@?$AAe?$AAx?$AAt?$AA?9?$AAm?$AAs?$AA?9?$AAw?$AAi?$AAn?$AA?9?$AAn?$AAt?$AAu?$AAs?$AAe?$AAr?$AA?9?$AAd?$AAi?$AAa?$AAl?$AAo?$AAg?$AAb?$AAo?$AAx?$AA?9?$AAl?$AA1?$AA?9?$AA1@ 0000000180046970     libucrt:winapi_thunks.obj
 0002:000059c0       ??_C@_1EO@FIHMJCLF@?$AAe?$AAx?$AAt?$AA?9?$AAm?$AAs?$AA?9?$AAw?$AAi?$AAn?$AA?9?$AAn?$AAt?$AAu?$AAs?$AAe?$AAr?$AA?9?$AAw?$AAi?$AAn?$AAd?$AAo?$AAw?$AAs?$AAt?$AAa?$AAt?$AAi?$AAo?$AAn?$AA?9@ 00000001800469c0     libucrt:winapi_thunks.obj
 0002:00005a10       ??_C@_1M@OAIMIKLP@?$AAn?$AAt?$AAd?$AAl?$AAl?$AA?$AA@ 0000000180046a10     libucrt:winapi_thunks.obj
 0002:00005a20       ??_C@_1EG@DPGNFKGC@?$AAa?$AAp?$AAi?$AA?9?$AAm?$AAs?$AA?9?$AAw?$AAi?$AAn?$AA?9?$AAa?$AAp?$AAp?$AAm?$AAo?$AAd?$AAe?$AAl?$AA?9?$AAr?$AAu?$AAn?$AAt?$AAi?$AAm?$AAe?$AA?9?$AAl?$AA1?$AA?9?$AA1@ 0000000180046a20     libucrt:winapi_thunks.obj
 0002:00005a68       ??_C@_1O@BCCLBEOE@?$AAu?$AAs?$AAe?$AAr?$AA3?$AA2?$AA?$AA@ 0000000180046a68     libucrt:winapi_thunks.obj
 0002:00005a78       ??_C@_1BA@PFFKHIOG@?$AAa?$AAp?$AAi?$AA?9?$AAm?$AAs?$AA?9?$AA?$AA@ 0000000180046a78     libucrt:winapi_thunks.obj
 0002:00005a88       ??_C@_1BA@IAIFMGEF@?$AAe?$AAx?$AAt?$AA?9?$AAm?$AAs?$AA?9?$AA?$AA@ 0000000180046a88     libucrt:winapi_thunks.obj
 0002:00005aa0       ??_C@_0BA@FHFNEAED@AreFileApisANSI?$AA@ 0000000180046aa0     libucrt:winapi_thunks.obj
 0002:00005ae0       ??_C@_0O@KKBNKAPF@LCMapStringEx?$AA@ 0000000180046ae0     libucrt:winapi_thunks.obj
 0002:00005af8       ??_C@_0BB@HBDEELFH@LocaleNameToLCID?$AA@ 0000000180046af8     libucrt:winapi_thunks.obj
 0002:00005b10       ??_C@_0CF@OJOFEIGO@AppPolicyGetProcessTerminationMe@ 0000000180046b10     libucrt:winapi_thunks.obj
 0002:00005b40       __lc_time_c                0000000180046b40     libucrt:nlsdata.obj
 0002:00005e00       ??_C@_03KOEHGMDN@Sun?$AA@  0000000180046e00     libucrt:nlsdata.obj
 0002:00005e04       ??_C@_03PDAGKDH@Mon?$AA@   0000000180046e04     libucrt:nlsdata.obj
 0002:00005e08       ??_C@_03NAGEINEP@Tue?$AA@  0000000180046e08     libucrt:nlsdata.obj
 0002:00005e0c       ??_C@_03MHOMLAJA@Wed?$AA@  0000000180046e0c     libucrt:nlsdata.obj
 0002:00005e10       ??_C@_03IOFIKPDN@Thu?$AA@  0000000180046e10     libucrt:nlsdata.obj
 0002:00005e14       ??_C@_03IDIOELNC@Fri?$AA@  0000000180046e14     libucrt:nlsdata.obj
 0002:00005e18       ??_C@_03FEFJNEK@Sat?$AA@   0000000180046e18     libucrt:nlsdata.obj
 0002:00005e1c       ??_C@_06OOPIFAJ@Sunday?$AA@ 0000000180046e1c     libucrt:nlsdata.obj
 0002:00005e24       ??_C@_06JLEDEDGH@Monday?$AA@ 0000000180046e24     libucrt:nlsdata.obj
 0002:00005e30       ??_C@_07BAAGCFCM@Tuesday?$AA@ 0000000180046e30     libucrt:nlsdata.obj
 0002:00005e38       ??_C@_09DLIGFAKA@Wednesday?$AA@ 0000000180046e38     libucrt:nlsdata.obj
 0002:00005e48       ??_C@_08HACCIKIA@Thursday?$AA@ 0000000180046e48     libucrt:nlsdata.obj
 0002:00005e54       ??_C@_06JECMNKMI@Friday?$AA@ 0000000180046e54     libucrt:nlsdata.obj
 0002:00005e60       ??_C@_08INBOOONO@Saturday?$AA@ 0000000180046e60     libucrt:nlsdata.obj
 0002:00005e6c       ??_C@_03JIHJHPIE@Jan?$AA@  0000000180046e6c     libucrt:nlsdata.obj
 0002:00005e70       ??_C@_03HJBDCHOM@Feb?$AA@  0000000180046e70     libucrt:nlsdata.obj
 0002:00005e74       ??_C@_03ODNJBKGA@Mar?$AA@  0000000180046e74     libucrt:nlsdata.obj
 0002:00005e78       ??_C@_03LEOLGMJP@Apr?$AA@  0000000180046e78     libucrt:nlsdata.obj
 0002:00005e7c       ??_C@_03CNMDKL@May?$AA@    0000000180046e7c     libucrt:nlsdata.obj
 0002:00005e80       ??_C@_03IDFGHECI@Jun?$AA@  0000000180046e80     libucrt:nlsdata.obj
 0002:00005e84       ??_C@_03LBGABGKK@Jul?$AA@  0000000180046e84     libucrt:nlsdata.obj
 0002:00005e88       ??_C@_03IFJFEIGA@Aug?$AA@  0000000180046e88     libucrt:nlsdata.obj
 0002:00005e8c       ??_C@_03GGCAPAJC@Sep?$AA@  0000000180046e8c     libucrt:nlsdata.obj
 0002:00005e90       ??_C@_03BMAOKBAD@Oct?$AA@  0000000180046e90     libucrt:nlsdata.obj
 0002:00005e94       ??_C@_03JPJOFNIA@Nov?$AA@  0000000180046e94     libucrt:nlsdata.obj
 0002:00005e98       ??_C@_03MKABNOCG@Dec?$AA@  0000000180046e98     libucrt:nlsdata.obj
 0002:00005ea0       ??_C@_07CGJPFGJA@January?$AA@ 0000000180046ea0     libucrt:nlsdata.obj
 0002:00005ea8       ??_C@_08GNJGEPFN@February?$AA@ 0000000180046ea8     libucrt:nlsdata.obj
 0002:00005eb4       ??_C@_05HPCKOFNC@March?$AA@ 0000000180046eb4     libucrt:nlsdata.obj
 0002:00005ebc       ??_C@_05DMJDNLEJ@April?$AA@ 0000000180046ebc     libucrt:nlsdata.obj
 0002:00005ec4       ??_C@_04CNLMGBGM@June?$AA@ 0000000180046ec4     libucrt:nlsdata.obj
 0002:00005ecc       ??_C@_04MIEPOIFP@July?$AA@ 0000000180046ecc     libucrt:nlsdata.obj
 0002:00005ed4       ??_C@_06LBBHFDDG@August?$AA@ 0000000180046ed4     libucrt:nlsdata.obj
 0002:00005ee0       ??_C@_09BHHEALKD@September?$AA@ 0000000180046ee0     libucrt:nlsdata.obj
 0002:00005ef0       ??_C@_07JJNFCEND@October?$AA@ 0000000180046ef0     libucrt:nlsdata.obj
 0002:00005ef8       ??_C@_08HCHEGEOA@November?$AA@ 0000000180046ef8     libucrt:nlsdata.obj
 0002:00005f08       ??_C@_08EDHMEBNP@December?$AA@ 0000000180046f08     libucrt:nlsdata.obj
 0002:00005f14       ??_C@_02DEDBPAFC@AM?$AA@   0000000180046f14     libucrt:nlsdata.obj
 0002:00005f18       ??_C@_02CJNFDJBF@PM?$AA@   0000000180046f18     libucrt:nlsdata.obj
 0002:00005f20       ??_C@_08BPBNCDIB@MM?1dd?1yy?$AA@ 0000000180046f20     libucrt:nlsdata.obj
 0002:00005f30       ??_C@_0BE@CKGJFCPC@dddd?0?5MMMM?5dd?0?5yyyy?$AA@ 0000000180046f30     libucrt:nlsdata.obj
 0002:00005f48       ??_C@_08JCCMCCIL@HH?3mm?3ss?$AA@ 0000000180046f48     libucrt:nlsdata.obj
 0002:00005f58       ??_C@_17MBGCMIPB@?$AAS?$AAu?$AAn?$AA?$AA@ 0000000180046f58     libucrt:nlsdata.obj
 0002:00005f60       ??_C@_17KBOMKBF@?$AAM?$AAo?$AAn?$AA?$AA@ 0000000180046f60     libucrt:nlsdata.obj
 0002:00005f68       ??_C@_17BMKGEGOJ@?$AAT?$AAu?$AAe?$AA?$AA@ 0000000180046f68     libucrt:nlsdata.obj
 0002:00005f70       ??_C@_17CJEDCEPE@?$AAW?$AAe?$AAd?$AA?$AA@ 0000000180046f70     libucrt:nlsdata.obj
 0002:00005f78       ??_C@_17PDPHAADD@?$AAT?$AAh?$AAu?$AA?$AA@ 0000000180046f78     libucrt:nlsdata.obj
 0002:00005f80       ??_C@_17HFOLPPLP@?$AAF?$AAr?$AAi?$AA?$AA@ 0000000180046f80     libucrt:nlsdata.obj
 0002:00005f88       ??_C@_17GGIBDPIH@?$AAS?$AAa?$AAt?$AA?$AA@ 0000000180046f88     libucrt:nlsdata.obj
 0002:00005f90       ??_C@_1O@IHNHDHPB@?$AAS?$AAu?$AAn?$AAd?$AAa?$AAy?$AA?$AA@ 0000000180046f90     libucrt:nlsdata.obj
 0002:00005fa0       ??_C@_1O@MMNBFLIA@?$AAM?$AAo?$AAn?$AAd?$AAa?$AAy?$AA?$AA@ 0000000180046fa0     libucrt:nlsdata.obj
 0002:00005fb0       ??_C@_1BA@ENFBFFEK@?$AAT?$AAu?$AAe?$AAs?$AAd?$AAa?$AAy?$AA?$AA@ 0000000180046fb0     libucrt:nlsdata.obj
 0002:00005fc0       ??_C@_1BE@EBOGMDOH@?$AAW?$AAe?$AAd?$AAn?$AAe?$AAs?$AAd?$AAa?$AAy?$AA?$AA@ 0000000180046fc0     libucrt:nlsdata.obj
 0002:00005fd8       ??_C@_1BC@HHMNLIHE@?$AAT?$AAh?$AAu?$AAr?$AAs?$AAd?$AAa?$AAy?$AA?$AA@ 0000000180046fd8     libucrt:nlsdata.obj
 0002:00005ff0       ??_C@_1O@PDICJHAG@?$AAF?$AAr?$AAi?$AAd?$AAa?$AAy?$AA?$AA@ 0000000180046ff0     libucrt:nlsdata.obj
 0002:00006000       ??_C@_1BC@ENMNNPAJ@?$AAS?$AAa?$AAt?$AAu?$AAr?$AAd?$AAa?$AAy?$AA?$AA@ 0000000180047000     libucrt:nlsdata.obj
 0002:00006018       ??_C@_17DKNBKCHM@?$AAJ?$AAa?$AAn?$AA?$AA@ 0000000180047018     libucrt:nlsdata.obj
 0002:00006020       ??_C@_17LMDJEKJN@?$AAF?$AAe?$AAb?$AA?$AA@ 0000000180047020     libucrt:nlsdata.obj
 0002:00006028       ??_C@_17CKNLEDEC@?$AAM?$AAa?$AAr?$AA?$AA@ 0000000180047028     libucrt:nlsdata.obj
 0002:00006030       ??_C@_17LFPOIHDD@?$AAA?$AAp?$AAr?$AA?$AA@ 0000000180047030     libucrt:nlsdata.obj
 0002:00006038       ??_C@_17PNNKMEED@?$AAM?$AAa?$AAy?$AA?$AA@ 0000000180047038     libucrt:nlsdata.obj
 0002:00006040       ??_C@_17KCJGOCPB@?$AAJ?$AAu?$AAn?$AA?$AA@ 0000000180047040     libucrt:nlsdata.obj
 0002:00006048       ??_C@_17IJPCKHK@?$AAJ?$AAu?$AAl?$AA?$AA@ 0000000180047048     libucrt:nlsdata.obj
 0002:00006050       ??_C@_17ICPELBCN@?$AAA?$AAu?$AAg?$AA?$AA@ 0000000180047050     libucrt:nlsdata.obj
 0002:00006058       ??_C@_17HCHCOKMG@?$AAS?$AAe?$AAp?$AA?$AA@ 0000000180047058     libucrt:nlsdata.obj
 0002:00006060       ??_C@_17FNLKOI@?$AAO?$AAc?$AAt?$AA?$AA@ 0000000180047060     libucrt:nlsdata.obj
 0002:00006068       ??_C@_17BBDMLCIG@?$AAN?$AAo?$AAv?$AA?$AA@ 0000000180047068     libucrt:nlsdata.obj
 0002:00006070       ??_C@_17EGKACKIF@?$AAD?$AAe?$AAc?$AA?$AA@ 0000000180047070     libucrt:nlsdata.obj
 0002:00006078       ??_C@_1BA@EFMEIEBA@?$AAJ?$AAa?$AAn?$AAu?$AAa?$AAr?$AAy?$AA?$AA@ 0000000180047078     libucrt:nlsdata.obj
 0002:00006088       ??_C@_1BC@JGDDFFAM@?$AAF?$AAe?$AAb?$AAr?$AAu?$AAa?$AAr?$AAy?$AA?$AA@ 0000000180047088     libucrt:nlsdata.obj
 0002:000060a0       ??_C@_1M@IKEENEDF@?$AAM?$AAa?$AAr?$AAc?$AAh?$AA?$AA@ 00000001800470a0     libucrt:nlsdata.obj
 0002:000060b0       ??_C@_1M@GJNLMHFD@?$AAA?$AAp?$AAr?$AAi?$AAl?$AA?$AA@ 00000001800470b0     libucrt:nlsdata.obj
 0002:000060c0       ??_C@_19EPFLPGAP@?$AAJ?$AAu?$AAn?$AAe?$AA?$AA@ 00000001800470c0     libucrt:nlsdata.obj
 0002:000060d0       ??_C@_19BIFMLPCD@?$AAJ?$AAu?$AAl?$AAy?$AA?$AA@ 00000001800470d0     libucrt:nlsdata.obj
 0002:000060e0       ??_C@_1O@PAHLKOAC@?$AAA?$AAu?$AAg?$AAu?$AAs?$AAt?$AA?$AA@ 00000001800470e0     libucrt:nlsdata.obj
 0002:000060f0       ??_C@_1BE@DKAAMBJL@?$AAS?$AAe?$AAp?$AAt?$AAe?$AAm?$AAb?$AAe?$AAr?$AA?$AA@ 00000001800470f0     libucrt:nlsdata.obj
 0002:00006108       ??_C@_1BA@EPANDLNG@?$AAO?$AAc?$AAt?$AAo?$AAb?$AAe?$AAr?$AA?$AA@ 0000000180047108     libucrt:nlsdata.obj
 0002:00006118       ??_C@_1BC@BGLIFPF@?$AAN?$AAo?$AAv?$AAe?$AAm?$AAb?$AAe?$AAr?$AA?$AA@ 0000000180047118     libucrt:nlsdata.obj
 0002:00006130       ??_C@_1BC@FEMKIFH@?$AAD?$AAe?$AAc?$AAe?$AAm?$AAb?$AAe?$AAr?$AA?$AA@ 0000000180047130     libucrt:nlsdata.obj
 0002:00006144       ??_C@_15ODEHAHHF@?$AAA?$AAM?$AA?$AA@ 0000000180047144     libucrt:nlsdata.obj
 0002:0000614c       ??_C@_15CLMNNGEL@?$AAP?$AAM?$AA?$AA@ 000000018004714c     libucrt:nlsdata.obj
 0002:00006158       ??_C@_1BC@IEBCMHCM@?$AAM?$AAM?$AA?1?$AAd?$AAd?$AA?1?$AAy?$AAy?$AA?$AA@ 0000000180047158     libucrt:nlsdata.obj
 0002:00006170       ??_C@_1CI@KNAKOEBC@?$AAd?$AAd?$AAd?$AAd?$AA?0?$AA?5?$AAM?$AAM?$AAM?$AAM?$AA?5?$AAd?$AAd?$AA?0?$AA?5?$AAy?$AAy?$AAy?$AAy?$AA?$AA@ 0000000180047170     libucrt:nlsdata.obj
 0002:00006198       ??_C@_1BC@GDGBMEMK@?$AAH?$AAH?$AA?3?$AAm?$AAm?$AA?3?$AAs?$AAs?$AA?$AA@ 0000000180047198     libucrt:nlsdata.obj
 0002:000061b0       ??_C@_1M@BMHNFIME@?$AAe?$AAn?$AA?9?$AAU?$AAS?$AA?$AA@ 00000001800471b0     libucrt:nlsdata.obj
 0002:000061bc       ??_C@_03OEIAHPBN@INF?$AA@  00000001800471bc     libucrt:cvt.obj
 0002:000061c0       ??_C@_03OJHLLCGB@inf?$AA@  00000001800471c0     libucrt:cvt.obj
 0002:000061c4       ??_C@_03LKNCIKJB@NAN?$AA@  00000001800471c4     libucrt:cvt.obj
 0002:000061c8       ??_C@_03LHCJEHON@nan?$AA@  00000001800471c8     libucrt:cvt.obj
 0002:000061d0       ??_C@_09OFJJIMPC@NAN?$CISNAN?$CJ?$AA@ 00000001800471d0     libucrt:cvt.obj
 0002:000061e0       ??_C@_09IPFBKMDL@nan?$CIsnan?$CJ?$AA@ 00000001800471e0     libucrt:cvt.obj
 0002:000061f0       ??_C@_08IKHNHAJ@NAN?$CIIND?$CJ?$AA@ 00000001800471f0     libucrt:cvt.obj
 0002:00006200       ??_C@_08OFCDMILK@nan?$CIind?$CJ?$AA@ 0000000180047200     libucrt:cvt.obj
 0002:0000620c       ??_C@_05KLBDPFGC@e?$CL000?$AA@ 000000018004720c     libucrt:cvt.obj
 0002:00006220       __newctype                 0000000180047220     libucrt:ctype.obj
 0002:00006520       __newclmap                 0000000180047520     libucrt:ctype.obj
 0002:000066a0       __newcumap                 00000001800476a0     libucrt:ctype.obj
 0002:00006830       ??_C@_05HGHHAHAP@log10?$AA@ 0000000180047830     libucrt:fpexcept.obj
 0002:00007680       ??_C@_15EMKDOKLE@?$AAa?$AAr?$AA?$AA@ 0000000180048680     libucrt:lcidtoname_downlevel.obj
 0002:00007688       ??_C@_15KNPADPLH@?$AAb?$AAg?$AA?$AA@ 0000000180048688     libucrt:lcidtoname_downlevel.obj
 0002:00007690       ??_C@_15EDMHLDMO@?$AAc?$AAa?$AA?$AA@ 0000000180048690     libucrt:lcidtoname_downlevel.obj
 0002:00007698       ??_C@_1O@BPEAJADD@?$AAz?$AAh?$AA?9?$AAC?$AAH?$AAS?$AA?$AA@ 0000000180048698     libucrt:lcidtoname_downlevel.obj
 0002:000076a8       ??_C@_15LJNHCMNK@?$AAc?$AAs?$AA?$AA@ 00000001800486a8     libucrt:lcidtoname_downlevel.obj
 0002:000076b0       ??_C@_15FOMCIDHG@?$AAd?$AAa?$AA?$AA@ 00000001800486b0     libucrt:lcidtoname_downlevel.obj
 0002:000076b8       ??_C@_15NBKABECB@?$AAd?$AAe?$AA?$AA@ 00000001800486b8     libucrt:lcidtoname_downlevel.obj
 0002:000076c0       ??_C@_15GHPEIIAO@?$AAe?$AAl?$AA?$AA@ 00000001800486c0     libucrt:lcidtoname_downlevel.obj
 0002:000076c8       ??_C@_15MNPNEAIF@?$AAe?$AAn?$AA?$AA@ 00000001800486c8     libucrt:lcidtoname_downlevel.obj
 0002:000076d0       ??_C@_15GPIOMPMH@?$AAe?$AAs?$AA?$AA@ 00000001800486d0     libucrt:lcidtoname_downlevel.obj
 0002:000076d8       ??_C@_15NGLOAKJC@?$AAf?$AAi?$AA?$AA@ 00000001800486d8     libucrt:lcidtoname_downlevel.obj
 0002:000076e0       ??_C@_15FBKGNKAM@?$AAf?$AAr?$AA?$AA@ 00000001800486e0     libucrt:lcidtoname_downlevel.obj
 0002:000076e8       ??_C@_15KGGCNEFK@?$AAh?$AAe?$AA?$AA@ 00000001800486e8     libucrt:lcidtoname_downlevel.obj
 0002:000076f0       ??_C@_15PGHLIDMF@?$AAh?$AAu?$AA?$AA@ 00000001800486f0     libucrt:lcidtoname_downlevel.obj
 0002:000076f8       ??_C@_15BIEMAPLM@?$AAi?$AAs?$AA?$AA@ 00000001800486f8     libucrt:lcidtoname_downlevel.obj
 0002:00007700       ??_C@_15IFJLDHAF@?$AAi?$AAt?$AA?$AA@ 0000000180048700     libucrt:lcidtoname_downlevel.obj
 0002:00007708       ??_C@_15GEMIOCAG@?$AAj?$AAa?$AA?$AA@ 0000000180048708     libucrt:lcidtoname_downlevel.obj
 0002:00007710       ??_C@_15EPELEGJA@?$AAk?$AAo?$AA?$AA@ 0000000180048710     libucrt:lcidtoname_downlevel.obj
 0002:00007718       ??_C@_15NDDHIMN@?$AAn?$AAl?$AA?$AA@ 0000000180048718     libucrt:lcidtoname_downlevel.obj
 0002:00007720       ??_C@_15BPIGNHCD@?$AAn?$AAo?$AA?$AA@ 0000000180048720     libucrt:lcidtoname_downlevel.obj
 0002:00007728       ??_C@_15DEOPBLCG@?$AAp?$AAl?$AA?$AA@ 0000000180048728     libucrt:lcidtoname_downlevel.obj
 0002:00007730       ??_C@_15KBECGEFG@?$AAp?$AAt?$AA?$AA@ 0000000180048730     libucrt:lcidtoname_downlevel.obj
 0002:00007738       ??_C@_15GLJCBFMD@?$AAr?$AAo?$AA?$AA@ 0000000180048738     libucrt:lcidtoname_downlevel.obj
 0002:00007740       ??_C@_15FEDGKCDI@?$AAr?$AAu?$AA?$AA@ 0000000180048740     libucrt:lcidtoname_downlevel.obj
 0002:00007748       ??_C@_15GLKMLLHM@?$AAh?$AAr?$AA?$AA@ 0000000180048748     libucrt:lcidtoname_downlevel.obj
 0002:00007750       ??_C@_15CPKMFBDB@?$AAs?$AAk?$AA?$AA@ 0000000180048750     libucrt:lcidtoname_downlevel.obj
 0002:00007758       ??_C@_15BAAIOGMK@?$AAs?$AAq?$AA?$AA@ 0000000180048758     libucrt:lcidtoname_downlevel.obj
 0002:00007760       ??_C@_15INNPNOHD@?$AAs?$AAv?$AA?$AA@ 0000000180048760     libucrt:lcidtoname_downlevel.obj
 0002:00007768       ??_C@_15CABMMOGH@?$AAt?$AAh?$AA?$AA@ 0000000180048768     libucrt:lcidtoname_downlevel.obj
 0002:00007770       ??_C@_15BPLIHJJM@?$AAt?$AAr?$AA?$AA@ 0000000180048770     libucrt:lcidtoname_downlevel.obj
 0002:00007778       ??_C@_15NEOEKKDJ@?$AAu?$AAr?$AA?$AA@ 0000000180048778     libucrt:lcidtoname_downlevel.obj
 0002:00007780       ??_C@_15NFICGAJK@?$AAi?$AAd?$AA?$AA@ 0000000180048780     libucrt:lcidtoname_downlevel.obj
 0002:00007788       ??_C@_15PJPFLCCM@?$AAu?$AAk?$AA?$AA@ 0000000180048788     libucrt:lcidtoname_downlevel.obj
 0002:00007790       ??_C@_15HPJPHDM@?$AAb?$AAe?$AA?$AA@ 0000000180048790     libucrt:lcidtoname_downlevel.obj
 0002:00007798       ??_C@_15LCHLGJII@?$AAs?$AAl?$AA?$AA@ 0000000180048798     libucrt:lcidtoname_downlevel.obj
 0002:000077a0       ??_C@_15PCFJPHHO@?$AAe?$AAt?$AA?$AA@ 00000001800487a0     libucrt:lcidtoname_downlevel.obj
 0002:000077a8       ??_C@_15HPFPGODN@?$AAl?$AAv?$AA?$AA@ 00000001800487a8     libucrt:lcidtoname_downlevel.obj
 0002:000077b0       ??_C@_15NFFGKGLG@?$AAl?$AAt?$AA?$AA@ 00000001800487b0     libucrt:lcidtoname_downlevel.obj
 0002:000077b8       ??_C@_15BDAKCCHN@?$AAf?$AAa?$AA?$AA@ 00000001800487b8     libucrt:lcidtoname_downlevel.obj
 0002:000077c0       ??_C@_15NFGIAIAJ@?$AAv?$AAi?$AA?$AA@ 00000001800487c0     libucrt:lcidtoname_downlevel.obj
 0002:000077c8       ??_C@_15LMKNDMHN@?$AAh?$AAy?$AA?$AA@ 00000001800487c8     libucrt:lcidtoname_downlevel.obj
 0002:000077d0       ??_C@_15IJBHMCFL@?$AAa?$AAz?$AA?$AA@ 00000001800487d0     libucrt:lcidtoname_downlevel.obj
 0002:000077d8       ??_C@_15EKOFJABL@?$AAe?$AAu?$AA?$AA@ 00000001800487d8     libucrt:lcidtoname_downlevel.obj
 0002:000077e0       ??_C@_15BGHADCNK@?$AAm?$AAk?$AA?$AA@ 00000001800487e0     libucrt:lcidtoname_downlevel.obj
 0002:000077e8       ??_C@_15JDNICKHM@?$AAa?$AAf?$AA?$AA@ 00000001800487e8     libucrt:lcidtoname_downlevel.obj
 0002:000077f0       ??_C@_15KPJEDBKD@?$AAk?$AAa?$AA?$AA@ 00000001800487f0     libucrt:lcidtoname_downlevel.obj
 0002:000077f8       ??_C@_15PDNFFFEO@?$AAf?$AAo?$AA?$AA@ 00000001800487f8     libucrt:lcidtoname_downlevel.obj
 0002:00007800       ??_C@_15OMLEGLOC@?$AAh?$AAi?$AA?$AA@ 0000000180048800     libucrt:lcidtoname_downlevel.obj
 0002:00007808       ??_C@_15IDNNENKK@?$AAm?$AAs?$AA?$AA@ 0000000180048808     libucrt:lcidtoname_downlevel.obj
 0002:00007810       ??_C@_15MACJNBMH@?$AAk?$AAk?$AA?$AA@ 0000000180048810     libucrt:lcidtoname_downlevel.obj
 0002:00007818       ??_C@_15DKDJEOND@?$AAk?$AAy?$AA?$AA@ 0000000180048818     libucrt:lcidtoname_downlevel.obj
 0002:00007820       ??_C@_15DFGDLJBG@?$AAs?$AAw?$AA?$AA@ 0000000180048820     libucrt:lcidtoname_downlevel.obj
 0002:00007828       ??_C@_15BBFAICNG@?$AAu?$AAz?$AA?$AA@ 0000000180048828     libucrt:lcidtoname_downlevel.obj
 0002:00007830       ??_C@_15DKNDCGEA@?$AAt?$AAt?$AA?$AA@ 0000000180048830     libucrt:lcidtoname_downlevel.obj
 0002:00007838       ??_C@_15MGIFMDPL@?$AAp?$AAa?$AA?$AA@ 0000000180048838     libucrt:lcidtoname_downlevel.obj
 0002:00007840       ??_C@_15HCNDBBA@?$AAg?$AAu?$AA?$AA@ 0000000180048840     libucrt:lcidtoname_downlevel.obj
 0002:00007848       ??_C@_15FNBEIBON@?$AAt?$AAa?$AA?$AA@ 0000000180048848     libucrt:lcidtoname_downlevel.obj
 0002:00007850       ??_C@_15NCHGBGLK@?$AAt?$AAe?$AA?$AA@ 0000000180048850     libucrt:lcidtoname_downlevel.obj
 0002:00007858       ??_C@_15PHPHCBPF@?$AAk?$AAn?$AA?$AA@ 0000000180048858     libucrt:lcidtoname_downlevel.obj
 0002:00007860       ??_C@_15DLGBCKMP@?$AAm?$AAr?$AA?$AA@ 0000000180048860     libucrt:lcidtoname_downlevel.obj
 0002:00007868       ??_C@_15EABBLBFF@?$AAs?$AAa?$AA?$AA@ 0000000180048868     libucrt:lcidtoname_downlevel.obj
 0002:00007870       ??_C@_15CBKOMCOI@?$AAm?$AAn?$AA?$AA@ 0000000180048870     libucrt:lcidtoname_downlevel.obj
 0002:00007878       ??_C@_15CKDMCJAF@?$AAg?$AAl?$AA?$AA@ 0000000180048878     libucrt:lcidtoname_downlevel.obj
 0002:00007880       ??_C@_17CNJFBPG@?$AAk?$AAo?$AAk?$AA?$AA@ 0000000180048880     libucrt:lcidtoname_downlevel.obj
 0002:00007888       ??_C@_17FFBJICPL@?$AAs?$AAy?$AAr?$AA?$AA@ 0000000180048888     libucrt:lcidtoname_downlevel.obj
 0002:00007890       ??_C@_17KPNDCPAF@?$AAd?$AAi?$AAv?$AA?$AA@ 0000000180048890     libucrt:lcidtoname_downlevel.obj
 0002:00007898       ??_C@_11LOCGONAA@?$AA?$AA@ 0000000180048898     libucrt:lcidtoname_downlevel.obj
 0002:000078a0       ??_C@_1M@OKAHONE@?$AAa?$AAr?$AA?9?$AAS?$AAA?$AA?$AA@ 00000001800488a0     libucrt:lcidtoname_downlevel.obj
 0002:000078b0       ??_C@_1M@FFFIGIGK@?$AAb?$AAg?$AA?9?$AAB?$AAG?$AA?$AA@ 00000001800488b0     libucrt:lcidtoname_downlevel.obj
 0002:000078c0       ??_C@_1M@BJNKEDC@?$AAc?$AAa?$AA?9?$AAE?$AAS?$AA?$AA@ 00000001800488c0     libucrt:lcidtoname_downlevel.obj
 0002:000078d0       ??_C@_1M@IJJHFJHA@?$AAc?$AAs?$AA?9?$AAC?$AAZ?$AA?$AA@ 00000001800488d0     libucrt:lcidtoname_downlevel.obj
 0002:000078e0       ??_C@_1M@CLPEOBGI@?$AAd?$AAa?$AA?9?$AAD?$AAK?$AA?$AA@ 00000001800488e0     libucrt:lcidtoname_downlevel.obj
 0002:000078f0       ??_C@_1M@MCMADGCB@?$AAd?$AAe?$AA?9?$AAD?$AAE?$AA?$AA@ 00000001800488f0     libucrt:lcidtoname_downlevel.obj
 0002:00007900       ??_C@_1M@OOCKEMAM@?$AAe?$AAl?$AA?9?$AAG?$AAR?$AA?$AA@ 0000000180048900     libucrt:lcidtoname_downlevel.obj
 0002:00007910       ??_C@_1M@DDNJFGID@?$AAf?$AAi?$AA?9?$AAF?$AAI?$AA?$AA@ 0000000180048910     libucrt:lcidtoname_downlevel.obj
 0002:00007920       ??_C@_1M@GLIPPMAC@?$AAf?$AAr?$AA?9?$AAF?$AAR?$AA?$AA@ 0000000180048920     libucrt:lcidtoname_downlevel.obj
 0002:00007930       ??_C@_1M@GFMCHPE@?$AAh?$AAe?$AA?9?$AAI?$AAL?$AA?$AA@ 0000000180048930     libucrt:lcidtoname_downlevel.obj
 0002:00007940       ??_C@_1M@MHLPGNKM@?$AAh?$AAu?$AA?9?$AAH?$AAU?$AA?$AA@ 0000000180048940     libucrt:lcidtoname_downlevel.obj
 0002:00007950       ??_C@_1M@LPDDNNPN@?$AAi?$AAs?$AA?9?$AAI?$AAS?$AA?$AA@ 0000000180048950     libucrt:lcidtoname_downlevel.obj
 0002:00007960       ??_C@_1M@MADIPODN@?$AAi?$AAt?$AA?9?$AAI?$AAT?$AA?$AA@ 0000000180048960     libucrt:lcidtoname_downlevel.obj
 0002:00007970       ??_C@_1M@IHBJJGG@?$AAn?$AAl?$AA?9?$AAN?$AAL?$AA?$AA@ 0000000180048970     libucrt:lcidtoname_downlevel.obj
 0002:00007980       ??_C@_1M@EANAGDL@?$AAn?$AAb?$AA?9?$AAN?$AAO?$AA?$AA@ 0000000180048980     libucrt:lcidtoname_downlevel.obj
 0002:00007990       ??_C@_1M@NEIEMEGP@?$AAp?$AAl?$AA?9?$AAP?$AAL?$AA?$AA@ 0000000180048990     libucrt:lcidtoname_downlevel.obj
 0002:000079a0       ??_C@_1M@BOCFIGEP@?$AAp?$AAt?$AA?9?$AAB?$AAR?$AA?$AA@ 00000001800489a0     libucrt:lcidtoname_downlevel.obj
 0002:000079b0       ??_C@_1M@IMPFOPBG@?$AAr?$AAo?$AA?9?$AAR?$AAO?$AA?$AA@ 00000001800489b0     libucrt:lcidtoname_downlevel.obj
 0002:000079c0       ??_C@_1M@IDNNEJMM@?$AAr?$AAu?$AA?9?$AAR?$AAU?$AA?$AA@ 00000001800489c0     libucrt:lcidtoname_downlevel.obj
 0002:000079d0       ??_C@_1M@LILEEOGM@?$AAh?$AAr?$AA?9?$AAH?$AAR?$AA?$AA@ 00000001800489d0     libucrt:lcidtoname_downlevel.obj
 0002:000079e0       ??_C@_1M@FKIFEHPB@?$AAs?$AAk?$AA?9?$AAS?$AAK?$AA?$AA@ 00000001800489e0     libucrt:lcidtoname_downlevel.obj
 0002:000079f0       ??_C@_1M@LJMAMNPJ@?$AAs?$AAq?$AA?9?$AAA?$AAL?$AA?$AA@ 00000001800489f0     libucrt:lcidtoname_downlevel.obj
 0002:00007a00       ??_C@_1M@GIAKDKJK@?$AAs?$AAv?$AA?9?$AAS?$AAE?$AA?$AA@ 0000000180048a00     libucrt:lcidtoname_downlevel.obj
 0002:00007a10       ??_C@_1M@MKJKIKCL@?$AAt?$AAh?$AA?9?$AAT?$AAH?$AA?$AA@ 0000000180048a10     libucrt:lcidtoname_downlevel.obj
 0002:00007a20       ??_C@_1M@MFLCCMPB@?$AAt?$AAr?$AA?9?$AAT?$AAR?$AA?$AA@ 0000000180048a20     libucrt:lcidtoname_downlevel.obj
 0002:00007a30       ??_C@_1M@OIJHDKJN@?$AAu?$AAr?$AA?9?$AAP?$AAK?$AA?$AA@ 0000000180048a30     libucrt:lcidtoname_downlevel.obj
 0002:00007a40       ??_C@_1M@LHIPCIEK@?$AAi?$AAd?$AA?9?$AAI?$AAD?$AA?$AA@ 0000000180048a40     libucrt:lcidtoname_downlevel.obj
 0002:00007a50       ??_C@_1M@MFMOBGI@?$AAu?$AAk?$AA?9?$AAU?$AAA?$AA?$AA@ 0000000180048a50     libucrt:lcidtoname_downlevel.obj
 0002:00007a60       ??_C@_1M@OBGLJIPL@?$AAb?$AAe?$AA?9?$AAB?$AAY?$AA?$AA@ 0000000180048a60     libucrt:lcidtoname_downlevel.obj
 0002:00007a70       ??_C@_1M@BCFAJEAD@?$AAs?$AAl?$AA?9?$AAS?$AAI?$AA?$AA@ 0000000180048a70     libucrt:lcidtoname_downlevel.obj
 0002:00007a80       ??_C@_1M@FKFFEDDN@?$AAe?$AAt?$AA?9?$AAE?$AAE?$AA?$AA@ 0000000180048a80     libucrt:lcidtoname_downlevel.obj
 0002:00007a90       ??_C@_1M@KGKKAACI@?$AAl?$AAv?$AA?9?$AAL?$AAV?$AA?$AA@ 0000000180048a90     libucrt:lcidtoname_downlevel.obj
 0002:00007aa0       ??_C@_1M@IFGBIJO@?$AAl?$AAt?$AA?9?$AAL?$AAT?$AA?$AA@ 0000000180048aa0     libucrt:lcidtoname_downlevel.obj
 0002:00007ab0       ??_C@_1M@FGEAHEDM@?$AAf?$AAa?$AA?9?$AAI?$AAR?$AA?$AA@ 0000000180048ab0     libucrt:lcidtoname_downlevel.obj
 0002:00007ac0       ??_C@_1M@KBMAIBFN@?$AAv?$AAi?$AA?9?$AAV?$AAN?$AA?$AA@ 0000000180048ac0     libucrt:lcidtoname_downlevel.obj
 0002:00007ad0       ??_C@_1M@GPCBKDJK@?$AAh?$AAy?$AA?9?$AAA?$AAM?$AA?$AA@ 0000000180048ad0     libucrt:lcidtoname_downlevel.obj
 0002:00007ae0       ??_C@_1BG@BECMDDJB@?$AAa?$AAz?$AA?9?$AAA?$AAZ?$AA?9?$AAL?$AAa?$AAt?$AAn?$AA?$AA@ 0000000180048ae0     libucrt:lcidtoname_downlevel.obj
 0002:00007af8       ??_C@_1M@MAOFCAEA@?$AAe?$AAu?$AA?9?$AAE?$AAS?$AA?$AA@ 0000000180048af8     libucrt:lcidtoname_downlevel.obj
 0002:00007b08       ??_C@_1M@IGHABKPI@?$AAm?$AAk?$AA?9?$AAM?$AAK?$AA?$AA@ 0000000180048b08     libucrt:lcidtoname_downlevel.obj
 0002:00007b18       ??_C@_1M@IAIGNEJG@?$AAt?$AAn?$AA?9?$AAZ?$AAA?$AA?$AA@ 0000000180048b18     libucrt:lcidtoname_downlevel.obj
 0002:00007b28       ??_C@_1M@IIJCOJFA@?$AAx?$AAh?$AA?9?$AAZ?$AAA?$AA?$AA@ 0000000180048b28     libucrt:lcidtoname_downlevel.obj
 0002:00007b38       ??_C@_1M@LGPJHNJH@?$AAz?$AAu?$AA?9?$AAZ?$AAA?$AA?$AA@ 0000000180048b38     libucrt:lcidtoname_downlevel.obj
 0002:00007b48       ??_C@_1M@HOKAOIO@?$AAa?$AAf?$AA?9?$AAZ?$AAA?$AA?$AA@ 0000000180048b48     libucrt:lcidtoname_downlevel.obj
 0002:00007b58       ??_C@_1M@DPCLHLIE@?$AAk?$AAa?$AA?9?$AAG?$AAE?$AA?$AA@ 0000000180048b58     libucrt:lcidtoname_downlevel.obj
 0002:00007b68       ??_C@_1M@BLKMHJBI@?$AAf?$AAo?$AA?9?$AAF?$AAO?$AA?$AA@ 0000000180048b68     libucrt:lcidtoname_downlevel.obj
 0002:00007b78       ??_C@_1M@LGGJAPPB@?$AAh?$AAi?$AA?9?$AAI?$AAN?$AA?$AA@ 0000000180048b78     libucrt:lcidtoname_downlevel.obj
 0002:00007b88       ??_C@_1M@FIKPIHFE@?$AAm?$AAt?$AA?9?$AAM?$AAT?$AA?$AA@ 0000000180048b88     libucrt:lcidtoname_downlevel.obj
 0002:00007b98       ??_C@_1M@HEGGPBFA@?$AAs?$AAe?$AA?9?$AAN?$AAO?$AA?$AA@ 0000000180048b98     libucrt:lcidtoname_downlevel.obj
 0002:00007ba8       ??_C@_1M@EIBJEEPA@?$AAm?$AAs?$AA?9?$AAM?$AAY?$AA?$AA@ 0000000180048ba8     libucrt:lcidtoname_downlevel.obj
 0002:00007bb8       ??_C@_1M@FHLBGMPP@?$AAk?$AAk?$AA?9?$AAK?$AAZ?$AA?$AA@ 0000000180048bb8     libucrt:lcidtoname_downlevel.obj
 0002:00007bc8       ??_C@_1M@NGJJLCGI@?$AAk?$AAy?$AA?9?$AAK?$AAG?$AA?$AA@ 0000000180048bc8     libucrt:lcidtoname_downlevel.obj
 0002:00007bd8       ??_C@_1M@GIENNBFC@?$AAs?$AAw?$AA?9?$AAK?$AAE?$AA?$AA@ 0000000180048bd8     libucrt:lcidtoname_downlevel.obj
 0002:00007be8       ??_C@_1BG@NDGMJIMJ@?$AAu?$AAz?$AA?9?$AAU?$AAZ?$AA?9?$AAL?$AAa?$AAt?$AAn?$AA?$AA@ 0000000180048be8     libucrt:lcidtoname_downlevel.obj
 0002:00007c00       ??_C@_1M@IDCCIHBC@?$AAt?$AAt?$AA?9?$AAR?$AAU?$AA?$AA@ 0000000180048c00     libucrt:lcidtoname_downlevel.obj
 0002:00007c10       ??_C@_1M@LOICPMOJ@?$AAb?$AAn?$AA?9?$AAI?$AAN?$AA?$AA@ 0000000180048c10     libucrt:lcidtoname_downlevel.obj
 0002:00007c20       ??_C@_1M@KPKKNEAH@?$AAp?$AAa?$AA?9?$AAI?$AAN?$AA?$AA@ 0000000180048c20     libucrt:lcidtoname_downlevel.obj
 0002:00007c30       ??_C@_1M@PJGPPBOG@?$AAg?$AAu?$AA?9?$AAI?$AAN?$AA?$AA@ 0000000180048c30     libucrt:lcidtoname_downlevel.obj
 0002:00007c40       ??_C@_1M@KMKMOPHI@?$AAt?$AAa?$AA?9?$AAI?$AAN?$AA?$AA@ 0000000180048c40     libucrt:lcidtoname_downlevel.obj
 0002:00007c50       ??_C@_1M@KFEHEPAC@?$AAt?$AAe?$AA?9?$AAI?$AAN?$AA?$AA@ 0000000180048c50     libucrt:lcidtoname_downlevel.obj
 0002:00007c60       ??_C@_1M@CDCLMGHI@?$AAk?$AAn?$AA?9?$AAI?$AAN?$AA?$AA@ 0000000180048c60     libucrt:lcidtoname_downlevel.obj
 0002:00007c70       ??_C@_1M@MIODLDKF@?$AAm?$AAl?$AA?9?$AAI?$AAN?$AA?$AA@ 0000000180048c70     libucrt:lcidtoname_downlevel.obj
 0002:00007c80       ??_C@_1M@PBIEACPO@?$AAm?$AAr?$AA?9?$AAI?$AAN?$AA?$AA@ 0000000180048c80     libucrt:lcidtoname_downlevel.obj
 0002:00007c90       ??_C@_1M@NIDEAGPH@?$AAs?$AAa?$AA?9?$AAI?$AAN?$AA?$AA@ 0000000180048c90     libucrt:lcidtoname_downlevel.obj
 0002:00007ca0       ??_C@_1M@FHIHCBIO@?$AAm?$AAn?$AA?9?$AAM?$AAN?$AA?$AA@ 0000000180048ca0     libucrt:lcidtoname_downlevel.obj
 0002:00007cb0       ??_C@_1M@JAIJPENP@?$AAc?$AAy?$AA?9?$AAG?$AAB?$AA?$AA@ 0000000180048cb0     libucrt:lcidtoname_downlevel.obj
 0002:00007cc0       ??_C@_1M@PHGFBEPN@?$AAg?$AAl?$AA?9?$AAE?$AAS?$AA?$AA@ 0000000180048cc0     libucrt:lcidtoname_downlevel.obj
 0002:00007cd0       ??_C@_1O@KPIPDNCP@?$AAk?$AAo?$AAk?$AA?9?$AAI?$AAN?$AA?$AA@ 0000000180048cd0     libucrt:lcidtoname_downlevel.obj
 0002:00007ce0       ??_C@_1O@KNHJLDJA@?$AAs?$AAy?$AAr?$AA?9?$AAS?$AAY?$AA?$AA@ 0000000180048ce0     libucrt:lcidtoname_downlevel.obj
 0002:00007cf0       ??_C@_1O@MKEKBLAH@?$AAd?$AAi?$AAv?$AA?9?$AAM?$AAV?$AA?$AA@ 0000000180048cf0     libucrt:lcidtoname_downlevel.obj
 0002:00007d00       ??_C@_1O@OHDCKDDF@?$AAq?$AAu?$AAz?$AA?9?$AAB?$AAO?$AA?$AA@ 0000000180048d00     libucrt:lcidtoname_downlevel.obj
 0002:00007d10       ??_C@_1M@LEPJNLFD@?$AAn?$AAs?$AA?9?$AAZ?$AAA?$AA?$AA@ 0000000180048d10     libucrt:lcidtoname_downlevel.obj
 0002:00007d20       ??_C@_1M@OMLEIIJB@?$AAm?$AAi?$AA?9?$AAN?$AAZ?$AA?$AA@ 0000000180048d20     libucrt:lcidtoname_downlevel.obj
 0002:00007d30       ??_C@_1M@PMPEAILG@?$AAa?$AAr?$AA?9?$AAI?$AAQ?$AA?$AA@ 0000000180048d30     libucrt:lcidtoname_downlevel.obj
 0002:00007d40       ??_C@_1M@CNKPNOEE@?$AAd?$AAe?$AA?9?$AAC?$AAH?$AA?$AA@ 0000000180048d40     libucrt:lcidtoname_downlevel.obj
 0002:00007d50       ??_C@_1M@LKMGMLKO@?$AAe?$AAn?$AA?9?$AAG?$AAB?$AA?$AA@ 0000000180048d50     libucrt:lcidtoname_downlevel.obj
 0002:00007d60       ??_C@_1M@PGKJFFGL@?$AAe?$AAs?$AA?9?$AAM?$AAX?$AA?$AA@ 0000000180048d60     libucrt:lcidtoname_downlevel.obj
 0002:00007d70       ??_C@_1M@DNNANBDC@?$AAf?$AAr?$AA?9?$AAB?$AAE?$AA?$AA@ 0000000180048d70     libucrt:lcidtoname_downlevel.obj
 0002:00007d80       ??_C@_1M@HLGMDFHM@?$AAi?$AAt?$AA?9?$AAC?$AAH?$AA?$AA@ 0000000180048d80     libucrt:lcidtoname_downlevel.obj
 0002:00007d90       ??_C@_1M@CLLBGJH@?$AAn?$AAl?$AA?9?$AAB?$AAE?$AA?$AA@ 0000000180048d90     libucrt:lcidtoname_downlevel.obj
 0002:00007da0       ??_C@_1M@BODBOGLF@?$AAn?$AAn?$AA?9?$AAN?$AAO?$AA?$AA@ 0000000180048da0     libucrt:lcidtoname_downlevel.obj
 0002:00007db0       ??_C@_1M@HFFAHKAD@?$AAp?$AAt?$AA?9?$AAP?$AAT?$AA?$AA@ 0000000180048db0     libucrt:lcidtoname_downlevel.obj
 0002:00007dc0       ??_C@_1BG@LNOAKHIE@?$AAs?$AAr?$AA?9?$AAS?$AAP?$AA?9?$AAL?$AAa?$AAt?$AAn?$AA?$AA@ 0000000180048dc0     libucrt:lcidtoname_downlevel.obj
 0002:00007dd8       ??_C@_1M@HBMHBGAK@?$AAs?$AAv?$AA?9?$AAF?$AAI?$AA?$AA@ 0000000180048dd8     libucrt:lcidtoname_downlevel.obj
 0002:00007de8       ??_C@_1BG@DGCJGJBE@?$AAa?$AAz?$AA?9?$AAA?$AAZ?$AA?9?$AAC?$AAy?$AAr?$AAl?$AA?$AA@ 0000000180048de8     libucrt:lcidtoname_downlevel.obj
 0002:00007e00       ??_C@_1M@KEJDAAHB@?$AAs?$AAe?$AA?9?$AAS?$AAE?$AA?$AA@ 0000000180048e00     libucrt:lcidtoname_downlevel.obj
 0002:00007e10       ??_C@_1M@HEIBJJAD@?$AAm?$AAs?$AA?9?$AAB?$AAN?$AA?$AA@ 0000000180048e10     libucrt:lcidtoname_downlevel.obj
 0002:00007e20       ??_C@_1BG@PBGJMCEM@?$AAu?$AAz?$AA?9?$AAU?$AAZ?$AA?9?$AAC?$AAy?$AAr?$AAl?$AA?$AA@ 0000000180048e20     libucrt:lcidtoname_downlevel.obj
 0002:00007e38       ??_C@_1O@LAOBCMDF@?$AAq?$AAu?$AAz?$AA?9?$AAE?$AAC?$AA?$AA@ 0000000180048e38     libucrt:lcidtoname_downlevel.obj
 0002:00007e48       ??_C@_1M@POEEMAIO@?$AAa?$AAr?$AA?9?$AAE?$AAG?$AA?$AA@ 0000000180048e48     libucrt:lcidtoname_downlevel.obj
 0002:00007e58       ??_C@_1M@EFAKDEDL@?$AAz?$AAh?$AA?9?$AAH?$AAK?$AA?$AA@ 0000000180048e58     libucrt:lcidtoname_downlevel.obj
 0002:00007e68       ??_C@_1M@HKKIJHGI@?$AAd?$AAe?$AA?9?$AAA?$AAT?$AA?$AA@ 0000000180048e68     libucrt:lcidtoname_downlevel.obj
 0002:00007e78       ??_C@_1M@KBFBEHJF@?$AAe?$AAn?$AA?9?$AAA?$AAU?$AA?$AA@ 0000000180048e78     libucrt:lcidtoname_downlevel.obj
 0002:00007e88       ??_C@_1M@MNPLFAAH@?$AAe?$AAs?$AA?9?$AAE?$AAS?$AA?$AA@ 0000000180048e88     libucrt:lcidtoname_downlevel.obj
 0002:00007e98       ??_C@_1M@HJOOJFMA@?$AAf?$AAr?$AA?9?$AAC?$AAA?$AA?$AA@ 0000000180048e98     libucrt:lcidtoname_downlevel.obj
 0002:00007ea8       ??_C@_1BG@JPOFPNAB@?$AAs?$AAr?$AA?9?$AAS?$AAP?$AA?9?$AAC?$AAy?$AAr?$AAl?$AA?$AA@ 0000000180048ea8     libucrt:lcidtoname_downlevel.obj
 0002:00007ec0       ??_C@_1M@LNFOCMOB@?$AAs?$AAe?$AA?9?$AAF?$AAI?$AA?$AA@ 0000000180048ec0     libucrt:lcidtoname_downlevel.obj
 0002:00007ed0       ??_C@_1O@MGJBOAMB@?$AAq?$AAu?$AAz?$AA?9?$AAP?$AAE?$AA?$AA@ 0000000180048ed0     libucrt:lcidtoname_downlevel.obj
 0002:00007ee0       ??_C@_1M@GJINLBOK@?$AAa?$AAr?$AA?9?$AAL?$AAY?$AA?$AA@ 0000000180048ee0     libucrt:lcidtoname_downlevel.obj
 0002:00007ef0       ??_C@_1M@GGMNHJNL@?$AAz?$AAh?$AA?9?$AAS?$AAG?$AA?$AA@ 0000000180048ef0     libucrt:lcidtoname_downlevel.obj
 0002:00007f00       ??_C@_1M@HOIKODND@?$AAd?$AAe?$AA?9?$AAL?$AAU?$AA?$AA@ 0000000180048f00     libucrt:lcidtoname_downlevel.obj
 0002:00007f10       ??_C@_1M@DDOCCGFG@?$AAe?$AAn?$AA?9?$AAC?$AAA?$AA?$AA@ 0000000180048f10     libucrt:lcidtoname_downlevel.obj
 0002:00007f20       ??_C@_1M@BNOEMJLF@?$AAe?$AAs?$AA?9?$AAG?$AAT?$AA?$AA@ 0000000180048f20     libucrt:lcidtoname_downlevel.obj
 0002:00007f30       ??_C@_1M@EOGNKEK@?$AAf?$AAr?$AA?9?$AAC?$AAH?$AA?$AA@ 0000000180048f30     libucrt:lcidtoname_downlevel.obj
 0002:00007f40       ??_C@_1M@FLIDJFHL@?$AAh?$AAr?$AA?9?$AAB?$AAA?$AA?$AA@ 0000000180048f40     libucrt:lcidtoname_downlevel.obj
 0002:00007f50       ??_C@_1O@FMCELNAJ@?$AAs?$AAm?$AAj?$AA?9?$AAN?$AAO?$AA?$AA@ 0000000180048f50     libucrt:lcidtoname_downlevel.obj
 0002:00007f60       ??_C@_1M@JHGLJMGJ@?$AAa?$AAr?$AA?9?$AAD?$AAZ?$AA?$AA@ 0000000180048f60     libucrt:lcidtoname_downlevel.obj
 0002:00007f70       ??_C@_1M@JKKFDCNP@?$AAz?$AAh?$AA?9?$AAM?$AAO?$AA?$AA@ 0000000180048f70     libucrt:lcidtoname_downlevel.obj
 0002:00007f80       ??_C@_1M@GEEFALPE@?$AAd?$AAe?$AA?9?$AAL?$AAI?$AA?$AA@ 0000000180048f80     libucrt:lcidtoname_downlevel.obj
 0002:00007f90       ??_C@_1M@IGEOFBG@?$AAe?$AAn?$AA?9?$AAN?$AAZ?$AA?$AA@ 0000000180048f90     libucrt:lcidtoname_downlevel.obj
 0002:00007fa0       ??_C@_1M@KDBONEHP@?$AAe?$AAs?$AA?9?$AAC?$AAR?$AA?$AA@ 0000000180048fa0     libucrt:lcidtoname_downlevel.obj
 0002:00007fb0       ??_C@_1M@FHMDOHNN@?$AAf?$AAr?$AA?9?$AAL?$AAU?$AA?$AA@ 0000000180048fb0     libucrt:lcidtoname_downlevel.obj
 0002:00007fc0       ??_C@_1BG@NFKKMAFG@?$AAb?$AAs?$AA?9?$AAB?$AAA?$AA?9?$AAL?$AAa?$AAt?$AAn?$AA?$AA@ 0000000180048fc0     libucrt:lcidtoname_downlevel.obj
 0002:00007fd8       ??_C@_1O@IMNBEMCI@?$AAs?$AAm?$AAj?$AA?9?$AAS?$AAE?$AA?$AA@ 0000000180048fd8     libucrt:lcidtoname_downlevel.obj
 0002:00007fe8       ??_C@_1M@DHHMBNDP@?$AAa?$AAr?$AA?9?$AAM?$AAA?$AA?$AA@ 0000000180048fe8     libucrt:lcidtoname_downlevel.obj
 0002:00007ff8       ??_C@_1M@BNBLJCGH@?$AAe?$AAn?$AA?9?$AAI?$AAE?$AA?$AA@ 0000000180048ff8     libucrt:lcidtoname_downlevel.obj
 0002:00008008       ??_C@_1M@GEPAFMDL@?$AAe?$AAs?$AA?9?$AAP?$AAA?$AA?$AA@ 0000000180049008     libucrt:lcidtoname_downlevel.obj
 0002:00008018       ??_C@_1M@OJONDMDL@?$AAf?$AAr?$AA?9?$AAM?$AAC?$AA?$AA@ 0000000180049018     libucrt:lcidtoname_downlevel.obj
 0002:00008028       ??_C@_1BG@OBCNFJB@?$AAs?$AAr?$AA?9?$AAB?$AAA?$AA?9?$AAL?$AAa?$AAt?$AAn?$AA?$AA@ 0000000180049028     libucrt:lcidtoname_downlevel.obj
 0002:00008040       ??_C@_1O@KEMEEGPO@?$AAs?$AAm?$AAa?$AA?9?$AAN?$AAO?$AA?$AA@ 0000000180049040     libucrt:lcidtoname_downlevel.obj
 0002:00008050       ??_C@_1M@ELMGFODK@?$AAa?$AAr?$AA?9?$AAT?$AAN?$AA?$AA@ 0000000180049050     libucrt:lcidtoname_downlevel.obj
 0002:00008060       ??_C@_1M@BHDLHFAF@?$AAe?$AAn?$AA?9?$AAZ?$AAA?$AA?$AA@ 0000000180049060     libucrt:lcidtoname_downlevel.obj
 0002:00008070       ??_C@_1M@BMGIGLIF@?$AAe?$AAs?$AA?9?$AAD?$AAO?$AA?$AA@ 0000000180049070     libucrt:lcidtoname_downlevel.obj
 0002:00008080       ??_C@_1BG@CMBHIPBE@?$AAs?$AAr?$AA?9?$AAB?$AAA?$AA?9?$AAC?$AAy?$AAr?$AAl?$AA?$AA@ 0000000180049080     libucrt:lcidtoname_downlevel.obj
 0002:00008098       ??_C@_1O@HEDBLHNP@?$AAs?$AAm?$AAa?$AA?9?$AAS?$AAE?$AA?$AA@ 0000000180049098     libucrt:lcidtoname_downlevel.obj
 0002:000080a8       ??_C@_1M@DAGCADIM@?$AAa?$AAr?$AA?9?$AAO?$AAM?$AA?$AA@ 00000001800490a8     libucrt:lcidtoname_downlevel.obj
 0002:000080b8       ??_C@_1M@FODLMICG@?$AAe?$AAn?$AA?9?$AAJ?$AAM?$AA?$AA@ 00000001800490b8     libucrt:lcidtoname_downlevel.obj
 0002:000080c8       ??_C@_1M@DNMLCIHB@?$AAe?$AAs?$AA?9?$AAV?$AAE?$AA?$AA@ 00000001800490c8     libucrt:lcidtoname_downlevel.obj
 0002:000080d8       ??_C@_1O@EOKHMKJK@?$AAs?$AAm?$AAs?$AA?9?$AAF?$AAI?$AA?$AA@ 00000001800490d8     libucrt:lcidtoname_downlevel.obj
 0002:000080e8       ??_C@_1M@CAFJMKOF@?$AAa?$AAr?$AA?9?$AAY?$AAE?$AA?$AA@ 00000001800490e8     libucrt:lcidtoname_downlevel.obj
 0002:000080f8       ??_C@_1M@CBFHIJLI@?$AAe?$AAn?$AA?9?$AAC?$AAB?$AA?$AA@ 00000001800490f8     libucrt:lcidtoname_downlevel.obj
 0002:00008108       ??_C@_1M@BGNFLDN@?$AAe?$AAs?$AA?9?$AAC?$AAO?$AA?$AA@ 0000000180049108     libucrt:lcidtoname_downlevel.obj
 0002:00008118       ??_C@_1O@JMPHMAMC@?$AAs?$AAm?$AAn?$AA?9?$AAF?$AAI?$AA?$AA@ 0000000180049118     libucrt:lcidtoname_downlevel.obj
 0002:00008128       ??_C@_1M@JLANABKE@?$AAa?$AAr?$AA?9?$AAS?$AAY?$AA?$AA@ 0000000180049128     libucrt:lcidtoname_downlevel.obj
 0002:00008138       ??_C@_1M@HPKGCFGN@?$AAe?$AAn?$AA?9?$AAB?$AAZ?$AA?$AA@ 0000000180049138     libucrt:lcidtoname_downlevel.obj
 0002:00008148       ??_C@_1M@OLJCMLGM@?$AAe?$AAs?$AA?9?$AAP?$AAE?$AA?$AA@ 0000000180049148     libucrt:lcidtoname_downlevel.obj
 0002:00008158       ??_C@_1M@MKKGFKLE@?$AAa?$AAr?$AA?9?$AAJ?$AAO?$AA?$AA@ 0000000180049158     libucrt:lcidtoname_downlevel.obj
 0002:00008168       ??_C@_1M@EKPGLDNI@?$AAe?$AAn?$AA?9?$AAT?$AAT?$AA?$AA@ 0000000180049168     libucrt:lcidtoname_downlevel.obj
 0002:00008178       ??_C@_1M@OONGHFHE@?$AAe?$AAs?$AA?9?$AAA?$AAR?$AA?$AA@ 0000000180049178     libucrt:lcidtoname_downlevel.obj
 0002:00008188       ??_C@_1M@OOJFGBHE@?$AAa?$AAr?$AA?9?$AAL?$AAB?$AA?$AA@ 0000000180049188     libucrt:lcidtoname_downlevel.obj
 0002:00008198       ??_C@_1M@GCEJHNEG@?$AAe?$AAn?$AA?9?$AAZ?$AAW?$AA?$AA@ 0000000180049198     libucrt:lcidtoname_downlevel.obj
 0002:000081a8       ??_C@_1M@JNOCAHJI@?$AAe?$AAs?$AA?9?$AAE?$AAC?$AA?$AA@ 00000001800491a8     libucrt:lcidtoname_downlevel.obj
 0002:000081b8       ??_C@_1M@JEFHPGGB@?$AAa?$AAr?$AA?9?$AAK?$AAW?$AA?$AA@ 00000001800491b8     libucrt:lcidtoname_downlevel.obj
 0002:000081c8       ??_C@_1M@MLKIBJOJ@?$AAe?$AAn?$AA?9?$AAP?$AAH?$AA?$AA@ 00000001800491c8     libucrt:lcidtoname_downlevel.obj
 0002:000081d8       ??_C@_1M@BDNIPEND@?$AAe?$AAs?$AA?9?$AAC?$AAL?$AA?$AA@ 00000001800491d8     libucrt:lcidtoname_downlevel.obj
 0002:000081e8       ??_C@_1M@MPNMEKBD@?$AAa?$AAr?$AA?9?$AAA?$AAE?$AA?$AA@ 00000001800491e8     libucrt:lcidtoname_downlevel.obj
 0002:000081f8       ??_C@_1M@KBJALCPI@?$AAe?$AAs?$AA?9?$AAU?$AAY?$AA?$AA@ 00000001800491f8     libucrt:lcidtoname_downlevel.obj
 0002:00008208       ??_C@_1M@LLCCOAGA@?$AAa?$AAr?$AA?9?$AAB?$AAH?$AA?$AA@ 0000000180049208     libucrt:lcidtoname_downlevel.obj
 0002:00008218       ??_C@_1M@PBFNCDEL@?$AAe?$AAs?$AA?9?$AAP?$AAY?$AA?$AA@ 0000000180049218     libucrt:lcidtoname_downlevel.obj
 0002:00008228       ??_C@_1M@EDGINPNP@?$AAa?$AAr?$AA?9?$AAQ?$AAA?$AA?$AA@ 0000000180049228     libucrt:lcidtoname_downlevel.obj
 0002:00008238       ??_C@_1M@MKDBIIJI@?$AAe?$AAs?$AA?9?$AAB?$AAO?$AA?$AA@ 0000000180049238     libucrt:lcidtoname_downlevel.obj
 0002:00008248       ??_C@_1M@CPKKEBLD@?$AAe?$AAs?$AA?9?$AAS?$AAV?$AA?$AA@ 0000000180049248     libucrt:lcidtoname_downlevel.obj
 0002:00008258       ??_C@_1M@NDBGMMJL@?$AAe?$AAs?$AA?9?$AAH?$AAN?$AA?$AA@ 0000000180049258     libucrt:lcidtoname_downlevel.obj
 0002:00008268       ??_C@_1M@JIJIBHDP@?$AAe?$AAs?$AA?9?$AAN?$AAI?$AA?$AA@ 0000000180049268     libucrt:lcidtoname_downlevel.obj
 0002:00008278       ??_C@_1M@CGFMKEEK@?$AAe?$AAs?$AA?9?$AAP?$AAR?$AA?$AA@ 0000000180049278     libucrt:lcidtoname_downlevel.obj
 0002:00008288       ??_C@_1O@ICJHKIIK@?$AAz?$AAh?$AA?9?$AAC?$AAH?$AAT?$AA?$AA@ 0000000180049288     libucrt:lcidtoname_downlevel.obj
 0002:00008298       ??_C@_15CLNEJCE@?$AAs?$AAr?$AA?$AA@ 0000000180049298     libucrt:lcidtoname_downlevel.obj
 0002:000090e0       ??_C@_1M@KAHEKEIG@?$AAa?$AAf?$AA?9?$AAz?$AAa?$AA?$AA@ 000000018004a0e0     libucrt:lcidtoname_downlevel.obj
 0002:000090f0       ??_C@_1M@GIECOABL@?$AAa?$AAr?$AA?9?$AAa?$AAe?$AA?$AA@ 000000018004a0f0     libucrt:lcidtoname_downlevel.obj
 0002:00009100       ??_C@_1M@BMLMEKGI@?$AAa?$AAr?$AA?9?$AAb?$AAh?$AA?$AA@ 000000018004a100     libucrt:lcidtoname_downlevel.obj
 0002:00009110       ??_C@_1M@DAPFDGGB@?$AAa?$AAr?$AA?9?$AAd?$AAz?$AA?$AA@ 000000018004a110     libucrt:lcidtoname_downlevel.obj
 0002:00009120       ??_C@_1M@FJNKGKIG@?$AAa?$AAr?$AA?9?$AAe?$AAg?$AA?$AA@ 000000018004a120     libucrt:lcidtoname_downlevel.obj
 0002:00009130       ??_C@_1M@FLGKKCLO@?$AAa?$AAr?$AA?9?$AAi?$AAq?$AA?$AA@ 000000018004a130     libucrt:lcidtoname_downlevel.obj
 0002:00009140       ??_C@_1M@GNDIPALM@?$AAa?$AAr?$AA?9?$AAj?$AAo?$AA?$AA@ 000000018004a140     libucrt:lcidtoname_downlevel.obj
 0002:00009150       ??_C@_1M@DDMJFMGJ@?$AAa?$AAr?$AA?9?$AAk?$AAw?$AA?$AA@ 000000018004a150     libucrt:lcidtoname_downlevel.obj
 0002:00009160       ??_C@_1M@EJALMLHM@?$AAa?$AAr?$AA?9?$AAl?$AAb?$AA?$AA@ 000000018004a160     libucrt:lcidtoname_downlevel.obj
 0002:00009170       ??_C@_1M@MOBDBLOC@?$AAa?$AAr?$AA?9?$AAl?$AAy?$AA?$AA@ 000000018004a170     libucrt:lcidtoname_downlevel.obj
 0002:00009180       ??_C@_1M@JAOCLHDH@?$AAa?$AAr?$AA?9?$AAm?$AAa?$AA?$AA@ 000000018004a180     libucrt:lcidtoname_downlevel.obj
 0002:00009190       ??_C@_1M@JHPMKJIE@?$AAa?$AAr?$AA?9?$AAo?$AAm?$AA?$AA@ 000000018004a190     libucrt:lcidtoname_downlevel.obj
 0002:000091a0       ??_C@_1M@OEPGHFNH@?$AAa?$AAr?$AA?9?$AAq?$AAa?$AA?$AA@ 000000018004a1a0     libucrt:lcidtoname_downlevel.obj
 0002:000091b0       ??_C@_1M@KJDONENM@?$AAa?$AAr?$AA?9?$AAs?$AAa?$AA?$AA@ 000000018004a1b0     libucrt:lcidtoname_downlevel.obj
 0002:000091c0       ??_C@_1M@DMJDKLKM@?$AAa?$AAr?$AA?9?$AAs?$AAy?$AA?$AA@ 000000018004a1c0     libucrt:lcidtoname_downlevel.obj
 0002:000091d0       ??_C@_1M@OMFIPEDC@?$AAa?$AAr?$AA?9?$AAt?$AAn?$AA?$AA@ 000000018004a1d0     libucrt:lcidtoname_downlevel.obj
 0002:000091e0       ??_C@_1M@IHMHGAON@?$AAa?$AAr?$AA?9?$AAy?$AAe?$AA?$AA@ 000000018004a1e0     libucrt:lcidtoname_downlevel.obj
 0002:000091f0       ??_C@_1BG@KDCPGJGB@?$AAa?$AAz?$AA?9?$AAa?$AAz?$AA?9?$AAc?$AAy?$AAr?$AAl?$AA?$AA@ 000000018004a1f0     libucrt:lcidtoname_downlevel.obj
 0002:00009208       ??_C@_1BG@IBCKDDOE@?$AAa?$AAz?$AA?9?$AAa?$AAz?$AA?9?$AAl?$AAa?$AAt?$AAn?$AA?$AA@ 000000018004a208     libucrt:lcidtoname_downlevel.obj
 0002:00009220       ??_C@_1M@EGPFDCPD@?$AAb?$AAe?$AA?9?$AAb?$AAy?$AA?$AA@ 000000018004a220     libucrt:lcidtoname_downlevel.obj
 0002:00009230       ??_C@_1M@PCMGMCGC@?$AAb?$AAg?$AA?9?$AAb?$AAg?$AA?$AA@ 000000018004a230     libucrt:lcidtoname_downlevel.obj
 0002:00009240       ??_C@_1M@BJBMFGOB@?$AAb?$AAn?$AA?9?$AAi?$AAn?$AA?$AA@ 000000018004a240     libucrt:lcidtoname_downlevel.obj
 0002:00009250       ??_C@_1BG@EAKMMACD@?$AAb?$AAs?$AA?9?$AAb?$AAa?$AA?9?$AAl?$AAa?$AAt?$AAn?$AA?$AA@ 000000018004a250     libucrt:lcidtoname_downlevel.obj
 0002:00009268       ??_C@_1M@KGADAODK@?$AAc?$AAa?$AA?9?$AAe?$AAs?$AA?$AA@ 000000018004a268     libucrt:lcidtoname_downlevel.obj
 0002:00009278       ??_C@_1M@COAJPDHI@?$AAc?$AAs?$AA?9?$AAc?$AAz?$AA?$AA@ 000000018004a278     libucrt:lcidtoname_downlevel.obj
 0002:00009288       ??_C@_1M@DHBHFONH@?$AAc?$AAy?$AA?9?$AAg?$AAb?$AA?$AA@ 000000018004a288     libucrt:lcidtoname_downlevel.obj
 0002:00009298       ??_C@_1M@IMGKELGA@?$AAd?$AAa?$AA?9?$AAd?$AAk?$AA?$AA@ 000000018004a298     libucrt:lcidtoname_downlevel.obj
 0002:000092a8       ??_C@_1M@NNDGDNGA@?$AAd?$AAe?$AA?9?$AAa?$AAt?$AA?$AA@ 000000018004a2a8     libucrt:lcidtoname_downlevel.obj
 0002:000092b8       ??_C@_1M@IKDBHEEM@?$AAd?$AAe?$AA?9?$AAc?$AAh?$AA?$AA@ 000000018004a2b8     libucrt:lcidtoname_downlevel.obj
 0002:000092c8       ??_C@_1M@GFFOJMCJ@?$AAd?$AAe?$AA?9?$AAd?$AAe?$AA?$AA@ 000000018004a2c8     libucrt:lcidtoname_downlevel.obj
 0002:000092d8       ??_C@_1M@MDNLKBPM@?$AAd?$AAe?$AA?9?$AAl?$AAi?$AA?$AA@ 000000018004a2d8     libucrt:lcidtoname_downlevel.obj
 0002:000092e8       ??_C@_1M@NJBEEJNL@?$AAd?$AAe?$AA?9?$AAl?$AAu?$AA?$AA@ 000000018004a2e8     libucrt:lcidtoname_downlevel.obj
 0002:000092f8       ??_C@_1O@GNNELBAP@?$AAd?$AAi?$AAv?$AA?9?$AAm?$AAv?$AA?$AA@ 000000018004a2f8     libucrt:lcidtoname_downlevel.obj
 0002:00009308       ??_C@_1M@EJLEOGAE@?$AAe?$AAl?$AA?9?$AAg?$AAr?$AA?$AA@ 000000018004a308     libucrt:lcidtoname_downlevel.obj
 0002:00009318       ??_C@_1M@GMPONJN@?$AAe?$AAn?$AA?9?$AAa?$AAu?$AA?$AA@ 000000018004a318     libucrt:lcidtoname_downlevel.obj
 0002:00009328       ??_C@_1M@NIDIIPGF@?$AAe?$AAn?$AA?9?$AAb?$AAz?$AA?$AA@ 000000018004a328     libucrt:lcidtoname_downlevel.obj
 0002:00009338       ??_C@_1M@JEHMIMFO@?$AAe?$AAn?$AA?9?$AAc?$AAa?$AA?$AA@ 000000018004a338     libucrt:lcidtoname_downlevel.obj
 0002:00009348       ??_C@_1M@IGMJCDLA@?$AAe?$AAn?$AA?9?$AAc?$AAb?$AA?$AA@ 000000018004a348     libucrt:lcidtoname_downlevel.obj
 0002:00009358       ??_C@_1M@BNFIGBKG@?$AAe?$AAn?$AA?9?$AAg?$AAb?$AA?$AA@ 000000018004a358     libucrt:lcidtoname_downlevel.obj
 0002:00009368       ??_C@_1M@LKIFDIGP@?$AAe?$AAn?$AA?9?$AAi?$AAe?$AA?$AA@ 000000018004a368     libucrt:lcidtoname_downlevel.obj
 0002:00009378       ??_C@_1M@PJKFGCCO@?$AAe?$AAn?$AA?9?$AAj?$AAm?$AA?$AA@ 000000018004a378     libucrt:lcidtoname_downlevel.obj
 0002:00009388       ??_C@_1M@KPPKEPBO@?$AAe?$AAn?$AA?9?$AAn?$AAz?$AA?$AA@ 000000018004a388     libucrt:lcidtoname_downlevel.obj
 0002:00009398       ??_C@_1M@GMDGLDOB@?$AAe?$AAn?$AA?9?$AAp?$AAh?$AA?$AA@ 000000018004a398     libucrt:lcidtoname_downlevel.obj
 0002:000093a8       ??_C@_1M@ONGIBJNA@?$AAe?$AAn?$AA?9?$AAt?$AAt?$AA?$AA@ 000000018004a3a8     libucrt:lcidtoname_downlevel.obj
 0002:000093b8       ??_C@_1M@LLODPCMM@?$AAe?$AAn?$AA?9?$AAu?$AAs?$AA?$AA@ 000000018004a3b8     libucrt:lcidtoname_downlevel.obj
 0002:000093c8       ??_C@_1M@LAKFNPAN@?$AAe?$AAn?$AA?9?$AAz?$AAa?$AA?$AA@ 000000018004a3c8     libucrt:lcidtoname_downlevel.obj
 0002:000093d8       ??_C@_1M@MFNHNHEO@?$AAe?$AAn?$AA?9?$AAz?$AAw?$AA?$AA@ 000000018004a3d8     libucrt:lcidtoname_downlevel.obj
 0002:000093e8       ??_C@_1M@EJEINPHM@?$AAe?$AAs?$AA?9?$AAa?$AAr?$AA?$AA@ 000000018004a3e8     libucrt:lcidtoname_downlevel.obj
 0002:000093f8       ??_C@_1M@GNKPCCJA@?$AAe?$AAs?$AA?9?$AAb?$AAo?$AA?$AA@ 000000018004a3f8     libucrt:lcidtoname_downlevel.obj
 0002:00009408       ??_C@_1M@LEEGFONL@?$AAe?$AAs?$AA?9?$AAc?$AAl?$AA?$AA@ 000000018004a408     libucrt:lcidtoname_downlevel.obj
 0002:00009418       ??_C@_1M@KGPDPBDF@?$AAe?$AAs?$AA?9?$AAc?$AAo?$AA?$AA@ 000000018004a418     libucrt:lcidtoname_downlevel.obj
 0002:00009428       ??_C@_1M@EIAHOHH@?$AAe?$AAs?$AA?9?$AAc?$AAr?$AA?$AA@ 000000018004a428     libucrt:lcidtoname_downlevel.obj
 0002:00009438       ??_C@_1M@LLPGMBIN@?$AAe?$AAs?$AA?9?$AAd?$AAo?$AA?$AA@ 000000018004a438     libucrt:lcidtoname_downlevel.obj
 0002:00009448       ??_C@_1M@DKHMKNJA@?$AAe?$AAs?$AA?9?$AAe?$AAc?$AA?$AA@ 000000018004a448     libucrt:lcidtoname_downlevel.obj
 0002:00009458       ??_C@_1M@GKGFPKAP@?$AAe?$AAs?$AA?9?$AAe?$AAs?$AA?$AA@ 000000018004a458     libucrt:lcidtoname_downlevel.obj
 0002:00009468       ??_C@_1M@LKHKGDLN@?$AAe?$AAs?$AA?9?$AAg?$AAt?$AA?$AA@ 000000018004a468     libucrt:lcidtoname_downlevel.obj
 0002:00009478       ??_C@_1M@HEIIGGJD@?$AAe?$AAs?$AA?9?$AAh?$AAn?$AA?$AA@ 000000018004a478     libucrt:lcidtoname_downlevel.obj
 0002:00009488       ??_C@_1M@FBDHPPGD@?$AAe?$AAs?$AA?9?$AAm?$AAx?$AA?$AA@ 000000018004a488     libucrt:lcidtoname_downlevel.obj
 0002:00009498       ??_C@_1M@DPAGLNDH@?$AAe?$AAs?$AA?9?$AAn?$AAi?$AA?$AA@ 000000018004a498     libucrt:lcidtoname_downlevel.obj
 0002:000094a8       ??_C@_1M@MDGOPGDD@?$AAe?$AAs?$AA?9?$AAp?$AAa?$AA?$AA@ 000000018004a4a8     libucrt:lcidtoname_downlevel.obj
 0002:000094b8       ??_C@_1M@EMAMGBGE@?$AAe?$AAs?$AA?9?$AAp?$AAe?$AA?$AA@ 000000018004a4b8     libucrt:lcidtoname_downlevel.obj
 0002:000094c8       ??_C@_1M@IBMCAOEC@?$AAe?$AAs?$AA?9?$AAp?$AAr?$AA?$AA@ 000000018004a4c8     libucrt:lcidtoname_downlevel.obj
 0002:000094d8       ??_C@_1M@FGMDIJED@?$AAe?$AAs?$AA?9?$AAp?$AAy?$AA?$AA@ 000000018004a4d8     libucrt:lcidtoname_downlevel.obj
 0002:000094e8       ??_C@_1M@IIDEOLLL@?$AAe?$AAs?$AA?9?$AAs?$AAv?$AA?$AA@ 000000018004a4e8     libucrt:lcidtoname_downlevel.obj
 0002:000094f8       ??_C@_1M@GAOBIPA@?$AAe?$AAs?$AA?9?$AAu?$AAy?$AA?$AA@ 000000018004a4f8     libucrt:lcidtoname_downlevel.obj
 0002:00009508       ??_C@_1M@JKFFICHJ@?$AAe?$AAs?$AA?9?$AAv?$AAe?$AA?$AA@ 000000018004a508     libucrt:lcidtoname_downlevel.obj
 0002:00009518       ??_C@_1M@PNMLOJDF@?$AAe?$AAt?$AA?9?$AAe?$AAe?$AA?$AA@ 000000018004a518     libucrt:lcidtoname_downlevel.obj
 0002:00009528       ??_C@_1M@GHHLIKEI@?$AAe?$AAu?$AA?9?$AAe?$AAs?$AA?$AA@ 000000018004a528     libucrt:lcidtoname_downlevel.obj
 0002:00009538       ??_C@_1M@PBNONODE@?$AAf?$AAa?$AA?9?$AAi?$AAr?$AA?$AA@ 000000018004a538     libucrt:lcidtoname_downlevel.obj
 0002:00009548       ??_C@_1M@JEEHPMIL@?$AAf?$AAi?$AA?9?$AAf?$AAi?$AA?$AA@ 000000018004a548     libucrt:lcidtoname_downlevel.obj
 0002:00009558       ??_C@_1M@LMDCNDBA@?$AAf?$AAo?$AA?9?$AAf?$AAo?$AA?$AA@ 000000018004a558     libucrt:lcidtoname_downlevel.obj
 0002:00009568       ??_C@_1M@JKEOHLDK@?$AAf?$AAr?$AA?9?$AAb?$AAe?$AA?$AA@ 000000018004a568     libucrt:lcidtoname_downlevel.obj
 0002:00009578       ??_C@_1M@NOHADPMI@?$AAf?$AAr?$AA?9?$AAc?$AAa?$AA?$AA@ 000000018004a578     libucrt:lcidtoname_downlevel.obj
 0002:00009588       ??_C@_1M@KDHIHAEC@?$AAf?$AAr?$AA?9?$AAc?$AAh?$AA?$AA@ 000000018004a588     libucrt:lcidtoname_downlevel.obj
 0002:00009598       ??_C@_1M@MMBBFGAK@?$AAf?$AAr?$AA?9?$AAf?$AAr?$AA?$AA@ 000000018004a598     libucrt:lcidtoname_downlevel.obj
 0002:000095a8       ??_C@_1M@PAFNENNF@?$AAf?$AAr?$AA?9?$AAl?$AAu?$AA?$AA@ 000000018004a5a8     libucrt:lcidtoname_downlevel.obj
 0002:000095b8       ??_C@_1M@EOHDJGDD@?$AAf?$AAr?$AA?9?$AAm?$AAc?$AA?$AA@ 000000018004a5b8     libucrt:lcidtoname_downlevel.obj
 0002:000095c8       ??_C@_1M@FAPLLOPF@?$AAg?$AAl?$AA?9?$AAe?$AAs?$AA?$AA@ 000000018004a5c8     libucrt:lcidtoname_downlevel.obj
 0002:000095d8       ??_C@_1M@FOPBFLOO@?$AAg?$AAu?$AA?9?$AAi?$AAn?$AA?$AA@ 000000018004a5d8     libucrt:lcidtoname_downlevel.obj
 0002:000095e8       ??_C@_1M@KBMCINPM@?$AAh?$AAe?$AA?9?$AAi?$AAl?$AA?$AA@ 000000018004a5e8     libucrt:lcidtoname_downlevel.obj
 0002:000095f8       ??_C@_1M@BBPHKFPJ@?$AAh?$AAi?$AA?9?$AAi?$AAn?$AA?$AA@ 000000018004a5f8     libucrt:lcidtoname_downlevel.obj
 0002:00009608       ??_C@_1M@PMBNDPHD@?$AAh?$AAr?$AA?9?$AAb?$AAa?$AA?$AA@ 000000018004a608     libucrt:lcidtoname_downlevel.obj
 0002:00009618       ??_C@_1M@BPCKOEGE@?$AAh?$AAr?$AA?9?$AAh?$AAr?$AA?$AA@ 000000018004a618     libucrt:lcidtoname_downlevel.obj
 0002:00009628       ??_C@_1M@GACBMHKE@?$AAh?$AAu?$AA?9?$AAh?$AAu?$AA?$AA@ 000000018004a628     libucrt:lcidtoname_downlevel.obj
 0002:00009638       ??_C@_1M@MILPAJJC@?$AAh?$AAy?$AA?9?$AAa?$AAm?$AA?$AA@ 000000018004a638     libucrt:lcidtoname_downlevel.obj
 0002:00009648       ??_C@_1M@BABBICEC@?$AAi?$AAd?$AA?9?$AAi?$AAd?$AA?$AA@ 000000018004a648     libucrt:lcidtoname_downlevel.obj
 0002:00009658       ??_C@_1M@BIKNHHPF@?$AAi?$AAs?$AA?9?$AAi?$AAs?$AA?$AA@ 000000018004a658     libucrt:lcidtoname_downlevel.obj
 0002:00009668       ??_C@_1M@NMPCJPHE@?$AAi?$AAt?$AA?9?$AAc?$AAh?$AA?$AA@ 000000018004a668     libucrt:lcidtoname_downlevel.obj
 0002:00009678       ??_C@_1M@GHKGFEDF@?$AAi?$AAt?$AA?9?$AAi?$AAt?$AA?$AA@ 000000018004a678     libucrt:lcidtoname_downlevel.obj
 0002:00009688       ??_C@_1M@NIEJCJJA@?$AAj?$AAa?$AA?9?$AAj?$AAp?$AA?$AA@ 000000018004a688     libucrt:lcidtoname_downlevel.obj
 0002:00009698       ??_C@_1M@JILFNBIM@?$AAk?$AAa?$AA?9?$AAg?$AAe?$AA?$AA@ 000000018004a698     libucrt:lcidtoname_downlevel.obj
 0002:000096a8       ??_C@_1M@PACPMGPH@?$AAk?$AAk?$AA?9?$AAk?$AAz?$AA?$AA@ 000000018004a6a8     libucrt:lcidtoname_downlevel.obj
 0002:000096b8       ??_C@_1M@IELFGMHA@?$AAk?$AAn?$AA?9?$AAi?$AAn?$AA?$AA@ 000000018004a6b8     libucrt:lcidtoname_downlevel.obj
 0002:000096c8       ??_C@_1O@IBBJHCH@?$AAk?$AAo?$AAk?$AA?9?$AAi?$AAn?$AA?$AA@ 000000018004a6c8     libucrt:lcidtoname_downlevel.obj
 0002:000096d8       ??_C@_1M@DMHAEOGC@?$AAk?$AAo?$AA?9?$AAk?$AAr?$AA?$AA@ 000000018004a6d8     libucrt:lcidtoname_downlevel.obj
 0002:000096e8       ??_C@_1M@HBAHBIGA@?$AAk?$AAy?$AA?9?$AAk?$AAg?$AA?$AA@ 000000018004a6e8     libucrt:lcidtoname_downlevel.obj
 0002:000096f8       ??_C@_1M@KPMILCJG@?$AAl?$AAt?$AA?9?$AAl?$AAt?$AA?$AA@ 000000018004a6f8     libucrt:lcidtoname_downlevel.obj
 0002:00009708       ??_C@_1M@BDEKKCA@?$AAl?$AAv?$AA?9?$AAl?$AAv?$AA?$AA@ 000000018004a708     libucrt:lcidtoname_downlevel.obj
 0002:00009718       ??_C@_1M@ELCKCCJJ@?$AAm?$AAi?$AA?9?$AAn?$AAz?$AA?$AA@ 000000018004a718     libucrt:lcidtoname_downlevel.obj
 0002:00009728       ??_C@_1M@CBOOLAPA@?$AAm?$AAk?$AA?9?$AAm?$AAk?$AA?$AA@ 000000018004a728     libucrt:lcidtoname_downlevel.obj
 0002:00009738       ??_C@_1M@GPHNBJKN@?$AAm?$AAl?$AA?9?$AAi?$AAn?$AA?$AA@ 000000018004a738     libucrt:lcidtoname_downlevel.obj
 0002:00009748       ??_C@_1M@PABJILIG@?$AAm?$AAn?$AA?9?$AAm?$AAn?$AA?$AA@ 000000018004a748     libucrt:lcidtoname_downlevel.obj
 0002:00009758       ??_C@_1M@FGBKKIPG@?$AAm?$AAr?$AA?9?$AAi?$AAn?$AA?$AA@ 000000018004a758     libucrt:lcidtoname_downlevel.obj
 0002:00009768       ??_C@_1M@NDBPDDAL@?$AAm?$AAs?$AA?9?$AAb?$AAn?$AA?$AA@ 000000018004a768     libucrt:lcidtoname_downlevel.obj
 0002:00009778       ??_C@_1M@OPIHOOPI@?$AAm?$AAs?$AA?9?$AAm?$AAy?$AA?$AA@ 000000018004a778     libucrt:lcidtoname_downlevel.obj
 0002:00009788       ??_C@_1M@PPDBCNFM@?$AAm?$AAt?$AA?9?$AAm?$AAt?$AA?$AA@ 000000018004a788     libucrt:lcidtoname_downlevel.obj
 0002:00009798       ??_C@_1M@KDJDKMDD@?$AAn?$AAb?$AA?9?$AAn?$AAo?$AA?$AA@ 000000018004a798     libucrt:lcidtoname_downlevel.obj
 0002:000097a8       ??_C@_1M@KFCFLMJP@?$AAn?$AAl?$AA?9?$AAb?$AAe?$AA?$AA@ 000000018004a7a8     libucrt:lcidtoname_downlevel.obj
 0002:000097b8       ??_C@_1M@KPOPDDGO@?$AAn?$AAl?$AA?9?$AAn?$AAl?$AA?$AA@ 000000018004a7b8     libucrt:lcidtoname_downlevel.obj
 0002:000097c8       ??_C@_1M@LJKPEMLN@?$AAn?$AAn?$AA?9?$AAn?$AAo?$AA?$AA@ 000000018004a7c8     libucrt:lcidtoname_downlevel.obj
 0002:000097d8       ??_C@_1M@BDGHHBFL@?$AAn?$AAs?$AA?9?$AAz?$AAa?$AA?$AA@ 000000018004a7d8     libucrt:lcidtoname_downlevel.obj
 0002:000097e8       ??_C@_1M@IDEHOAP@?$AAp?$AAa?$AA?9?$AAi?$AAn?$AA?$AA@ 000000018004a7e8     libucrt:lcidtoname_downlevel.obj
 0002:000097f8       ??_C@_1M@HDBKGOGH@?$AAp?$AAl?$AA?9?$AAp?$AAl?$AA?$AA@ 000000018004a7f8     libucrt:lcidtoname_downlevel.obj
 0002:00009808       ??_C@_1M@LJLLCMEH@?$AAp?$AAt?$AA?9?$AAb?$AAr?$AA?$AA@ 000000018004a808     libucrt:lcidtoname_downlevel.obj
 0002:00009818       ??_C@_1M@NCMONAAL@?$AAp?$AAt?$AA?9?$AAp?$AAt?$AA?$AA@ 000000018004a818     libucrt:lcidtoname_downlevel.obj
 0002:00009828       ??_C@_1O@EAKMAJDN@?$AAq?$AAu?$AAz?$AA?9?$AAb?$AAo?$AA?$AA@ 000000018004a828     libucrt:lcidtoname_downlevel.obj
 0002:00009838       ??_C@_1O@BHHPIGDN@?$AAq?$AAu?$AAz?$AA?9?$AAe?$AAc?$AA?$AA@ 000000018004a838     libucrt:lcidtoname_downlevel.obj
 0002:00009848       ??_C@_1O@GBAPEKMJ@?$AAq?$AAu?$AAz?$AA?9?$AAp?$AAe?$AA?$AA@ 000000018004a848     libucrt:lcidtoname_downlevel.obj
 0002:00009858       ??_C@_1M@CLGLEFBO@?$AAr?$AAo?$AA?9?$AAr?$AAo?$AA?$AA@ 000000018004a858     libucrt:lcidtoname_downlevel.obj
 0002:00009868       ??_C@_1M@CEEDODME@?$AAr?$AAu?$AA?9?$AAr?$AAu?$AA?$AA@ 000000018004a868     libucrt:lcidtoname_downlevel.obj
 0002:00009878       ??_C@_1M@HPKKKMPP@?$AAs?$AAa?$AA?9?$AAi?$AAn?$AA?$AA@ 000000018004a878     libucrt:lcidtoname_downlevel.obj
 0002:00009888       ??_C@_1M@BKMAIGOJ@?$AAs?$AAe?$AA?9?$AAf?$AAi?$AA?$AA@ 000000018004a888     libucrt:lcidtoname_downlevel.obj
 0002:00009898       ??_C@_1M@NDPIFLFI@?$AAs?$AAe?$AA?9?$AAn?$AAo?$AA?$AA@ 000000018004a898     libucrt:lcidtoname_downlevel.obj
 0002:000098a8       ??_C@_1M@DANKKHJ@?$AAs?$AAe?$AA?9?$AAs?$AAe?$AA?$AA@ 000000018004a8a8     libucrt:lcidtoname_downlevel.obj
 0002:000098b8       ??_C@_1M@PNBLONPJ@?$AAs?$AAk?$AA?9?$AAs?$AAk?$AA?$AA@ 000000018004a8b8     libucrt:lcidtoname_downlevel.obj
 0002:000098c8       ??_C@_1M@LFMODOAL@?$AAs?$AAl?$AA?9?$AAs?$AAi?$AA?$AA@ 000000018004a8c8     libucrt:lcidtoname_downlevel.obj
 0002:000098d8       ??_C@_1O@DFKOMPG@?$AAs?$AAm?$AAa?$AA?9?$AAn?$AAo?$AA?$AA@ 000000018004a8d8     libucrt:lcidtoname_downlevel.obj
 0002:000098e8       ??_C@_1O@NDKPBNNH@?$AAs?$AAm?$AAa?$AA?9?$AAs?$AAe?$AA?$AA@ 000000018004a8e8     libucrt:lcidtoname_downlevel.obj
 0002:000098f8       ??_C@_1O@PLLKBHAB@?$AAs?$AAm?$AAj?$AA?9?$AAn?$AAo?$AA?$AA@ 000000018004a8f8     libucrt:lcidtoname_downlevel.obj
 0002:00009908       ??_C@_1O@CLEPOGCA@?$AAs?$AAm?$AAj?$AA?9?$AAs?$AAe?$AA?$AA@ 000000018004a908     libucrt:lcidtoname_downlevel.obj
 0002:00009918       ??_C@_1O@DLGJGKMK@?$AAs?$AAm?$AAn?$AA?9?$AAf?$AAi?$AA?$AA@ 000000018004a918     libucrt:lcidtoname_downlevel.obj
 0002:00009928       ??_C@_1O@OJDJGAJC@?$AAs?$AAm?$AAs?$AA?9?$AAf?$AAi?$AA?$AA@ 000000018004a928     libucrt:lcidtoname_downlevel.obj
 0002:00009938       ??_C@_1M@BOFOGHPB@?$AAs?$AAq?$AA?9?$AAa?$AAl?$AA?$AA@ 000000018004a938     libucrt:lcidtoname_downlevel.obj
 0002:00009948       ??_C@_1BG@LJBBIPGB@?$AAs?$AAr?$AA?9?$AAb?$AAa?$AA?9?$AAc?$AAy?$AAr?$AAl?$AA?$AA@ 000000018004a948     libucrt:lcidtoname_downlevel.obj
 0002:00009960       ??_C@_1BG@JLBENFOE@?$AAs?$AAr?$AA?9?$AAb?$AAa?$AA?9?$AAl?$AAa?$AAt?$AAn?$AA?$AA@ 000000018004a960     libucrt:lcidtoname_downlevel.obj
 0002:00009978       ??_C@_1BG@KODPNHE@?$AAs?$AAr?$AA?9?$AAs?$AAp?$AA?9?$AAc?$AAy?$AAr?$AAl?$AA?$AA@ 000000018004a978     libucrt:lcidtoname_downlevel.obj
 0002:00009990       ??_C@_1BG@CIOGKHPB@?$AAs?$AAr?$AA?9?$AAs?$AAp?$AA?9?$AAl?$AAa?$AAt?$AAn?$AA?$AA@ 000000018004a990     libucrt:lcidtoname_downlevel.obj
 0002:000099a8       ??_C@_1M@NGFJLMAC@?$AAs?$AAv?$AA?9?$AAf?$AAi?$AA?$AA@ 000000018004a9a8     libucrt:lcidtoname_downlevel.obj
 0002:000099b8       ??_C@_1M@MPJEJAJC@?$AAs?$AAv?$AA?9?$AAs?$AAe?$AA?$AA@ 000000018004a9b8     libucrt:lcidtoname_downlevel.obj
 0002:000099c8       ??_C@_1M@MPNDHLFK@?$AAs?$AAw?$AA?9?$AAk?$AAe?$AA?$AA@ 000000018004a9c8     libucrt:lcidtoname_downlevel.obj
 0002:000099d8       ??_C@_1O@KOHBJJI@?$AAs?$AAy?$AAr?$AA?9?$AAs?$AAy?$AA?$AA@ 000000018004a9d8     libucrt:lcidtoname_downlevel.obj
 0002:000099e8       ??_C@_1M@LDCEFHA@?$AAt?$AAa?$AA?9?$AAi?$AAn?$AA?$AA@ 000000018004a9e8     libucrt:lcidtoname_downlevel.obj
 0002:000099f8       ??_C@_1M@CNJOFAK@?$AAt?$AAe?$AA?9?$AAi?$AAn?$AA?$AA@ 000000018004a9f8     libucrt:lcidtoname_downlevel.obj
 0002:00009a08       ??_C@_1M@GNAECACD@?$AAt?$AAh?$AA?9?$AAt?$AAh?$AA?$AA@ 000000018004aa08     libucrt:lcidtoname_downlevel.obj
 0002:00009a18       ??_C@_1M@CHBIHOJO@?$AAt?$AAn?$AA?9?$AAz?$AAa?$AA?$AA@ 000000018004aa18     libucrt:lcidtoname_downlevel.obj
 0002:00009a28       ??_C@_1M@GCCMIGPJ@?$AAt?$AAr?$AA?9?$AAt?$AAr?$AA?$AA@ 000000018004aa28     libucrt:lcidtoname_downlevel.obj
 0002:00009a38       ??_C@_1M@CELMCNBK@?$AAt?$AAt?$AA?9?$AAr?$AAu?$AA?$AA@ 000000018004aa38     libucrt:lcidtoname_downlevel.obj
 0002:00009a48       ??_C@_1M@KLMCELGA@?$AAu?$AAk?$AA?9?$AAu?$AAa?$AA?$AA@ 000000018004aa48     libucrt:lcidtoname_downlevel.obj
 0002:00009a58       ??_C@_1M@EPAJJAJF@?$AAu?$AAr?$AA?9?$AAp?$AAk?$AA?$AA@ 000000018004aa58     libucrt:lcidtoname_downlevel.obj
 0002:00009a68       ??_C@_1BG@GEGPMCDJ@?$AAu?$AAz?$AA?9?$AAu?$AAz?$AA?9?$AAc?$AAy?$AAr?$AAl?$AA?$AA@ 000000018004aa68     libucrt:lcidtoname_downlevel.obj
 0002:00009a80       ??_C@_1BG@EGGKJILM@?$AAu?$AAz?$AA?9?$AAu?$AAz?$AA?9?$AAl?$AAa?$AAt?$AAn?$AA?$AA@ 000000018004aa80     libucrt:lcidtoname_downlevel.obj
 0002:00009a98       ??_C@_1M@GFOCLFF@?$AAv?$AAi?$AA?9?$AAv?$AAn?$AA?$AA@ 000000018004aa98     libucrt:lcidtoname_downlevel.obj
 0002:00009aa8       ??_C@_1M@CPAMEDFI@?$AAx?$AAh?$AA?9?$AAz?$AAa?$AA?$AA@ 000000018004aaa8     libucrt:lcidtoname_downlevel.obj
 0002:00009ab8       ??_C@_1O@EBKIFIGN@?$AAz?$AAh?$AA?9?$AAc?$AAh?$AAs?$AA?$AA@ 000000018004aab8     libucrt:lcidtoname_downlevel.obj
 0002:00009ac8       ??_C@_1O@NMHPGANE@?$AAz?$AAh?$AA?9?$AAc?$AAh?$AAt?$AA?$AA@ 000000018004aac8     libucrt:lcidtoname_downlevel.obj
 0002:00009ad8       ??_C@_1M@LPINJOMC@?$AAz?$AAh?$AA?9?$AAc?$AAn?$AA?$AA@ 000000018004aad8     libucrt:lcidtoname_downlevel.obj
 0002:00009ae8       ??_C@_1M@OCJEJODD@?$AAz?$AAh?$AA?9?$AAh?$AAk?$AA?$AA@ 000000018004aae8     libucrt:lcidtoname_downlevel.obj
 0002:00009af8       ??_C@_1M@DNDLJINH@?$AAz?$AAh?$AA?9?$AAm?$AAo?$AA?$AA@ 000000018004aaf8     libucrt:lcidtoname_downlevel.obj
 0002:00009b08       ??_C@_1M@MBFDNDND@?$AAz?$AAh?$AA?9?$AAs?$AAg?$AA?$AA@ 000000018004ab08     libucrt:lcidtoname_downlevel.obj
 0002:00009b18       ??_C@_1M@IMEPLEPE@?$AAz?$AAh?$AA?9?$AAt?$AAw?$AA?$AA@ 000000018004ab18     libucrt:lcidtoname_downlevel.obj
 0002:00009b28       ??_C@_1M@BBGHNHJP@?$AAz?$AAu?$AA?9?$AAz?$AAa?$AA?$AA@ 000000018004ab28     libucrt:lcidtoname_downlevel.obj
 0002:00009b40       ?large_power_data@?1??multiply_by_power_of_ten@__crt_strtox@@YA_NAEAUbig_integer@2@I@Z@4QBIB 000000018004ab40     libucrt:cfout.obj
 0002:0000a450       ?large_power_indices@?1??multiply_by_power_of_ten@__crt_strtox@@YA_NAEAUbig_integer@2@I@Z@4QBUunpack_index@?1??12@YA_N0I@Z@B 000000018004b450     libucrt:cfout.obj
 0002:0000a4e8       ?small_powers_of_ten@?1??multiply_by_power_of_ten@__crt_strtox@@YA_NAEAUbig_integer@2@I@Z@4QBIB 000000018004b4e8     libucrt:cfout.obj
 0002:0000a50c       ??_C@_01GBGANLPD@0?$AA@    000000018004b50c     libucrt:cfout.obj
 0002:0000a510       ??_C@_05DNEBIAHO@1?$CDINF?$AA@ 000000018004b510     libucrt:cfout.obj
 0002:0000a518       ??_C@_06IMKFLFPG@1?$CDQNAN?$AA@ 000000018004b518     libucrt:cfout.obj
 0002:0000a520       ??_C@_06PGGFOGJG@1?$CDSNAN?$AA@ 000000018004b520     libucrt:cfout.obj
 0002:0000a528       ??_C@_05PHHOCPM@1?$CDIND?$AA@ 000000018004b528     libucrt:cfout.obj
 0002:0000a780       ??_C@_1BA@BALFACEM@?$AAC?$AAO?$AAN?$AAO?$AAU?$AAT?$AA$?$AA?$AA@ 000000018004b780     libucrt:initcon.obj
 0002:0000a790       __log10_256_lead           000000018004b790     libucrt:log10_256_lead_tail_table.obj
 0002:0000afa0       __log10_256_tail           000000018004bfa0     libucrt:log10_256_lead_tail_table.obj
 0002:0000b818       ??_R4type_info@@6B@        000000018004c818     LIBCMT:std_type_info_static.obj
 0002:0000b840       ??_R3type_info@@8          000000018004c840     LIBCMT:std_type_info_static.obj
 0002:0000b858       ??_R2type_info@@8          000000018004c858     LIBCMT:std_type_info_static.obj
 0002:0000b868       ??_R1A@?0A@EA@type_info@@8 000000018004c868     LIBCMT:std_type_info_static.obj
 0002:0000b890       ??_R3DNameNode@@8          000000018004c890     libvcruntime:undname.obj
 0002:0000b8a8       ??_R2DNameNode@@8          000000018004c8a8     libvcruntime:undname.obj
 0002:0000b8b8       ??_R1A@?0A@EA@DNameNode@@8 000000018004c8b8     libvcruntime:undname.obj
 0002:0000b8e0       ??_R4charNode@@6B@         000000018004c8e0     libvcruntime:undname.obj
 0002:0000b908       ??_R3charNode@@8           000000018004c908     libvcruntime:undname.obj
 0002:0000b920       ??_R2charNode@@8           000000018004c920     libvcruntime:undname.obj
 0002:0000b938       ??_R1A@?0A@EA@charNode@@8  000000018004c938     libvcruntime:undname.obj
 0002:0000b960       ??_R4pcharNode@@6B@        000000018004c960     libvcruntime:undname.obj
 0002:0000b988       ??_R3pcharNode@@8          000000018004c988     libvcruntime:undname.obj
 0002:0000b9a0       ??_R2pcharNode@@8          000000018004c9a0     libvcruntime:undname.obj
 0002:0000b9b8       ??_R1A@?0A@EA@pcharNode@@8 000000018004c9b8     libvcruntime:undname.obj
 0002:0000b9e0       ??_R4pDNameNode@@6B@       000000018004c9e0     libvcruntime:undname.obj
 0002:0000ba08       ??_R3pDNameNode@@8         000000018004ca08     libvcruntime:undname.obj
 0002:0000ba20       ??_R2pDNameNode@@8         000000018004ca20     libvcruntime:undname.obj
 0002:0000ba38       ??_R1A@?0A@EA@pDNameNode@@8 000000018004ca38     libvcruntime:undname.obj
 0002:0000ba60       ??_R4DNameStatusNode@@6B@  000000018004ca60     libvcruntime:undname.obj
 0002:0000ba88       ??_R3DNameStatusNode@@8    000000018004ca88     libvcruntime:undname.obj
 0002:0000baa0       ??_R2DNameStatusNode@@8    000000018004caa0     libvcruntime:undname.obj
 0002:0000bab8       ??_R1A@?0A@EA@DNameStatusNode@@8 000000018004cab8     libvcruntime:undname.obj
 0002:0000bae0       ??_R4pairNode@@6B@         000000018004cae0     libvcruntime:undname.obj
 0002:0000bb08       ??_R3pairNode@@8           000000018004cb08     libvcruntime:undname.obj
 0002:0000bb20       ??_R2pairNode@@8           000000018004cb20     libvcruntime:undname.obj
 0002:0000bb38       ??_R1A@?0A@EA@pairNode@@8  000000018004cb38     libvcruntime:undname.obj
 0002:0000bf38       __rtc_iaa                  000000018004cf38     LIBCMT:_initsect_.obj
 0002:0000bf40       __rtc_izz                  000000018004cf40     LIBCMT:_initsect_.obj
 0002:0000bf48       __rtc_taa                  000000018004cf48     LIBCMT:_initsect_.obj
 0002:0000bf50       __rtc_tzz                  000000018004cf50     LIBCMT:_initsect_.obj
 0002:0000f83c       __DELAY_IMPORT_DESCRIPTOR_PhysXCommon_64_dll 000000018005083c     PhysXCommon_64:PhysXCommon_64.dll
 0002:0000f85c       __DELAY_IMPORT_DESCRIPTOR_PhysXFoundation_64_dll 000000018005085c     PhysXFoundation_64:PhysXFoundation_64.dll
 0002:0000f87c       __NULL_DELAY_IMPORT_DESCRIPTOR 000000018005087c     PhysXCommon_64:PhysXCommon_64.dll
 0002:0000f9c0       \177PhysXCommon_64_NULL_THUNK_DATA_DLN 00000001800509c0     PhysXCommon_64:PhysXCommon_64.dll
 0002:0000fa20       \177PhysXFoundation_64_NULL_THUNK_DATA_DLN 0000000180050a20     PhysXFoundation_64:PhysXFoundation_64.dll
 0002:00010380       \177PhysXCommon_64_NULL_THUNK_DATA_DLB 0000000180051380     PhysXCommon_64:PhysXCommon_64.dll
 0002:000104a8       \177PhysXFoundation_64_NULL_THUNK_DATA_DLB 00000001800514a8     PhysXFoundation_64:PhysXFoundation_64.dll
 0002:00012200       __IMPORT_DESCRIPTOR_KERNEL32 0000000180053200     kernel32:KERNEL32.dll
 0002:00012214       __NULL_IMPORT_DESCRIPTOR   0000000180053214     kernel32:KERNEL32.dll
 0003:00000008       __pfnDliNotifyHook2        0000000180054008     WindowsCookingDelayLoadHook.obj
 0003:00000010       _fltused                   0000000180054010     LIBCMT:fltused.obj
 0003:00000020       __scrt_native_dllmain_reason 0000000180054020     LIBCMT:utility.obj
 0003:00000028       __security_cookie          0000000180054028     LIBCMT:gs_cookie.obj
 0003:00000030       __security_cookie_complement 0000000180054030     LIBCMT:gs_cookie.obj
 0003:00000040       __isa_available            0000000180054040     LIBCMT:_cpu_disp_.obj
 0003:00000044       __isa_enabled              0000000180054044     LIBCMT:_cpu_disp_.obj
 0003:00000048       __memcpy_nt_iters          0000000180054048     LIBCMT:_cpu_disp_.obj
 0003:00000060       __abort_behavior           0000000180054060     libucrt:abort.obj
 0003:00000390       __acrt_initial_multibyte_data 0000000180054390     libucrt:mbctype.obj
 0003:000005c0       __acrt_initial_locale_data 00000001800545c0     libucrt:nlsdata.obj
 0003:00000718       __acrt_initial_locale_pointers 0000000180054718     libucrt:nlsdata.obj
 0003:00000728       __acrt_wide_c_locale_string 0000000180054728     libucrt:nlsdata.obj
 0003:00000730       _iob                       0000000180054730     libucrt:_file.obj
 0003:00000840       __globallocalestatus       0000000180054840     libucrt:glstatus.obj
 0003:00000850       __acrt_lconv_c             0000000180054850     libucrt:localeconv.obj
 0003:000008e8       __acrt_lconv_static_decimal 00000001800548e8     libucrt:localeconv.obj
 0003:000008ec       __acrt_lconv_static_W_decimal 00000001800548ec     libucrt:localeconv.obj
 0003:000008f0       _lookuptrailbytes          00000001800548f0     libucrt:read.obj
 0003:00000a00       ??_R0?AVAdjEdge@@@8        0000000180054a00     Adjacencies.obj
 0003:00000a20       ??_R0I@8                   0000000180054a20     Adjacencies.obj
 0003:00000a38       ??_R0?AVAdjTriangle@physx@@@8 0000000180054a38     Adjacencies.obj
 0003:00000a60       ??_R0?AVCooking@physx@@@8  0000000180054a60     Cooking.obj
 0003:00000a88       ??_R0?AVHeightField@Gu@physx@@@8 0000000180054a88     Cooking.obj
 0003:00000ab8       ??_R0?AVQuickHullConvexHullLib@physx@@@8 0000000180054ab8     Cooking.obj
 0003:00000af0       ??_R0?AUPxDebugLine@physx@@@8 0000000180054af0     Cooking.obj
 0003:00000b18       ??_R0M@8                   0000000180054b18     CookingUtils.obj
 0003:00000b30       ??_R0?AUEdgeData@Gu@physx@@@8 0000000180054b30     EdgeList.obj
 0003:00000b58       ??_R0?AUEdgeTriangleData@Gu@physx@@@8 0000000180054b58     EdgeList.obj
 0003:00000b88       ??_R0?AVQuantizerImpl@@@8  0000000180054b88     Quantizer.obj
 0003:00000bb0       ??_R0?AVPxVec3@physx@@@8   0000000180054bb0     Quantizer.obj
 0003:00000bd8       ??_R0?AUSlab@NodeAllocator@Gu@physx@@@8 0000000180054bd8     BVHStructureBuilder.obj
 0003:00000c10       ??_R0?AUInterval@physx@@@8 0000000180054c10     RTreeCooking.obj
 0003:00000c38       ??_R0?AURTreeNodeQ@Gu@physx@@@8 0000000180054c38     RTreeCooking.obj
 0003:00000c68       ??_R0?AURTreeNodeNQ@physx@@@8 0000000180054c68     RTreeCooking.obj
 0003:00000c90       ??_R0?AUPxBounds3V@physx@@@8 0000000180054c90     RTreeCooking.obj
 0003:00000cb8       ??_R0?AVEdgeListBuilder@Gu@physx@@@8 0000000180054cb8     TriangleMeshBuilder.obj
 0003:00000ce8       ??_R0?AVBV32Tree@Gu@physx@@@8 0000000180054ce8     TriangleMeshBuilder.obj
 0003:00000d10       ??_R0E@8                   0000000180054d10     TriangleMeshBuilder.obj
 0003:00000d28       ??_R0G@8                   0000000180054d28     TriangleMeshBuilder.obj
 0003:00000d40       ??_R0?AUEdgeTriLookup@physx@@@8 0000000180054d40     TriangleMeshBuilder.obj
 0003:00000d70       ??_R0?AUEdgeDescData@Gu@physx@@@8 0000000180054d70     ConvexHullBuilder.obj
 0003:00000da0       ??_R0_N@8                  0000000180054da0     ConvexHullBuilder.obj
 0003:00000db8       ??_R0?AVConvexHull@physx@@@8 0000000180054db8     ConvexHullUtils.obj
 0003:00000de0       ??_R0?AVHalfEdge@ConvexHull@physx@@@8 0000000180054de0     ConvexHullUtils.obj
 0003:00000e10       ??_R0?AVPxPlane@physx@@@8  0000000180054e10     ConvexHullUtils.obj
 0003:00000e38       ??_R0?AVBigConvexData@physx@@@8 0000000180054e38     ConvexMeshBuilder.obj
 0003:00000e68       ??_R0?AUHullTriangleData@physx@@@8 0000000180054e68     ConvexPolygonsBuilder.obj
 0003:00000e98       ??_R0?AVPair@@@8           0000000180054e98     ConvexPolygonsBuilder.obj
 0003:00000eb8       ??_R0?AVQuickHull@local@@@8 0000000180054eb8     QuickHullConvexHullLib.obj
 0003:00000ee0       ??_R0?AUExpandPoint@local@@@8 0000000180054ee0     QuickHullConvexHullLib.obj
 0003:00000f08       ??_R0PEAUQuickHullFace@local@@@8 0000000180054f08     QuickHullConvexHullLib.obj
 0003:00000f38       ??_R0PEAUQuickHullHalfEdge@local@@@8 0000000180054f38     QuickHullConvexHullLib.obj
 0003:00000f68       ??_R0PEAUQuickHullVertex@local@@@8 0000000180054f68     QuickHullConvexHullLib.obj
 0003:00000f98       ??_R0?AVtype_info@@@8      0000000180054f98     LIBCMT:std_type_info_static.obj
 0003:00000fb8       ??_R0?AVDNameNode@@@8      0000000180054fb8     libvcruntime:undname.obj
 0003:00000fd8       ??_R0?AVcharNode@@@8       0000000180054fd8     libvcruntime:undname.obj
 0003:00000ff8       ??_R0?AVpcharNode@@@8      0000000180054ff8     libvcruntime:undname.obj
 0003:00001018       ??_R0?AVpDNameNode@@@8     0000000180055018     libvcruntime:undname.obj
 0003:00001040       ??_R0?AVDNameStatusNode@@@8 0000000180055040     libvcruntime:undname.obj
 0003:00001068       ??_R0?AVpairNode@@@8       0000000180055068     libvcruntime:undname.obj
 0003:00001088       __imp_??0RadixSortBuffered@Cm@physx@@QEAA@XZ 0000000180055088     PhysXCommon_64:PhysXCommon_64.dll
 0003:00001090       __imp_??1RadixSortBuffered@Cm@physx@@UEAA@XZ 0000000180055090     PhysXCommon_64:PhysXCommon_64.dll
 0003:00001098       __imp_?Sort@RadixSortBuffered@Cm@physx@@QEAAAEAV123@PEBIIW4RadixHint@23@@Z 0000000180055098     PhysXCommon_64:PhysXCommon_64.dll
 0003:000010a0       __imp_??0HeightField@Gu@physx@@QEAA@PEAVGuMeshFactory@2@@Z 00000001800550a0     PhysXCommon_64:PhysXCommon_64.dll
 0003:000010a8       __imp_?loadFromDesc@HeightField@Gu@physx@@QEAA_NAEBVPxHeightFieldDesc@3@@Z 00000001800550a8     PhysXCommon_64:PhysXCommon_64.dll
 0003:000010b0       __imp_?computeCellCoordinates@HeightField@Gu@physx@@QEBAIMMAEAM0@Z 00000001800550b0     PhysXCommon_64:PhysXCommon_64.dll
 0003:000010b8       __imp_?releaseMemory@HeightField@Gu@physx@@QEAAXXZ 00000001800550b8     PhysXCommon_64:PhysXCommon_64.dll
 0003:000010c0       __imp_??1HeightField@Gu@physx@@UEAA@XZ 00000001800550c0     PhysXCommon_64:PhysXCommon_64.dll
 0003:000010c8       __imp_??0NodeAllocator@Gu@physx@@QEAA@XZ 00000001800550c8     PhysXCommon_64:PhysXCommon_64.dll
 0003:000010d0       __imp_??1NodeAllocator@Gu@physx@@QEAA@XZ 00000001800550d0     PhysXCommon_64:PhysXCommon_64.dll
 0003:000010d8       __imp_?release@NodeAllocator@Gu@physx@@QEAAXXZ 00000001800550d8     PhysXCommon_64:PhysXCommon_64.dll
 0003:000010e0       __imp_?buildAABBTree@Gu@physx@@YA_NAEAVAABBTreeBuildParams@12@AEAVNodeAllocator@12@AEAUBuildStats@12@AEAPEAI@Z 00000001800550e0     PhysXCommon_64:PhysXCommon_64.dll
 0003:000010e8       __imp_?writeDword@physx@@YAXI_NAEAVPxOutputStream@1@@Z 00000001800550e8     PhysXCommon_64:PhysXCommon_64.dll
 0003:000010f0       __imp_?writeFloatBuffer@physx@@YAXPEBMI_NAEAVPxOutputStream@1@@Z 00000001800550f0     PhysXCommon_64:PhysXCommon_64.dll
 0003:000010f8       __imp_?writeHeader@physx@@YA_NCCCCI_NAEAVPxOutputStream@1@@Z 00000001800550f8     PhysXCommon_64:PhysXCommon_64.dll
 0003:00001100       __imp_?writeWord@physx@@YAXG_NAEAVPxOutputStream@1@@Z 0000000180055100     PhysXCommon_64:PhysXCommon_64.dll
 0003:00001108       __imp_?writeFloat@physx@@YAXM_NAEAVPxOutputStream@1@@Z 0000000180055108     PhysXCommon_64:PhysXCommon_64.dll
 0003:00001110       __imp_?computeBoundsAroundVertices@Gu@physx@@YAXAEAVPxBounds3@2@IPEIBVPxVec3@2@@Z 0000000180055110     PhysXCommon_64:PhysXCommon_64.dll
 0003:00001118       __imp_??0SourceMesh@Gu@physx@@QEAA@XZ 0000000180055118     PhysXCommon_64:PhysXCommon_64.dll
 0003:00001120       __imp_??1SourceMesh@Gu@physx@@QEAA@XZ 0000000180055120     PhysXCommon_64:PhysXCommon_64.dll
 0003:00001128       __imp_??0BV4Tree@Gu@physx@@QEAA@XZ 0000000180055128     PhysXCommon_64:PhysXCommon_64.dll
 0003:00001130       __imp_??1BV4Tree@Gu@physx@@QEAA@XZ 0000000180055130     PhysXCommon_64:PhysXCommon_64.dll
 0003:00001138       __imp_??0BV32Tree@Gu@physx@@QEAA@XZ 0000000180055138     PhysXCommon_64:PhysXCommon_64.dll
 0003:00001140       __imp_??1BV32Tree@Gu@physx@@QEAA@XZ 0000000180055140     PhysXCommon_64:PhysXCommon_64.dll
 0003:00001148       __imp_?writeWordBuffer@physx@@YAXPEBGI_NAEAVPxOutputStream@1@@Z 0000000180055148     PhysXCommon_64:PhysXCommon_64.dll
 0003:00001150       __imp_?computeMaxIndex@physx@@YAIPEBII@Z 0000000180055150     PhysXCommon_64:PhysXCommon_64.dll
 0003:00001158       __imp_?storeIndices@physx@@YAXIIPEBIAEAVPxOutputStream@1@_N@Z 0000000180055158     PhysXCommon_64:PhysXCommon_64.dll
 0003:00001160       __imp_?BuildBV4Ex@Gu@physx@@YA_NAEAVBV4Tree@12@AEAVSourceMesh@12@MI@Z 0000000180055160     PhysXCommon_64:PhysXCommon_64.dll
 0003:00001168       __imp_?BuildBV32Ex@Gu@physx@@YA_NAEAVBV32Tree@12@AEAVSourceMesh@12@MI@Z 0000000180055168     PhysXCommon_64:PhysXCommon_64.dll
 0003:00001170       __imp_?computeMaxIndex@physx@@YAGPEBGI@Z 0000000180055170     PhysXCommon_64:PhysXCommon_64.dll
 0003:00001178       __imp_?WriteHeader@Gu@physx@@YA_NEEEEI_NAEAVPxOutputStream@2@@Z 0000000180055178     PhysXCommon_64:PhysXCommon_64.dll
 0003:00001180       __imp_?StoreIndices@Gu@physx@@YAXGIPEBGAEAVPxOutputStream@2@_N@Z 0000000180055180     PhysXCommon_64:PhysXCommon_64.dll
 0003:00001188       __imp_?CreateOffsets@BigConvexData@physx@@IEAAXXZ 0000000180055188     PhysXCommon_64:PhysXCommon_64.dll
 0003:00001190       __imp_?computeOBBPoints@Gu@physx@@YAXPEIAVPxVec3@2@AEBV32@1111@Z 0000000180055190     PhysXCommon_64:PhysXCommon_64.dll
 0003:00001198       __imp_??0BigConvexData@physx@@QEAA@XZ 0000000180055198     PhysXCommon_64:PhysXCommon_64.dll
 0003:000011a0       __imp_??1BigConvexData@physx@@QEAA@XZ 00000001800551a0     PhysXCommon_64:PhysXCommon_64.dll
 0003:000011a8       \177PhysXCommon_64_NULL_THUNK_DATA_DLA 00000001800551a8     PhysXCommon_64:PhysXCommon_64.dll
 0003:000011b0       __imp_PxGetFoundation      00000001800551b0     PhysXFoundation_64:PhysXFoundation_64.dll
 0003:000011b8       __imp_?getAllocator@shdfnd@physx@@YAAEAVPxAllocatorCallback@2@XZ 00000001800551b8     PhysXFoundation_64:PhysXFoundation_64.dll
 0003:000011c0       __imp_?getInstance@Foundation@shdfnd@physx@@SAAEAV123@XZ 00000001800551c0     PhysXFoundation_64:PhysXFoundation_64.dll
 0003:000011c8       __imp_?error@Foundation@shdfnd@physx@@QEAAXW4Enum@PxErrorCode@3@PEBDH1ZZ 00000001800551c8     PhysXFoundation_64:PhysXFoundation_64.dll
 0003:000011d0       __imp_?incRefCount@Foundation@shdfnd@physx@@SAXXZ 00000001800551d0     PhysXFoundation_64:PhysXFoundation_64.dll
 0003:000011d8       __imp_?decRefCount@Foundation@shdfnd@physx@@SAXXZ 00000001800551d8     PhysXFoundation_64:PhysXFoundation_64.dll
 0003:000011e0       __imp_??0FPUGuard@shdfnd@physx@@QEAA@XZ 00000001800551e0     PhysXFoundation_64:PhysXFoundation_64.dll
 0003:000011e8       __imp_??1FPUGuard@shdfnd@physx@@QEAA@XZ 00000001800551e8     PhysXFoundation_64:PhysXFoundation_64.dll
 0003:000011f0       __imp_?allocate@TempAllocator@shdfnd@physx@@QEAAPEAX_KPEBDH@Z 00000001800551f0     PhysXFoundation_64:PhysXFoundation_64.dll
 0003:000011f8       __imp_?deallocate@TempAllocator@shdfnd@physx@@QEAAXPEAX@Z 00000001800551f8     PhysXFoundation_64:PhysXFoundation_64.dll
 0003:00001200       __imp_?PxDiagonalize@physx@@YA?AVPxVec3@1@AEBVPxMat33@1@AEAVPxQuat@1@@Z 0000000180055200     PhysXFoundation_64:PhysXFoundation_64.dll
 0003:00001208       \177PhysXFoundation_64_NULL_THUNK_DATA_DLA 0000000180055208     PhysXFoundation_64:PhysXFoundation_64.dll
 0003:000015d8       __hmod__PhysXCommon_64_dll 00000001800555d8     PhysXCommon_64:PhysXCommon_64.dll
 0003:000015e0       __hmod__PhysXFoundation_64_dll 00000001800555e0     PhysXFoundation_64:PhysXFoundation_64.dll
 0003:000015e8       ?DloadKernel32@@3PEAUHINSTANCE__@@EA 00000001800555e8     Delayimp:delayhlp.obj
 0003:000015f0       ?DloadAcquireSRWLockExclusive@@3P6AXPEA_K@ZEA 00000001800555f0     Delayimp:delayhlp.obj
 0003:000015f8       ?DloadReleaseSRWLockExclusive@@3P6AXPEA_K@ZEA 00000001800555f8     Delayimp:delayhlp.obj
 0003:00001600       ?DloadSrwLock@@3_KA        0000000180055600     Delayimp:delayhlp.obj
 0003:00001608       ?DloadSectionLockCount@@3KA 0000000180055608     Delayimp:delayhlp.obj
 0003:0000160c       ?DloadSectionOldProtection@@3KA 000000018005560c     Delayimp:delayhlp.obj
 0003:00001610       ?DloadSectionCommitPermanent@@3KA 0000000180055610     Delayimp:delayhlp.obj
 0003:00001620       ?__type_info_root_node@@3U__type_info_node@@A 0000000180055620     LIBCMT:tncleanup.obj
 0003:00001638       __scrt_current_native_startup_state 0000000180055638     LIBCMT:utility.obj
 0003:00001640       __scrt_native_startup_lock 0000000180055640     LIBCMT:utility.obj
 0003:00001680       ?_OptionsStorage@?1??__local_stdio_printf_options@@9@4_KA 0000000180055680     LIBCMT:default_local_stdio_options.obj
 0003:00001688       ?_OptionsStorage@?1??__local_stdio_scanf_options@@9@4_KA 0000000180055688     LIBCMT:default_local_stdio_options.obj
 0003:00001690       __scrt_debugger_hook_flag  0000000180055690     LIBCMT:utility_desktop.obj
 0003:00001694       __favor                    0000000180055694     LIBCMT:_cpu_disp_.obj
 0003:00001698       __pPurecall                0000000180055698     libvcruntime:purevirt_data.obj
 0003:000016a0       ?pArgList@UnDecorator@@0PEAVReplicator@@EA 00000001800556a0     libvcruntime:undname.obj
 0003:000016a8       ?pZNameList@UnDecorator@@0PEAVReplicator@@EA 00000001800556a8     libvcruntime:undname.obj
 0003:000016b0       ?pTemplateArgList@UnDecorator@@0PEAVReplicator@@EA 00000001800556b0     libvcruntime:undname.obj
 0003:000016b8       ?gName@UnDecorator@@0PEBDEB 00000001800556b8     libvcruntime:undname.obj
 0003:000016c0       ?name@UnDecorator@@0PEBDEB 00000001800556c0     libvcruntime:undname.obj
 0003:000016c8       ?outputString@UnDecorator@@0PEADEA 00000001800556c8     libvcruntime:undname.obj
 0003:000016d0       ?maxStringLength@UnDecorator@@0HA 00000001800556d0     libvcruntime:undname.obj
 0003:000016d4       ?disableFlags@UnDecorator@@0KA 00000001800556d4     libvcruntime:undname.obj
 0003:000016d8       ?fExplicitTemplateParams@UnDecorator@@0_NA 00000001800556d8     libvcruntime:undname.obj
 0003:000016d9       ?fGetTemplateArgumentList@UnDecorator@@0_NA 00000001800556d9     libvcruntime:undname.obj
 0003:000016e0       ?m_pGetParameter@UnDecorator@@0P6APEADJ@ZEA 00000001800556e0     libvcruntime:undname.obj
 0003:00001710       ?nodes@?1??make@DNameStatusNode@@SAPEAV2@W4DNameStatus@@@Z@4PAV2@A 0000000180055710     libvcruntime:undname.obj
 0003:00001750       ??_B?1??make@DNameStatusNode@@SAPEAV1@W4DNameStatus@@@Z@51 0000000180055750     libvcruntime:undname.obj
 0003:00001888       ?c_exit_complete@?1???R<lambda_6e4b09c48022b2350581041d5f6b0c4c>@@QEBA@XZ@4_NA 0000000180055888     libucrt:exit.obj
 0003:00001998       _environ_table             0000000180055998     libucrt:environment_initialization.obj
 0003:000019a0       _wenviron_table            00000001800559a0     libucrt:environment_initialization.obj
 0003:000019a8       __dcrt_initial_wide_environment 00000001800559a8     libucrt:environment_initialization.obj
 0003:000019b0       __dcrt_initial_narrow_environment 00000001800559b0     libucrt:environment_initialization.obj
 0003:000019b8       __acrt_atexit_table        00000001800559b8     libucrt:onexit.obj
 0003:000019d0       __acrt_at_quick_exit_table 00000001800559d0     libucrt:onexit.obj
 0003:000019e8       __fma3_is_available        00000001800559e8     libucrt:fma3_available.obj
 0003:000019ec       __use_fma3_lib             00000001800559ec     libucrt:fma3_available.obj
 0003:00001c30       _mbctype                   0000000180055c30     libucrt:mbctype.obj
 0003:00001c38       _mbcasemap                 0000000180055c38     libucrt:mbctype.obj
 0003:00001c40       __acrt_current_multibyte_data 0000000180055c40     libucrt:mbctype.obj
 0003:00001c50       _pgmptr                    0000000180055c50     libucrt:argv_data.obj
 0003:00001c58       __argc                     0000000180055c58     libucrt:argv_data.obj
 0003:00001c60       __argv                     0000000180055c60     libucrt:argv_data.obj
 0003:00001c68       __wargv                    0000000180055c68     libucrt:argv_data.obj
 0003:00001c70       _acmdln                    0000000180055c70     libucrt:argv_data.obj
 0003:00001c78       _wcmdln                    0000000180055c78     libucrt:argv_data.obj
 0003:00001e30       __acrt_heap                0000000180055e30     libucrt:heap_handle.obj
 0003:00001e40       __pioinfo                  0000000180055e40     libucrt:ioinit.obj
 0003:00002240       _nhandle                   0000000180056240     libucrt:ioinit.obj
 0003:00002278       __acrt_current_locale_data 0000000180056278     libucrt:nlsdata.obj
 0003:00002280       _nstream                   0000000180056280     libucrt:_file.obj
 0003:00002288       __piob                     0000000180056288     libucrt:_file.obj
 0003:00002290       __acrt_stdout_buffer       0000000180056290     libucrt:_sftbuf.obj
 0003:00002298       __acrt_stderr_buffer       0000000180056298     libucrt:_sftbuf.obj
 0003:000022b8       __acrt_locale_changed_data 00000001800562b8     libucrt:wsetlocale.obj
 0003:000022bc       __acrt_lconv_static_null   00000001800562bc     libucrt:localeconv.obj
 0003:000022c0       __acrt_lconv_static_W_null 00000001800562c0     libucrt:localeconv.obj
 0003:00002840       __scrt_ucrt_dll_is_in_use  0000000180056840     <common>
 0003:00002848       __dyn_tls_init_callback    0000000180056848     <common>
 0003:00002850       _pDestructExceptionObject  0000000180056850     <common>

 entry point at        0001:00026748

 Static symbols

 0000:fffa2000       .debug$S                   0000000180000000     PhysXFoundation_64:PhysXFoundation_64.dll
 0000:fffa2000       .debug$S                   0000000180000000     kernel32:KERNEL32.dll
 0000:fffa2000       .debug$S                   0000000180000000     kernel32:KERNEL32.dll
 0000:fffa2000       .debug$S                   0000000180000000     PhysXCooking_64.exp
 0000:fffa2000       .debug$S                   0000000180000000     kernel32:KERNEL32.dll
 0000:fffa2000       .debug$S                   0000000180000000     kernel32:KERNEL32.dll
 0000:fffa2000       .debug$S                   0000000180000000     kernel32:KERNEL32.dll
 0000:fffa2000       .debug$S                   0000000180000000     kernel32:KERNEL32.dll
 0000:fffa2000       .debug$S                   0000000180000000     kernel32:KERNEL32.dll
 0000:fffa2000       .debug$S                   0000000180000000     kernel32:KERNEL32.dll
 0000:fffa2000       .debug$S                   0000000180000000     kernel32:KERNEL32.dll
 0000:fffa2000       .debug$S                   0000000180000000     kernel32:KERNEL32.dll
 0000:fffa2000       .debug$S                   0000000180000000     kernel32:KERNEL32.dll
 0000:fffa2000       .debug$S                   0000000180000000     kernel32:KERNEL32.dll
 0000:fffa2000       .debug$S                   0000000180000000     kernel32:KERNEL32.dll
 0000:fffa2000       .debug$S                   0000000180000000     kernel32:KERNEL32.dll
 0000:fffa2000       .debug$S                   0000000180000000     kernel32:KERNEL32.dll
 0000:fffa2000       .debug$S                   0000000180000000     kernel32:KERNEL32.dll
 0000:fffa2000       .debug$S                   0000000180000000     kernel32:KERNEL32.dll
 0000:fffa2000       .debug$S                   0000000180000000     kernel32:KERNEL32.dll
 0000:fffa2000       .debug$S                   0000000180000000     kernel32:KERNEL32.dll
 0000:fffa2000       .debug$S                   0000000180000000     kernel32:KERNEL32.dll
 0000:fffa2000       .debug$S                   0000000180000000     kernel32:KERNEL32.dll
 0000:fffa2000       .debug$S                   0000000180000000     kernel32:KERNEL32.dll
 0000:fffa2000       .debug$S                   0000000180000000     kernel32:KERNEL32.dll
 0000:fffa2000       .debug$S                   0000000180000000     kernel32:KERNEL32.dll
 0000:fffa2000       .debug$S                   0000000180000000     kernel32:KERNEL32.dll
 0000:fffa2000       .debug$S                   0000000180000000     kernel32:KERNEL32.dll
 0000:fffa2000       .debug$S                   0000000180000000     kernel32:KERNEL32.dll
 0000:fffa2000       .debug$S                   0000000180000000     kernel32:KERNEL32.dll
 0000:fffa2000       .debug$S                   0000000180000000     kernel32:KERNEL32.dll
 0000:fffa2000       .debug$S                   0000000180000000     kernel32:KERNEL32.dll
 0000:fffa2000       .debug$S                   0000000180000000     kernel32:KERNEL32.dll
 0000:fffa2000       .debug$S                   0000000180000000     kernel32:KERNEL32.dll
 0000:fffa2000       .debug$S                   0000000180000000     kernel32:KERNEL32.dll
 0000:fffa2000       .debug$S                   0000000180000000     kernel32:KERNEL32.dll
 0000:fffa2000       .debug$S                   0000000180000000     kernel32:KERNEL32.dll
 0000:fffa2000       .debug$S                   0000000180000000     kernel32:KERNEL32.dll
 0000:fffa2000       .debug$S                   0000000180000000     kernel32:KERNEL32.dll
 0000:fffa2000       .debug$S                   0000000180000000     kernel32:KERNEL32.dll
 0000:fffa2000       .debug$S                   0000000180000000     kernel32:KERNEL32.dll
 0000:fffa2000       .debug$S                   0000000180000000     kernel32:KERNEL32.dll
 0000:fffa2000       .debug$S                   0000000180000000     kernel32:KERNEL32.dll
 0000:fffa2000       .debug$S                   0000000180000000     PhysXCommon_64:PhysXCommon_64.dll
 0000:fffa2000       .debug$S                   0000000180000000     PhysXCommon_64:PhysXCommon_64.dll
 0000:fffa2000       .debug$S                   0000000180000000     PhysXCommon_64:PhysXCommon_64.dll
 0000:fffa2000       .debug$S                   0000000180000000     PhysXCommon_64:PhysXCommon_64.dll
 0000:fffa2000       .debug$S                   0000000180000000     PhysXCommon_64:PhysXCommon_64.dll
 0000:fffa2000       .debug$S                   0000000180000000     PhysXCommon_64:PhysXCommon_64.dll
 0000:fffa2000       .debug$S                   0000000180000000     PhysXCommon_64:PhysXCommon_64.dll
 0000:fffa2000       .debug$S                   0000000180000000     PhysXCommon_64:PhysXCommon_64.dll
 0000:fffa2000       .debug$S                   0000000180000000     PhysXCommon_64:PhysXCommon_64.dll
 0000:fffa2000       .debug$S                   0000000180000000     PhysXCommon_64:PhysXCommon_64.dll
 0000:fffa2000       .debug$S                   0000000180000000     PhysXCommon_64:PhysXCommon_64.dll
 0000:fffa2000       .debug$S                   0000000180000000     PhysXCommon_64:PhysXCommon_64.dll
 0000:fffa2000       .debug$S                   0000000180000000     PhysXCommon_64:PhysXCommon_64.dll
 0000:fffa2000       .debug$S                   0000000180000000     PhysXCommon_64:PhysXCommon_64.dll
 0000:fffa2000       .debug$S                   0000000180000000     PhysXCommon_64:PhysXCommon_64.dll
 0000:fffa2000       .debug$S                   0000000180000000     PhysXCommon_64:PhysXCommon_64.dll
 0000:fffa2000       .debug$S                   0000000180000000     PhysXCommon_64:PhysXCommon_64.dll
 0000:fffa2000       .debug$S                   0000000180000000     PhysXCommon_64:PhysXCommon_64.dll
 0000:fffa2000       .debug$S                   0000000180000000     PhysXCommon_64:PhysXCommon_64.dll
 0000:fffa2000       .debug$S                   0000000180000000     PhysXCommon_64:PhysXCommon_64.dll
 0000:fffa2000       .debug$S                   0000000180000000     PhysXCommon_64:PhysXCommon_64.dll
 0000:fffa2000       .debug$S                   0000000180000000     PhysXCommon_64:PhysXCommon_64.dll
 0000:fffa2000       .debug$S                   0000000180000000     PhysXCommon_64:PhysXCommon_64.dll
 0000:fffa2000       .debug$S                   0000000180000000     PhysXCommon_64:PhysXCommon_64.dll
 0000:fffa2000       .debug$S                   0000000180000000     PhysXCommon_64:PhysXCommon_64.dll
 0000:fffa2000       .debug$S                   0000000180000000     PhysXCommon_64:PhysXCommon_64.dll
 0000:fffa2000       .debug$S                   0000000180000000     PhysXCommon_64:PhysXCommon_64.dll
 0000:fffa2000       .debug$S                   0000000180000000     PhysXCommon_64:PhysXCommon_64.dll
 0000:fffa2000       .debug$S                   0000000180000000     PhysXCommon_64:PhysXCommon_64.dll
 0000:fffa2000       .debug$S                   0000000180000000     PhysXCommon_64:PhysXCommon_64.dll
 0000:fffa2000       .debug$S                   0000000180000000     PhysXCommon_64:PhysXCommon_64.dll
 0000:fffa2000       .debug$S                   0000000180000000     PhysXCommon_64:PhysXCommon_64.dll
 0000:fffa2000       .debug$S                   0000000180000000     PhysXCommon_64:PhysXCommon_64.dll
 0000:fffa2000       .debug$S                   0000000180000000     PhysXCommon_64:PhysXCommon_64.dll
 0000:fffa2000       .debug$S                   0000000180000000     PhysXCommon_64:PhysXCommon_64.dll
 0000:fffa2000       .debug$S                   0000000180000000     PhysXCommon_64:PhysXCommon_64.dll
 0000:fffa2000       .debug$S                   0000000180000000     PhysXCommon_64:PhysXCommon_64.dll
 0000:fffa2000       .debug$S                   0000000180000000     PhysXCommon_64:PhysXCommon_64.dll
 0000:fffa2000       .debug$S                   0000000180000000     PhysXFoundation_64:PhysXFoundation_64.dll
 0000:fffa2000       .debug$S                   0000000180000000     PhysXFoundation_64:PhysXFoundation_64.dll
 0000:fffa2000       .debug$S                   0000000180000000     PhysXFoundation_64:PhysXFoundation_64.dll
 0000:fffa2000       .debug$S                   0000000180000000     PhysXFoundation_64:PhysXFoundation_64.dll
 0000:fffa2000       .debug$S                   0000000180000000     PhysXFoundation_64:PhysXFoundation_64.dll
 0000:fffa2000       .debug$S                   0000000180000000     PhysXFoundation_64:PhysXFoundation_64.dll
 0000:fffa2000       .debug$S                   0000000180000000     PhysXFoundation_64:PhysXFoundation_64.dll
 0000:fffa2000       .debug$S                   0000000180000000     PhysXFoundation_64:PhysXFoundation_64.dll
 0000:fffa2000       .debug$S                   0000000180000000     kernel32:KERNEL32.dll
 0000:fffa2000       .debug$S                   0000000180000000     PhysXFoundation_64:PhysXFoundation_64.dll
 0000:fffa2000       .debug$S                   0000000180000000     PhysXFoundation_64:PhysXFoundation_64.dll
 0000:fffa2000       .debug$S                   0000000180000000     kernel32:KERNEL32.dll
 0000:fffa2000       .debug$S                   0000000180000000     kernel32:KERNEL32.dll
 0000:fffa2000       .debug$S                   0000000180000000     kernel32:KERNEL32.dll
 0000:fffa2000       .debug$S                   0000000180000000     kernel32:KERNEL32.dll
 0000:fffa2000       .debug$S                   0000000180000000     kernel32:KERNEL32.dll
 0000:fffa2000       .debug$S                   0000000180000000     kernel32:KERNEL32.dll
 0000:fffa2000       .debug$S                   0000000180000000     kernel32:KERNEL32.dll
 0000:fffa2000       .debug$S                   0000000180000000     kernel32:KERNEL32.dll
 0000:fffa2000       .debug$S                   0000000180000000     kernel32:KERNEL32.dll
 0000:fffa2000       .debug$S                   0000000180000000     kernel32:KERNEL32.dll
 0000:fffa2000       .debug$S                   0000000180000000     kernel32:KERNEL32.dll
 0000:fffa2000       .debug$S                   0000000180000000     kernel32:KERNEL32.dll
 0000:fffa2000       .debug$S                   0000000180000000     kernel32:KERNEL32.dll
 0000:fffa2000       .debug$S                   0000000180000000     kernel32:KERNEL32.dll
 0000:fffa2000       .debug$S                   0000000180000000     kernel32:KERNEL32.dll
 0000:fffa2000       .debug$S                   0000000180000000     kernel32:KERNEL32.dll
 0000:fffa2000       .debug$S                   0000000180000000     kernel32:KERNEL32.dll
 0000:fffa2000       .debug$S                   0000000180000000     kernel32:KERNEL32.dll
 0000:fffa2000       .debug$S                   0000000180000000     kernel32:KERNEL32.dll
 0000:fffa2000       .debug$S                   0000000180000000     kernel32:KERNEL32.dll
 0000:fffa2000       .debug$S                   0000000180000000     kernel32:KERNEL32.dll
 0000:fffa2000       .debug$S                   0000000180000000     kernel32:KERNEL32.dll
 0000:fffa2000       .debug$S                   0000000180000000     kernel32:KERNEL32.dll
 0000:fffa2000       .debug$S                   0000000180000000     kernel32:KERNEL32.dll
 0000:fffa2000       .debug$S                   0000000180000000     kernel32:KERNEL32.dll
 0000:fffa2000       .debug$S                   0000000180000000     kernel32:KERNEL32.dll
 0000:fffa2000       .debug$S                   0000000180000000     kernel32:KERNEL32.dll
 0000:fffa2000       .debug$S                   0000000180000000     kernel32:KERNEL32.dll
 0000:fffa2000       .debug$S                   0000000180000000     kernel32:KERNEL32.dll
 0000:fffa2000       .debug$S                   0000000180000000     kernel32:KERNEL32.dll
 0000:fffa2000       .debug$S                   0000000180000000     kernel32:KERNEL32.dll
 0000:fffa2000       .debug$S                   0000000180000000     kernel32:KERNEL32.dll
 0000:fffa2000       .debug$S                   0000000180000000     kernel32:KERNEL32.dll
 0000:fffa2000       .debug$S                   0000000180000000     kernel32:KERNEL32.dll
 0000:fffa2000       .debug$S                   0000000180000000     kernel32:KERNEL32.dll
 0000:fffa2000       .debug$S                   0000000180000000     kernel32:KERNEL32.dll
 0000:fffa2000       .debug$S                   0000000180000000     kernel32:KERNEL32.dll
 0000:fffa2000       .debug$S                   0000000180000000     kernel32:KERNEL32.dll
 0000:fffa2000       .debug$S                   0000000180000000     kernel32:KERNEL32.dll
 0000:fffa2000       .debug$S                   0000000180000000     kernel32:KERNEL32.dll
 0000:fffa2000       .debug$S                   0000000180000000     kernel32:KERNEL32.dll
 0000:fffa2000       .debug$S                   0000000180000000     kernel32:KERNEL32.dll
 0000:fffa2000       .debug$S                   0000000180000000     kernel32:KERNEL32.dll
 0000:fffa2000       .debug$S                   0000000180000000     kernel32:KERNEL32.dll
 0001:00000000       ??__EmaxFError@_VecMathTests@aos@shdfnd@physx@@YAXXZ 0000000180001000 f   Cooking.obj
 0001:00000020       ??__EmaxV3Error@_VecMathTests@aos@shdfnd@physx@@YAXXZ 0000000180001020 f   Cooking.obj
 0001:00000030       ??__EmaxV4Error@_VecMathTests@aos@shdfnd@physx@@YAXXZ 0000000180001030 f   Cooking.obj
 0001:00000050       ??__EminFError@_VecMathTests@aos@shdfnd@physx@@YAXXZ 0000000180001050 f   Cooking.obj
 0001:00000070       ??__EminV3Error@_VecMathTests@aos@shdfnd@physx@@YAXXZ 0000000180001070 f   Cooking.obj
 0001:00000080       ??__EminV4Error@_VecMathTests@aos@shdfnd@physx@@YAXXZ 0000000180001080 f   Cooking.obj
 0001:000000a0       ??__EmaxFError@_VecMathTests@aos@shdfnd@physx@@YAXXZ 00000001800010a0 f   BVHStructureBuilder.obj
 0001:000000c0       ??__EmaxV3Error@_VecMathTests@aos@shdfnd@physx@@YAXXZ 00000001800010c0 f   BVHStructureBuilder.obj
 0001:000000d0       ??__EmaxV4Error@_VecMathTests@aos@shdfnd@physx@@YAXXZ 00000001800010d0 f   BVHStructureBuilder.obj
 0001:000000f0       ??__EminFError@_VecMathTests@aos@shdfnd@physx@@YAXXZ 00000001800010f0 f   BVHStructureBuilder.obj
 0001:00000110       ??__EminV3Error@_VecMathTests@aos@shdfnd@physx@@YAXXZ 0000000180001110 f   BVHStructureBuilder.obj
 0001:00000120       ??__EminV4Error@_VecMathTests@aos@shdfnd@physx@@YAXXZ 0000000180001120 f   BVHStructureBuilder.obj
 0001:00000140       ??__EmaxFError@_VecMathTests@aos@shdfnd@physx@@YAXXZ 0000000180001140 f   RTreeCooking.obj
 0001:00000160       ??__EmaxV3Error@_VecMathTests@aos@shdfnd@physx@@YAXXZ 0000000180001160 f   RTreeCooking.obj
 0001:00000170       ??__EmaxV4Error@_VecMathTests@aos@shdfnd@physx@@YAXXZ 0000000180001170 f   RTreeCooking.obj
 0001:00000190       ??__EminFError@_VecMathTests@aos@shdfnd@physx@@YAXXZ 0000000180001190 f   RTreeCooking.obj
 0001:000001b0       ??__EminV3Error@_VecMathTests@aos@shdfnd@physx@@YAXXZ 00000001800011b0 f   RTreeCooking.obj
 0001:000001c0       ??__EminV4Error@_VecMathTests@aos@shdfnd@physx@@YAXXZ 00000001800011c0 f   RTreeCooking.obj
 0001:000001e0       ??__EmaxFError@_VecMathTests@aos@shdfnd@physx@@YAXXZ 00000001800011e0 f   MeshBuilder.obj
 0001:00000200       ??__EmaxV3Error@_VecMathTests@aos@shdfnd@physx@@YAXXZ 0000000180001200 f   MeshBuilder.obj
 0001:00000210       ??__EmaxV4Error@_VecMathTests@aos@shdfnd@physx@@YAXXZ 0000000180001210 f   MeshBuilder.obj
 0001:00000230       ??__EminFError@_VecMathTests@aos@shdfnd@physx@@YAXXZ 0000000180001230 f   MeshBuilder.obj
 0001:00000250       ??__EminV3Error@_VecMathTests@aos@shdfnd@physx@@YAXXZ 0000000180001250 f   MeshBuilder.obj
 0001:00000260       ??__EminV4Error@_VecMathTests@aos@shdfnd@physx@@YAXXZ 0000000180001260 f   MeshBuilder.obj
 0001:00000280       ??__EmaxFError@_VecMathTests@aos@shdfnd@physx@@YAXXZ 0000000180001280 f   TriangleMeshBuilder.obj
 0001:000002a0       ??__EmaxV3Error@_VecMathTests@aos@shdfnd@physx@@YAXXZ 00000001800012a0 f   TriangleMeshBuilder.obj
 0001:000002b0       ??__EmaxV4Error@_VecMathTests@aos@shdfnd@physx@@YAXXZ 00000001800012b0 f   TriangleMeshBuilder.obj
 0001:000002d0       ??__EminFError@_VecMathTests@aos@shdfnd@physx@@YAXXZ 00000001800012d0 f   TriangleMeshBuilder.obj
 0001:000002f0       ??__EminV3Error@_VecMathTests@aos@shdfnd@physx@@YAXXZ 00000001800012f0 f   TriangleMeshBuilder.obj
 0001:00000300       ??__EminV4Error@_VecMathTests@aos@shdfnd@physx@@YAXXZ 0000000180001300 f   TriangleMeshBuilder.obj
 0001:00000320       ??__EmaxFError@_VecMathTests@aos@shdfnd@physx@@YAXXZ 0000000180001320 f   BigConvexDataBuilder.obj
 0001:00000340       ??__EmaxV3Error@_VecMathTests@aos@shdfnd@physx@@YAXXZ 0000000180001340 f   BigConvexDataBuilder.obj
 0001:00000350       ??__EmaxV4Error@_VecMathTests@aos@shdfnd@physx@@YAXXZ 0000000180001350 f   BigConvexDataBuilder.obj
 0001:00000370       ??__EminFError@_VecMathTests@aos@shdfnd@physx@@YAXXZ 0000000180001370 f   BigConvexDataBuilder.obj
 0001:00000390       ??__EminV3Error@_VecMathTests@aos@shdfnd@physx@@YAXXZ 0000000180001390 f   BigConvexDataBuilder.obj
 0001:000003a0       ??__EminV4Error@_VecMathTests@aos@shdfnd@physx@@YAXXZ 00000001800013a0 f   BigConvexDataBuilder.obj
 0001:000003c0       ??__EmaxFError@_VecMathTests@aos@shdfnd@physx@@YAXXZ 00000001800013c0 f   ConvexHullBuilder.obj
 0001:000003e0       ??__EmaxV3Error@_VecMathTests@aos@shdfnd@physx@@YAXXZ 00000001800013e0 f   ConvexHullBuilder.obj
 0001:000003f0       ??__EmaxV4Error@_VecMathTests@aos@shdfnd@physx@@YAXXZ 00000001800013f0 f   ConvexHullBuilder.obj
 0001:00000410       ??__EminFError@_VecMathTests@aos@shdfnd@physx@@YAXXZ 0000000180001410 f   ConvexHullBuilder.obj
 0001:00000430       ??__EminV3Error@_VecMathTests@aos@shdfnd@physx@@YAXXZ 0000000180001430 f   ConvexHullBuilder.obj
 0001:00000440       ??__EminV4Error@_VecMathTests@aos@shdfnd@physx@@YAXXZ 0000000180001440 f   ConvexHullBuilder.obj
 0001:00000460       ??__EmaxFError@_VecMathTests@aos@shdfnd@physx@@YAXXZ 0000000180001460 f   ConvexHullUtils.obj
 0001:00000480       ??__EmaxV3Error@_VecMathTests@aos@shdfnd@physx@@YAXXZ 0000000180001480 f   ConvexHullUtils.obj
 0001:00000490       ??__EmaxV4Error@_VecMathTests@aos@shdfnd@physx@@YAXXZ 0000000180001490 f   ConvexHullUtils.obj
 0001:000004b0       ??__EminFError@_VecMathTests@aos@shdfnd@physx@@YAXXZ 00000001800014b0 f   ConvexHullUtils.obj
 0001:000004d0       ??__EminV3Error@_VecMathTests@aos@shdfnd@physx@@YAXXZ 00000001800014d0 f   ConvexHullUtils.obj
 0001:000004e0       ??__EminV4Error@_VecMathTests@aos@shdfnd@physx@@YAXXZ 00000001800014e0 f   ConvexHullUtils.obj
 0001:00000500       ??__EmaxFError@_VecMathTests@aos@shdfnd@physx@@YAXXZ 0000000180001500 f   ConvexMeshBuilder.obj
 0001:00000520       ??__EmaxV3Error@_VecMathTests@aos@shdfnd@physx@@YAXXZ 0000000180001520 f   ConvexMeshBuilder.obj
 0001:00000530       ??__EmaxV4Error@_VecMathTests@aos@shdfnd@physx@@YAXXZ 0000000180001530 f   ConvexMeshBuilder.obj
 0001:00000550       ??__EminFError@_VecMathTests@aos@shdfnd@physx@@YAXXZ 0000000180001550 f   ConvexMeshBuilder.obj
 0001:00000570       ??__EminV3Error@_VecMathTests@aos@shdfnd@physx@@YAXXZ 0000000180001570 f   ConvexMeshBuilder.obj
 0001:00000580       ??__EminV4Error@_VecMathTests@aos@shdfnd@physx@@YAXXZ 0000000180001580 f   ConvexMeshBuilder.obj
 0001:000005a0       ??__EmaxFError@_VecMathTests@aos@shdfnd@physx@@YAXXZ 00000001800015a0 f   VolumeIntegration.obj
 0001:000005c0       ??__EmaxV3Error@_VecMathTests@aos@shdfnd@physx@@YAXXZ 00000001800015c0 f   VolumeIntegration.obj
 0001:000005d0       ??__EmaxV4Error@_VecMathTests@aos@shdfnd@physx@@YAXXZ 00000001800015d0 f   VolumeIntegration.obj
 0001:000005f0       ??__EminFError@_VecMathTests@aos@shdfnd@physx@@YAXXZ 00000001800015f0 f   VolumeIntegration.obj
 0001:00000610       ??__EminV3Error@_VecMathTests@aos@shdfnd@physx@@YAXXZ 0000000180001610 f   VolumeIntegration.obj
 0001:00000620       ??__EminV4Error@_VecMathTests@aos@shdfnd@physx@@YAXXZ 0000000180001620 f   VolumeIntegration.obj
 0001:00000790       ?AddTriangle@@YAXIIIIPEAVAdjTriangle@physx@@AEAIPEAVAdjEdge@@@Z 0000000180001790 f   Adjacencies.obj
 0001:00000910       ?CreateDatabase@@YA_NPEAVAdjTriangle@physx@@IPEBVAdjEdge@@AEBUADJACENCIESCREATE@2@@Z 0000000180001910 f   Adjacencies.obj
 0001:00000f20       ?UpdateLink@@YA_NIIIIPEAVAdjTriangle@physx@@AEBUADJACENCIESCREATE@2@@Z 0000000180001f20 f   Adjacencies.obj
 0001:00003580       ?OppositeVertex@@YAIIIIII@Z 0000000180004580 f   EdgeList.obj
 0001:00009250       ?buildFromBounds@physx@@YAXAEAURTree@Gu@1@PEBUPxBounds3V@1@IAEAV?$Array@IV?$ReflectionAllocator@I@shdfnd@physx@@@shdfnd@1@PEAURemapCallback@RTreeCooker@1@AEAT__m128@@4MW4Enum@PxMeshCookingHint@1@@Z 000000018000a250 f   RTreeCooking.obj
 0001:0000cd40       ?buildAdjacencies@physx@@YAXPEAUuint4@1@PEAVPxVec3@1@PEBV31@PEBUuint3@1@I@Z 000000018000dd40 f   TriangleMeshBuilder.obj
 0001:0000e580       ?findAdjacent@physx@@YAIPEBVPxVec3@1@0PEBUuint3@1@IIIAEBVPxPlane@1@PEAUEdgeTriLookup@1@I@Z 000000018000f580 f   TriangleMeshBuilder.obj
 0001:000129d0       ?checkPointsAABBValidity@local@@YA_NIPEBVPxVec3@physx@@IMMAEAV23@1AEAIPEAV23@_N@Z 00000001800139d0 f   ConvexHullLib.obj
 0001:00018120       ?ComputeInternalExtent@@YAXAEAUConvexHullData@Gu@physx@@PEBUHullPolygonData@23@@Z 0000000180019120 f   ConvexMeshBuilder.obj
 0001:00019710       ?CheckFloodFill@Local@?7??extractHullPolygons@@YA_NAEAIAEAV?$Array@IV?$ReflectionAllocator@I@shdfnd@physx@@@shdfnd@physx@@AEBVConvexPolygonsBuilder@5@PEAV345@1@Z@SA_N1PEAVAdjTriangle@5@PEA_NPEBI@Z 000000018001a710 f   ConvexPolygonsBuilder.obj
 0001:00019880       ?CheckFloodFillFace@Local@?7??extractHullPolygons@@YA_NAEAIAEAV?$Array@IV?$ReflectionAllocator@I@shdfnd@physx@@@shdfnd@physx@@AEBVConvexPolygonsBuilder@5@PEAV345@1@Z@SA_NIPEBVAdjTriangle@5@PEBI@Z 000000018001a880 f   ConvexPolygonsBuilder.obj
 0001:00019ac0       ?CleanFaces@@YA_NAEAIPEAU?$TriangleT@I@Gu@physx@@0PEAVPxVec3@3@@Z 000000018001aac0 f   ConvexPolygonsBuilder.obj
 0001:00019be0       ?FloodFill@Local@?7??extractHullPolygons@@YA_NAEAIAEAV?$Array@IV?$ReflectionAllocator@I@shdfnd@physx@@@shdfnd@physx@@AEBVConvexPolygonsBuilder@5@PEAV345@1@Z@SAX1PEBVAdjTriangle@5@IPEA_N@Z 000000018001abe0 f   ConvexPolygonsBuilder.obj
 0001:00019ce0       ?GetNeighborFace@Local@?7??extractHullPolygons@@YA_NAEAIAEAV?$Array@IV?$ReflectionAllocator@I@shdfnd@physx@@@shdfnd@physx@@AEBVConvexPolygonsBuilder@5@PEAV345@1@Z@SA_NIIPEBVAdjTriangle@5@PEBI00@Z 000000018001ace0 f   ConvexPolygonsBuilder.obj
 0001:00019e50       ?TestDuplicateTriangles@@YA_NAEAIPEAU?$TriangleT@I@Gu@physx@@_N@Z 000000018001ae50 f   ConvexPolygonsBuilder.obj
 0001:00019f80       ?TestUnifiedNormals@@YA_NIPEBVPxVec3@physx@@IPEAU?$TriangleT@I@Gu@2@_N@Z 000000018001af80 f   ConvexPolygonsBuilder.obj
 0001:0001a600       ?checkRedundantVertices@@YAXAEAIAEAV?$Array@IV?$ReflectionAllocator@I@shdfnd@physx@@@shdfnd@physx@@AEBVConvexPolygonsBuilder@3@11@Z 000000018001b600 f   ConvexPolygonsBuilder.obj
 0001:0001b010       ?computeNewellPlane@@YA_NAEAVPxPlane@physx@@IPEBEPEBVPxVec3@2@@Z 000000018001c010 f   ConvexPolygonsBuilder.obj
 0001:0001c4d0       ?extractHullPolygons@@YA_NAEAIAEAV?$Array@IV?$ReflectionAllocator@I@shdfnd@physx@@@shdfnd@physx@@AEBVConvexPolygonsBuilder@3@PEAV123@1@Z 000000018001d4d0 f   ConvexPolygonsBuilder.obj
 0001:0001cd40       ?findLineStrip@@YA_NAEAV?$Array@IV?$ReflectionAllocator@I@shdfnd@physx@@@shdfnd@physx@@AEBV?$Array@VPair@@V?$ReflectionAllocator@VPair@@@shdfnd@physx@@@23@@Z 000000018001dd40 f   ConvexPolygonsBuilder.obj
 0001:00024390       ?threePlaneIntersection@local@@YA?AVPxVec3@physx@@AEBVPxPlane@3@00@Z 0000000180025390 f   QuickHullConvexHullLib.obj
 0001:00024510       ?computeVolumeIntegrals@VolumeIntegratorEberly@?A0xabad1410@physx@@QEAA_NAEAUPxIntegrals@3@AEBVPxVec3@3@@Z 0000000180025510 f   VolumeIntegration.obj
 0001:00025040       ?computeVolumeIntegralsSIMD@VolumeIntegratorEberly@?A0xabad1410@physx@@QEAA_NAEAUPxIntegrals@3@AEBVPxVec3@3@@Z 0000000180026040 f   VolumeIntegration.obj
 0001:00025790       $LN12                      0000000180026790     WindowsCookingDelayLoadHook.obj
 0001:00026390       $$000000                   0000000180027390     LIBCMT:_chkstk_.obj
 0001:000263fc       ?dllmain_crt_dispatch@@YAHQEAUHINSTANCE__@@KQEAX@Z 00000001800273fc f   LIBCMT:dll_dllmain.obj
 0001:0002644c       ?dllmain_crt_process_attach@@YAHQEAUHINSTANCE__@@QEAX@Z 000000018002744c f   LIBCMT:dll_dllmain.obj
 0001:00026578       ?dllmain_crt_process_detach@@YAH_N@Z 0000000180027578 f   LIBCMT:dll_dllmain.obj
 0001:000265fc       ?dllmain_dispatch@@YAHQEAUHINSTANCE__@@KQEAX@Z 00000001800275fc f   LIBCMT:dll_dllmain.obj
 0001:000266f4       ?dllmain_raw@@YAHQEAUHINSTANCE__@@KQEAX@Z 00000001800276f4 f   LIBCMT:dll_dllmain.obj
 0001:00027050       ?<lambda_invoker_cdecl>@<lambda_c4560dd375471d1680776ed19953e709>@@CAXQEAX@Z 0000000180028050 f   libvcruntime:std_type_info.obj
 0001:00027058       ?<lambda_invoker_cdecl>@<lambda_ef76f8da19e84f0c60b24a81f5fa36d3>@@CAPEAX_K@Z 0000000180028058 f   libvcruntime:std_type_info.obj
 0001:000271b0       $$000000                   00000001800281b0     libvcruntime:memset.obj
 0001:0002729c       MsetTab                    000000018002829c     libvcruntime:memset.obj
 0001:00027360       $$000000                   0000000180028360     libvcruntime:memcpy.obj
 0001:00027407       MoveSmall                  0000000180028407     libvcruntime:memcpy.obj
 0001:0002e2c0       $$000000                   000000018002f2c0     libvcruntime:_jmpuwind_.obj
 0001:0002e578       ?try_get_function@@YAPEAXW4function_id@?A0x58e6d967@@QEBDQEBW4module_id@2@2@Z 000000018002f578 f   libvcruntime:winapi_downlevel.obj
 0001:0002e9b0       $$000000                   000000018002f9b0     libucrt:strcmp.obj
 0001:0002ee40       $$000000                   000000018002fe40     libucrt:powf.obj
 0001:0002fd10       $$000000                   0000000180030d10     libucrt:cosf.obj
 0001:00030210       $$000000                   0000000180031210     libucrt:sinf.obj
 0001:00030be0       ??$?RV<lambda_d80eeec6fff315bfe5c115232f3240e3>@@AEAV<lambda_6e4b09c48022b2350581041d5f6b0c4c>@@V<lambda_2358e3775559c9db80273638284d5e45>@@@?$__crt_seh_guarded_call@X@@QEAAX$$QEAV<lambda_d80eeec6fff315bfe5c115232f3240e3>@@AEAV<lambda_6e4b09c48022b2350581041d5f6b0c4c>@@$$QEAV<lambda_2358e3775559c9db80273638284d5e45>@@@Z 0000000180031be0 f   libucrt:exit.obj
 0001:00030c18       ??R<lambda_6e4b09c48022b2350581041d5f6b0c4c>@@QEBA@XZ 0000000180031c18 f   libucrt:exit.obj
 0001:00030cdc       ?atexit_exception_filter@@YAHK@Z 0000000180031cdc f   libucrt:exit.obj
 0001:00030ce8       ?common_exit@@YAXHW4_crt_exit_cleanup_mode@@W4_crt_exit_return_mode@@@Z 0000000180031ce8 f   libucrt:exit.obj
 0001:00030da4       ?exit_or_terminate_process@@YAXI@Z 0000000180031da4 f   libucrt:exit.obj
 0001:00030df0       ?try_cor_exit_process@@YAXI@Z 0000000180031df0 f   libucrt:exit.obj
 0001:00030e78       ??$parse_command_line@D@@YAXPEADPEAPEAD0PEA_K2@Z 0000000180031e78 f   libucrt:argv_parsing.obj
 0001:00031224       ??$common_initialize_environment_nolock@D@@YAHXZ 0000000180032224 f   libucrt:environment_initialization.obj
 0001:00031290       ??$create_environment@D@@YAQEAPEADQEAD@Z 0000000180032290 f   libucrt:environment_initialization.obj
 0001:00031398       ??$free_environment@D@@YAXQEAPEAD@Z 0000000180032398 f   libucrt:environment_initialization.obj
 0001:00031398       ??$free_environment@_W@@YAXQEAPEA_W@Z 0000000180032398 f   libucrt:environment_initialization.obj
 0001:000313dc       ??$uninitialize_environment_internal@D@@YAXAEAPEAPEAD@Z 00000001800323dc f   libucrt:environment_initialization.obj
 0001:000313f8       ??$uninitialize_environment_internal@_W@@YAXAEAPEAPEA_W@Z 00000001800323f8 f   libucrt:environment_initialization.obj
 0001:00031454       ??$?RV<lambda_638799b9deba96c50f710eeac98168cd>@@AEAV<lambda_22ebabd17bc4fa466a2aca6d8deb888d>@@V<lambda_a6f7d7db0129f75315ebf26d50c089f1>@@@?$__crt_seh_guarded_call@H@@QEAAH$$QEAV<lambda_638799b9deba96c50f710eeac98168cd>@@AEAV<lambda_22ebabd17bc4fa466a2aca6d8deb888d>@@$$QEAV<lambda_a6f7d7db0129f75315ebf26d50c089f1>@@@Z 0000000180032454 f   libucrt:onexit.obj
 0001:00031490       ??$?RV<lambda_7777bce6b2f8c936911f934f8298dc43>@@AEAV<lambda_f03950bc5685219e0bcd2087efbe011e>@@V<lambda_3883c3dff614d5e0c5f61bb1ac94921c>@@@?$__crt_seh_guarded_call@H@@QEAAH$$QEAV<lambda_7777bce6b2f8c936911f934f8298dc43>@@AEAV<lambda_f03950bc5685219e0bcd2087efbe011e>@@$$QEAV<lambda_3883c3dff614d5e0c5f61bb1ac94921c>@@@Z 0000000180032490 f   libucrt:onexit.obj
 0001:000314cc       ??R<lambda_22ebabd17bc4fa466a2aca6d8deb888d>@@QEBAHXZ 00000001800324cc f   libucrt:onexit.obj
 0001:0003167c       ??R<lambda_f03950bc5685219e0bcd2087efbe011e>@@QEBAHXZ 000000018003267c f   libucrt:onexit.obj
 0001:00031850       initialize_global_variables 0000000180032850 f   libucrt:initialization.obj
 0001:00031864       initialize_c               0000000180032864 f   libucrt:initialization.obj
 0001:00031888       report_memory_leaks        0000000180032888 f   libucrt:initialization.obj
 0001:00031888       uninitialize_c             0000000180032888 f   libucrt:initialization.obj
 0001:00031888       initialize_environment     0000000180032888 f   libucrt:initialization.obj
 0001:00031888       initialize_global_state_isolation 0000000180032888 f   libucrt:initialization.obj
 0001:00031888       uninitialize_global_state_isolation 0000000180032888 f   libucrt:initialization.obj
 0001:0003188c       uninitialize_environment   000000018003288c f   libucrt:initialization.obj
 0001:0003189c       initialize_pointers        000000018003289c f   libucrt:initialization.obj
 0001:000318dc       uninitialize_vcruntime     00000001800328dc f   libucrt:initialization.obj
 0001:000318e4       uninitialize_allocated_memory 00000001800328e4 f   libucrt:initialization.obj
 0001:00031924       uninitialize_allocated_io_buffers 0000000180032924 f   libucrt:initialization.obj
 0001:00031b78       ??$common_vsprintf@Vformat_validation_base@__crt_stdio_output@@D@@YAH_KQEAD0QEBDQEAU__crt_locale_pointers@@1@Z 0000000180032b78 f   libucrt:output.obj
 0001:00033570       _call_matherr              0000000180034570 f   libucrt:libm_error.obj
 0001:000335d8       _exception_enabled         00000001800345d8 f   libucrt:libm_error.obj
 0001:00033b20       $$000000                   0000000180034b20     libucrt:remainder_piby2f_forasm.obj
 0001:00033c70       $$000000                   0000000180034c70     libucrt:remainder_piby2_forfma3.obj
 0001:00033eec       _sincosf_special           0000000180034eec f   libucrt:sincos_special.obj
 0001:00033f90       $$000000                   0000000180034f90     libucrt:remainder_piby2f_forc.obj
 0001:0003411c       ??$?RV<lambda_0ae27a3a962d80f24befdcbee591983d>@@AEAV<lambda_8d0ee55de4b1038c4002e0adecdf1839>@@V<lambda_dc504788e8f1664fe9b84e20bfb512f2>@@@?$__crt_seh_guarded_call@X@@QEAAX$$QEAV<lambda_0ae27a3a962d80f24befdcbee591983d>@@AEAV<lambda_8d0ee55de4b1038c4002e0adecdf1839>@@$$QEAV<lambda_dc504788e8f1664fe9b84e20bfb512f2>@@@Z 000000018003511c f   libucrt:per_thread_data.obj
 0001:0003415c       ??$?RV<lambda_2d41944a1d46af3157314b8a01080d33>@@AEAV<lambda_8f455de75cd7d7f24b4096f044d8b9e6>@@V<lambda_aa500f224e6afead328df44964fe2772>@@@?$__crt_seh_guarded_call@X@@QEAAX$$QEAV<lambda_2d41944a1d46af3157314b8a01080d33>@@AEAV<lambda_8f455de75cd7d7f24b4096f044d8b9e6>@@$$QEAV<lambda_aa500f224e6afead328df44964fe2772>@@@Z 000000018003515c f   libucrt:per_thread_data.obj
 0001:0003419c       ??$?RV<lambda_aa87e3671a710a21b5dc78c0bdf72e11>@@AEAV<lambda_92619d2358a28f41a33ba319515a20b9>@@V<lambda_6992ecaafeb10aed2b74cb1fae11a551>@@@?$__crt_seh_guarded_call@X@@QEAAX$$QEAV<lambda_aa87e3671a710a21b5dc78c0bdf72e11>@@AEAV<lambda_92619d2358a28f41a33ba319515a20b9>@@$$QEAV<lambda_6992ecaafeb10aed2b74cb1fae11a551>@@@Z 000000018003519c f   libucrt:per_thread_data.obj
 0001:000341e4       ??$?RV<lambda_f2e299630e499de9f9a165e60fcd3db5>@@AEAV<lambda_2ae9d31cdba2644fcbeaf08da7c24588>@@V<lambda_40d01ff24d0e7b3814fdbdcee8eab3c7>@@@?$__crt_seh_guarded_call@X@@QEAAX$$QEAV<lambda_f2e299630e499de9f9a165e60fcd3db5>@@AEAV<lambda_2ae9d31cdba2644fcbeaf08da7c24588>@@$$QEAV<lambda_40d01ff24d0e7b3814fdbdcee8eab3c7>@@@Z 00000001800351e4 f   libucrt:per_thread_data.obj
 0001:00034244       ?construct_ptd_array@@YAXQEAU__acrt_ptd@@@Z 0000000180035244 f   libucrt:per_thread_data.obj
 0001:00034314       ?destroy_fls@@YAXPEAX@Z    0000000180035314 f   libucrt:per_thread_data.obj
 0001:00034334       ?destroy_ptd_array@@YAXQEAU__acrt_ptd@@@Z 0000000180035334 f   libucrt:per_thread_data.obj
 0001:0003442c       ?replace_current_thread_locale_nolock@@YAXQEAU__acrt_ptd@@QEAU__crt_locale_data@@@Z 000000018003542c f   libucrt:per_thread_data.obj
 0001:00034bc8       ?<lambda_invoker_cdecl>@<lambda_c2303d2482d7c3675ea2e24c4cfb6115>@@CAHPEBX0@Z 0000000180035bc8 f   libucrt:argv_wildcards.obj
 0001:00034ee0       ??$common_expand_argv_wildcards@D@@YAHQEAPEADQEAPEAPEAD@Z 0000000180035ee0 f   libucrt:argv_wildcards.obj
 0001:000350ec       ??$copy_and_add_argument_to_buffer@D@@YAHQEBD0_KAEAV?$argument_list@D@?A0x5f5c8891@@@Z 00000001800360ec f   libucrt:argv_wildcards.obj
 0001:00035274       ??$expand_argument_wildcards@D@@YAHQEAD0AEAV?$argument_list@D@?A0x5f5c8891@@@Z 0000000180036274 f   libucrt:argv_wildcards.obj
 0001:000357c0       ??$?RV<lambda_efdfa57d1f175319df784efa44bb7b81>@@AEAV<lambda_5f0a4c1567f8adc6734073e5d1e1b35c>@@V<lambda_2e8a7d3640ea6ccb4c2413664c2db6fd>@@@?$__crt_seh_guarded_call@X@@QEAAX$$QEAV<lambda_efdfa57d1f175319df784efa44bb7b81>@@AEAV<lambda_5f0a4c1567f8adc6734073e5d1e1b35c>@@$$QEAV<lambda_2e8a7d3640ea6ccb4c2413664c2db6fd>@@@Z 00000001800367c0 f   libucrt:mbctype.obj
 0001:0003597c       ?getSystemCP@@YAHH@Z       000000018003697c f   libucrt:mbctype.obj
 0001:000359fc       ?setSBCS@@YAXPEAU__crt_multibyte_data@@@Z 00000001800369fc f   libucrt:mbctype.obj
 0001:00035a8c       ?setSBUpLow@@YAXPEAU__crt_multibyte_data@@@Z 0000000180036a8c f   libucrt:mbctype.obj
 0001:00035c70       ?setmbcp_internal@@YAHH_NQEAU__acrt_ptd@@QEAPEAU__crt_multibyte_data@@@Z 0000000180036c70 f   libucrt:mbctype.obj
 0001:00035e34       ?update_thread_multibyte_data_internal@@YAPEAU__crt_multibyte_data@@QEAU__acrt_ptd@@QEAPEAU1@@Z 0000000180036e34 f   libucrt:mbctype.obj
 0001:00036224       ?x_ismbbtype_l@@YAHPEAU__crt_locale_pointers@@IHH@Z 0000000180037224 f   libucrt:ismbbyte.obj
 0001:00036568       ?try_get_function@@YAPEAXW4function_id@?A0x391cf84c@@QEBDQEBW4module_id@2@2@Z 0000000180037568 f   libucrt:winapi_thunks.obj
 0001:00036b28       ?initialize_inherited_file_handles_nolock@@YAXXZ 0000000180037b28 f   libucrt:ioinit.obj
 0001:00036c18       ?initialize_stdio_handles_nolock@@YAXXZ 0000000180037c18 f   libucrt:ioinit.obj
 0001:00036ec8       ??$?RV<lambda_450d765d439847d4c735a33c368b5fc0>@@AEAV<lambda_44731a7d0e6d81c3e6aa82d741081786>@@V<lambda_601a2a7da3b7a96e9554ac7215c4b07c>@@@?$__crt_seh_guarded_call@P6AXH@Z@@QEAAP6AXH@Z$$QEAV<lambda_450d765d439847d4c735a33c368b5fc0>@@AEAV<lambda_44731a7d0e6d81c3e6aa82d741081786>@@$$QEAV<lambda_601a2a7da3b7a96e9554ac7215c4b07c>@@@Z 0000000180037ec8 f   libucrt:signal.obj
 0001:00037224       ??$?RV<lambda_842d9ff0dc9ef11c61343bbaebe7f885>@@AEAV<lambda_c5860995281e5c4ce005b3de8f5874ee>@@V<lambda_d90129c13df834fdcbf8d2b88dafcf2d>@@@?$__crt_seh_guarded_call@X@@QEAAX$$QEAV<lambda_842d9ff0dc9ef11c61343bbaebe7f885>@@AEAV<lambda_c5860995281e5c4ce005b3de8f5874ee>@@$$QEAV<lambda_d90129c13df834fdcbf8d2b88dafcf2d>@@@Z 0000000180038224 f   libucrt:fflush.obj
 0001:000372c0       ??$?RV<lambda_886d6c58226a84441f68b9f2b8217b83>@@AEAV<lambda_ab61a845afdef5b7c387490eaf3616ee>@@V<lambda_f7f22ab5edc0698d5f6905b0d3f44752>@@@?$__crt_seh_guarded_call@X@@QEAAX$$QEAV<lambda_886d6c58226a84441f68b9f2b8217b83>@@AEAV<lambda_ab61a845afdef5b7c387490eaf3616ee>@@$$QEAV<lambda_f7f22ab5edc0698d5f6905b0d3f44752>@@@Z 00000001800382c0 f   libucrt:fflush.obj
 0001:000373a0       ?common_flush_all@@YAH_N@Z 00000001800383a0 f   libucrt:fflush.obj
 0001:00037700       ?internal_isupper_l@@YA_NHQEAU__crt_locale_pointers@@@Z 0000000180038700 f   libucrt:tolower_toupper.obj
 0001:00037fc0       ?fp_format_a@@YAHQEBNPEAD_KQEAD2H_NIQEAU__crt_locale_pointers@@@Z 0000000180038fc0 f   libucrt:cvt.obj
 0001:00038330       ?fp_format_e@@YAHQEBNQEAD_K12H_NIQEAU__crt_locale_pointers@@@Z 0000000180039330 f   libucrt:cvt.obj
 0001:0003840c       ?fp_format_e_internal@@YAHQEAD_KH_NIQEAU_strflt@@2QEAU__crt_locale_pointers@@@Z 000000018003940c f   libucrt:cvt.obj
 0001:000385e0       ?fp_format_f_internal@@YAHQEAD_KHQEAU_strflt@@_NQEAU__crt_locale_pointers@@@Z 00000001800395e0 f   libucrt:cvt.obj
 0001:00038724       ?fp_format_g@@YAHQEBNQEAD_K12H_NIQEAU__crt_locale_pointers@@@Z 0000000180039724 f   libucrt:cvt.obj
 0001:00038858       ?fp_format_nan_or_infinity@@YAHW4__acrt_fp_class@@_NPEAD_K1@Z 0000000180039858 f   libucrt:cvt.obj
 0001:00038c5c       ??$?RV<lambda_410d79af7f07d98d83a3f525b3859a53>@@AEAV<lambda_3e16ef9562a7dcce91392c22ab16ea36>@@V<lambda_38119f0e861e05405d8a144b9b982f0a>@@@?$__crt_seh_guarded_call@X@@QEAAX$$QEAV<lambda_410d79af7f07d98d83a3f525b3859a53>@@AEAV<lambda_3e16ef9562a7dcce91392c22ab16ea36>@@$$QEAV<lambda_38119f0e861e05405d8a144b9b982f0a>@@@Z 0000000180039c5c f   libucrt:wsetlocale.obj
 0001:00038e50       $$000000                   0000000180039e50     libucrt:fpsr.obj
 0001:00039ae4       fallbackMethod             000000018003aae4 f   libucrt:strpbrk.obj
 0001:00039eb4       $LN78                      000000018003aeb4     libucrt:strpbrk.obj
 0001:00039ef0       $LN77                      000000018003aef0     libucrt:strpbrk.obj
 0001:00039f30       $LN76                      000000018003af30     libucrt:strpbrk.obj
 0001:0003a00c       ?initialize_multibyte@@YAHXZ 000000018003b00c f   libucrt:multibyte_initializer.obj
 0001:0003a1b4       ?__acrt_LCMapStringA_stat@@YAHPEAU__crt_locale_pointers@@PEB_WKPEBDHPEADHHH@Z 000000018003b1b4 f   libucrt:lcmapstringa.obj
 0001:0003a648       ?GetTableIndexFromLocaleName@@YAHPEB_W@Z 000000018003b648 f   libucrt:lcidtoname_downlevel.obj
 0001:0003aa88       ??$?RV<lambda_a37b2b86f63e897a80ea819b0eb08c01>@@AEAV<lambda_38ce7e780aa69e748d6df282ebc68efe>@@V<lambda_99fb1378e971ab6e7edea83e3a7a83a2>@@@?$__crt_seh_guarded_call@H@@QEAAH$$QEAV<lambda_a37b2b86f63e897a80ea819b0eb08c01>@@AEAV<lambda_38ce7e780aa69e748d6df282ebc68efe>@@$$QEAV<lambda_99fb1378e971ab6e7edea83e3a7a83a2>@@@Z 000000018003ba88 f   libucrt:commit.obj
 0001:0003aba8       ?write_double_translated_ansi_nolock@@YA?AUwrite_result@?A0x17268360@@HQEBDI@Z 000000018003bba8 f   libucrt:write.obj
 0001:0003b084       ?write_text_ansi_nolock@@YA?AUwrite_result@?A0x17268360@@HQEBDI@Z 000000018003c084 f   libucrt:write.obj
 0001:0003b188       ?write_text_utf16le_nolock@@YA?AUwrite_result@?A0x17268360@@HQEBDI@Z 000000018003c188 f   libucrt:write.obj
 0001:0003b2a4       ?write_text_utf8_nolock@@YA?AUwrite_result@?A0x17268360@@HQEBDI@Z 000000018003c2a4 f   libucrt:write.obj
 0001:0003d330       memcpy_s                   000000018003e330 f   libucrt:cfout.obj
 0001:0003d530       ?free_crt_array_internal@@YAXQEAPEBX_K@Z 000000018003e530 f   libucrt:inittime.obj
 0001:0003d6b0       ??$common_lseek_nolock@_J@@YA_JH_JH@Z 000000018003e6b0 f   libucrt:lseek.obj
 0001:0003dbe0       $$000000                   000000018003ebe0     libucrt:log10.obj
 0001:0003e5d0       ??$?RV<lambda_751a882b2c74d4b022dec766aa51a29a>@@AEAV<lambda_628dfdc04ba53c8bfc02c9951375f3f5>@@V<lambda_f6c7be5f7998530c34de24c7437d6b54>@@@?$__crt_seh_guarded_call@H@@QEAAH$$QEAV<lambda_751a882b2c74d4b022dec766aa51a29a>@@AEAV<lambda_628dfdc04ba53c8bfc02c9951375f3f5>@@$$QEAV<lambda_f6c7be5f7998530c34de24c7437d6b54>@@@Z 000000018003f5d0 f   libucrt:close.obj
 0001:0003e860       _log_special_common        000000018003f860 f   libucrt:log_special.obj
 0001:0003ea60       $$000000                   000000018003fa60     LIBCMT:_amdsecgs_.obj
 0001:0003ec4c       capture_current_context    000000018003fc4c f   LIBCMT:gs_report.obj
 0001:0003ecbc       capture_previous_context   000000018003fcbc f   LIBCMT:gs_report.obj
 0001:0003ee70       $$000000                   000000018003fe70     libvcruntime:memcmp.obj
 0001:0003ef50       $$000000                   000000018003ff50     LIBCMT:_guard_dispatch_.obj
 0001:0003ef70       ?fin$0@?0??dllmain_crt_process_attach@@YAHQEAUHINSTANCE__@@QEAX@Z@4HA 000000018003ff70 f   LIBCMT:dll_dllmain.obj
 0001:0003ef87       ?fin$0@?0??dllmain_crt_process_detach@@YAH_N@Z@4HA 000000018003ff87 f   LIBCMT:dll_dllmain.obj
 0001:0003efa3       ?filt$0@?0??dllmain_dispatch@@YAHQEAUHINSTANCE__@@KQEAX@Z@4HA 000000018003ffa3 f   LIBCMT:dll_dllmain.obj
 0001:0003efd9       __scrt_is_nonwritable_in_current_image$filt$0 000000018003ffd9 f   LIBCMT:utility.obj
 0001:0003eff1       __unDName$fin$0            000000018003fff1 f   libvcruntime:undname.obj
 0001:0003f007       ?filt$0@?0???R<lambda_6e4b09c48022b2350581041d5f6b0c4c>@@QEBA@XZ@4HA 0000000180040007 f   libucrt:exit.obj
 0001:0003f022       _ctrlfp$filt$0             0000000180040022 f   libucrt:fpctrl.obj
 0001:0003f04e       ?fin$0@?0???$?RV<lambda_d80eeec6fff315bfe5c115232f3240e3>@@AEAV<lambda_6e4b09c48022b2350581041d5f6b0c4c>@@V<lambda_2358e3775559c9db80273638284d5e45>@@@?$__crt_seh_guarded_call@X@@QEAAX$$QEAV<lambda_d80eeec6fff315bfe5c115232f3240e3>@@AEAV<lambda_6e4b09c48022b2350581041d5f6b0c4c>@@$$QEAV<lambda_2358e3775559c9db80273638284d5e45>@@@Z@4HA 000000018004004e f   libucrt:exit.obj
 0001:0003f04e       ?fin$0@?0???$?RV<lambda_638799b9deba96c50f710eeac98168cd>@@AEAV<lambda_22ebabd17bc4fa466a2aca6d8deb888d>@@V<lambda_a6f7d7db0129f75315ebf26d50c089f1>@@@?$__crt_seh_guarded_call@H@@QEAAH$$QEAV<lambda_638799b9deba96c50f710eeac98168cd>@@AEAV<lambda_22ebabd17bc4fa466a2aca6d8deb888d>@@$$QEAV<lambda_a6f7d7db0129f75315ebf26d50c089f1>@@@Z@4HA 000000018004004e f   libucrt:onexit.obj
 0001:0003f04e       ?fin$0@?0???$?RV<lambda_f2e299630e499de9f9a165e60fcd3db5>@@AEAV<lambda_2ae9d31cdba2644fcbeaf08da7c24588>@@V<lambda_40d01ff24d0e7b3814fdbdcee8eab3c7>@@@?$__crt_seh_guarded_call@X@@QEAAX$$QEAV<lambda_f2e299630e499de9f9a165e60fcd3db5>@@AEAV<lambda_2ae9d31cdba2644fcbeaf08da7c24588>@@$$QEAV<lambda_40d01ff24d0e7b3814fdbdcee8eab3c7>@@@Z@4HA 000000018004004e f   libucrt:per_thread_data.obj
 0001:0003f04e       ?fin$0@?0???$?RV<lambda_7777bce6b2f8c936911f934f8298dc43>@@AEAV<lambda_f03950bc5685219e0bcd2087efbe011e>@@V<lambda_3883c3dff614d5e0c5f61bb1ac94921c>@@@?$__crt_seh_guarded_call@H@@QEAAH$$QEAV<lambda_7777bce6b2f8c936911f934f8298dc43>@@AEAV<lambda_f03950bc5685219e0bcd2087efbe011e>@@$$QEAV<lambda_3883c3dff614d5e0c5f61bb1ac94921c>@@@Z@4HA 000000018004004e f   libucrt:onexit.obj
 0001:0003f04e       ?fin$0@?0???$?RV<lambda_aa87e3671a710a21b5dc78c0bdf72e11>@@AEAV<lambda_92619d2358a28f41a33ba319515a20b9>@@V<lambda_6992ecaafeb10aed2b74cb1fae11a551>@@@?$__crt_seh_guarded_call@X@@QEAAX$$QEAV<lambda_aa87e3671a710a21b5dc78c0bdf72e11>@@AEAV<lambda_92619d2358a28f41a33ba319515a20b9>@@$$QEAV<lambda_6992ecaafeb10aed2b74cb1fae11a551>@@@Z@4HA 000000018004004e f   libucrt:per_thread_data.obj
 0001:0003f04e       ?fin$0@?0???$?RV<lambda_2d41944a1d46af3157314b8a01080d33>@@AEAV<lambda_8f455de75cd7d7f24b4096f044d8b9e6>@@V<lambda_aa500f224e6afead328df44964fe2772>@@@?$__crt_seh_guarded_call@X@@QEAAX$$QEAV<lambda_2d41944a1d46af3157314b8a01080d33>@@AEAV<lambda_8f455de75cd7d7f24b4096f044d8b9e6>@@$$QEAV<lambda_aa500f224e6afead328df44964fe2772>@@@Z@4HA 000000018004004e f   libucrt:per_thread_data.obj
 0001:0003f04e       ?fin$0@?0???$?RV<lambda_450d765d439847d4c735a33c368b5fc0>@@AEAV<lambda_44731a7d0e6d81c3e6aa82d741081786>@@V<lambda_601a2a7da3b7a96e9554ac7215c4b07c>@@@?$__crt_seh_guarded_call@P6AXH@Z@@QEAAP6AXH@Z$$QEAV<lambda_450d765d439847d4c735a33c368b5fc0>@@AEAV<lambda_44731a7d0e6d81c3e6aa82d741081786>@@$$QEAV<lambda_601a2a7da3b7a96e9554ac7215c4b07c>@@@Z@4HA 000000018004004e f   libucrt:signal.obj
 0001:0003f04e       ?fin$0@?0???$?RV<lambda_efdfa57d1f175319df784efa44bb7b81>@@AEAV<lambda_5f0a4c1567f8adc6734073e5d1e1b35c>@@V<lambda_2e8a7d3640ea6ccb4c2413664c2db6fd>@@@?$__crt_seh_guarded_call@X@@QEAAX$$QEAV<lambda_efdfa57d1f175319df784efa44bb7b81>@@AEAV<lambda_5f0a4c1567f8adc6734073e5d1e1b35c>@@$$QEAV<lambda_2e8a7d3640ea6ccb4c2413664c2db6fd>@@@Z@4HA 000000018004004e f   libucrt:mbctype.obj
 0001:0003f04e       ?fin$0@?0???$?RV<lambda_0ae27a3a962d80f24befdcbee591983d>@@AEAV<lambda_8d0ee55de4b1038c4002e0adecdf1839>@@V<lambda_dc504788e8f1664fe9b84e20bfb512f2>@@@?$__crt_seh_guarded_call@X@@QEAAX$$QEAV<lambda_0ae27a3a962d80f24befdcbee591983d>@@AEAV<lambda_8d0ee55de4b1038c4002e0adecdf1839>@@$$QEAV<lambda_dc504788e8f1664fe9b84e20bfb512f2>@@@Z@4HA 000000018004004e f   libucrt:per_thread_data.obj
 0001:0003f068       ?fin$0@?0??update_thread_multibyte_data_internal@@YAPEAU__crt_multibyte_data@@QEAU__acrt_ptd@@QEAPEAU1@@Z@4HA 0000000180040068 f   libucrt:mbctype.obj
 0001:0003f081       _query_new_handler$fin$0   0000000180040081 f   libucrt:new_handler.obj
 0001:0003f097       raise$fin$0                0000000180040097 f   libucrt:signal.obj
 0001:0003f0b8       ?fin$0@?0???$?RV<lambda_842d9ff0dc9ef11c61343bbaebe7f885>@@AEAV<lambda_c5860995281e5c4ce005b3de8f5874ee>@@V<lambda_d90129c13df834fdcbf8d2b88dafcf2d>@@@?$__crt_seh_guarded_call@X@@QEAAX$$QEAV<lambda_842d9ff0dc9ef11c61343bbaebe7f885>@@AEAV<lambda_c5860995281e5c4ce005b3de8f5874ee>@@$$QEAV<lambda_d90129c13df834fdcbf8d2b88dafcf2d>@@@Z@4HA 00000001800400b8 f   libucrt:fflush.obj
 0001:0003f0d3       ?fin$0@?0???$?RV<lambda_886d6c58226a84441f68b9f2b8217b83>@@AEAV<lambda_ab61a845afdef5b7c387490eaf3616ee>@@V<lambda_f7f22ab5edc0698d5f6905b0d3f44752>@@@?$__crt_seh_guarded_call@X@@QEAAX$$QEAV<lambda_886d6c58226a84441f68b9f2b8217b83>@@AEAV<lambda_ab61a845afdef5b7c387490eaf3616ee>@@$$QEAV<lambda_f7f22ab5edc0698d5f6905b0d3f44752>@@@Z@4HA 00000001800400d3 f   libucrt:fflush.obj
 0001:0003f0f0       ?fin$0@?0???$?RV<lambda_410d79af7f07d98d83a3f525b3859a53>@@AEAV<lambda_3e16ef9562a7dcce91392c22ab16ea36>@@V<lambda_38119f0e861e05405d8a144b9b982f0a>@@@?$__crt_seh_guarded_call@X@@QEAAX$$QEAV<lambda_410d79af7f07d98d83a3f525b3859a53>@@AEAV<lambda_3e16ef9562a7dcce91392c22ab16ea36>@@$$QEAV<lambda_38119f0e861e05405d8a144b9b982f0a>@@@Z@4HA 00000001800400f0 f   libucrt:wsetlocale.obj
 0001:0003f10a       __acrt_update_thread_locale_data$fin$0 000000018004010a f   libucrt:locale_refcounting.obj
 0001:0003f123       __acrt_lowio_ensure_fh_exists$fin$0 0000000180040123 f   libucrt:osfinfo.obj
 0001:0003f123       __acrt_initialize_lowio$fin$0 0000000180040123 f   libucrt:ioinit.obj
 0001:0003f13c       ?fin$0@?0???$?RV<lambda_751a882b2c74d4b022dec766aa51a29a>@@AEAV<lambda_628dfdc04ba53c8bfc02c9951375f3f5>@@V<lambda_f6c7be5f7998530c34de24c7437d6b54>@@@?$__crt_seh_guarded_call@H@@QEAAH$$QEAV<lambda_751a882b2c74d4b022dec766aa51a29a>@@AEAV<lambda_628dfdc04ba53c8bfc02c9951375f3f5>@@$$QEAV<lambda_f6c7be5f7998530c34de24c7437d6b54>@@@Z@4HA 000000018004013c f   libucrt:close.obj
 0001:0003f13c       ?fin$0@?0???$?RV<lambda_a37b2b86f63e897a80ea819b0eb08c01>@@AEAV<lambda_38ce7e780aa69e748d6df282ebc68efe>@@V<lambda_99fb1378e971ab6e7edea83e3a7a83a2>@@@?$__crt_seh_guarded_call@H@@QEAAH$$QEAV<lambda_a37b2b86f63e897a80ea819b0eb08c01>@@AEAV<lambda_38ce7e780aa69e748d6df282ebc68efe>@@$$QEAV<lambda_99fb1378e971ab6e7edea83e3a7a83a2>@@@Z@4HA 000000018004013c f   libucrt:commit.obj
 0001:0003f156       _write$fin$0               0000000180040156 f   libucrt:write.obj
 0001:0003f16d       _fcloseall$fin$0           000000018004016d f   libucrt:closeall.obj
 0001:0003f186       fclose$fin$0               0000000180040186 f   libucrt:fclose.obj
 0001:0003f1a0       _IsNonwritableInCurrentImage$filt$0 00000001800401a0 f   LIBCMT:pesect.obj
 0002:00000260       ?minFError$initializer$@_VecMathTests@aos@shdfnd@physx@@3P6AXXZEA 0000000180041260     Cooking.obj
 0002:00000268       ?maxFError$initializer$@_VecMathTests@aos@shdfnd@physx@@3P6AXXZEA 0000000180041268     Cooking.obj
 0002:00000270       ?minV3Error$initializer$@_VecMathTests@aos@shdfnd@physx@@3P6AXXZEA 0000000180041270     Cooking.obj
 0002:00000278       ?maxV3Error$initializer$@_VecMathTests@aos@shdfnd@physx@@3P6AXXZEA 0000000180041278     Cooking.obj
 0002:00000280       ?minV4Error$initializer$@_VecMathTests@aos@shdfnd@physx@@3P6AXXZEA 0000000180041280     Cooking.obj
 0002:00000288       ?maxV4Error$initializer$@_VecMathTests@aos@shdfnd@physx@@3P6AXXZEA 0000000180041288     Cooking.obj
 0002:00000290       ?minFError$initializer$@_VecMathTests@aos@shdfnd@physx@@3P6AXXZEA 0000000180041290     BVHStructureBuilder.obj
 0002:00000298       ?maxFError$initializer$@_VecMathTests@aos@shdfnd@physx@@3P6AXXZEA 0000000180041298     BVHStructureBuilder.obj
 0002:000002a0       ?minV3Error$initializer$@_VecMathTests@aos@shdfnd@physx@@3P6AXXZEA 00000001800412a0     BVHStructureBuilder.obj
 0002:000002a8       ?maxV3Error$initializer$@_VecMathTests@aos@shdfnd@physx@@3P6AXXZEA 00000001800412a8     BVHStructureBuilder.obj
 0002:000002b0       ?minV4Error$initializer$@_VecMathTests@aos@shdfnd@physx@@3P6AXXZEA 00000001800412b0     BVHStructureBuilder.obj
 0002:000002b8       ?maxV4Error$initializer$@_VecMathTests@aos@shdfnd@physx@@3P6AXXZEA 00000001800412b8     BVHStructureBuilder.obj
 0002:000002c0       ?minFError$initializer$@_VecMathTests@aos@shdfnd@physx@@3P6AXXZEA 00000001800412c0     RTreeCooking.obj
 0002:000002c8       ?maxFError$initializer$@_VecMathTests@aos@shdfnd@physx@@3P6AXXZEA 00000001800412c8     RTreeCooking.obj
 0002:000002d0       ?minV3Error$initializer$@_VecMathTests@aos@shdfnd@physx@@3P6AXXZEA 00000001800412d0     RTreeCooking.obj
 0002:000002d8       ?maxV3Error$initializer$@_VecMathTests@aos@shdfnd@physx@@3P6AXXZEA 00000001800412d8     RTreeCooking.obj
 0002:000002e0       ?minV4Error$initializer$@_VecMathTests@aos@shdfnd@physx@@3P6AXXZEA 00000001800412e0     RTreeCooking.obj
 0002:000002e8       ?maxV4Error$initializer$@_VecMathTests@aos@shdfnd@physx@@3P6AXXZEA 00000001800412e8     RTreeCooking.obj
 0002:000002f0       ?minFError$initializer$@_VecMathTests@aos@shdfnd@physx@@3P6AXXZEA 00000001800412f0     MeshBuilder.obj
 0002:000002f8       ?maxFError$initializer$@_VecMathTests@aos@shdfnd@physx@@3P6AXXZEA 00000001800412f8     MeshBuilder.obj
 0002:00000300       ?minV3Error$initializer$@_VecMathTests@aos@shdfnd@physx@@3P6AXXZEA 0000000180041300     MeshBuilder.obj
 0002:00000308       ?maxV3Error$initializer$@_VecMathTests@aos@shdfnd@physx@@3P6AXXZEA 0000000180041308     MeshBuilder.obj
 0002:00000310       ?minV4Error$initializer$@_VecMathTests@aos@shdfnd@physx@@3P6AXXZEA 0000000180041310     MeshBuilder.obj
 0002:00000318       ?maxV4Error$initializer$@_VecMathTests@aos@shdfnd@physx@@3P6AXXZEA 0000000180041318     MeshBuilder.obj
 0002:00000320       ?minFError$initializer$@_VecMathTests@aos@shdfnd@physx@@3P6AXXZEA 0000000180041320     TriangleMeshBuilder.obj
 0002:00000328       ?maxFError$initializer$@_VecMathTests@aos@shdfnd@physx@@3P6AXXZEA 0000000180041328     TriangleMeshBuilder.obj
 0002:00000330       ?minV3Error$initializer$@_VecMathTests@aos@shdfnd@physx@@3P6AXXZEA 0000000180041330     TriangleMeshBuilder.obj
 0002:00000338       ?maxV3Error$initializer$@_VecMathTests@aos@shdfnd@physx@@3P6AXXZEA 0000000180041338     TriangleMeshBuilder.obj
 0002:00000340       ?minV4Error$initializer$@_VecMathTests@aos@shdfnd@physx@@3P6AXXZEA 0000000180041340     TriangleMeshBuilder.obj
 0002:00000348       ?maxV4Error$initializer$@_VecMathTests@aos@shdfnd@physx@@3P6AXXZEA 0000000180041348     TriangleMeshBuilder.obj
 0002:00000350       ?minFError$initializer$@_VecMathTests@aos@shdfnd@physx@@3P6AXXZEA 0000000180041350     BigConvexDataBuilder.obj
 0002:00000358       ?maxFError$initializer$@_VecMathTests@aos@shdfnd@physx@@3P6AXXZEA 0000000180041358     BigConvexDataBuilder.obj
 0002:00000360       ?minV3Error$initializer$@_VecMathTests@aos@shdfnd@physx@@3P6AXXZEA 0000000180041360     BigConvexDataBuilder.obj
 0002:00000368       ?maxV3Error$initializer$@_VecMathTests@aos@shdfnd@physx@@3P6AXXZEA 0000000180041368     BigConvexDataBuilder.obj
 0002:00000370       ?minV4Error$initializer$@_VecMathTests@aos@shdfnd@physx@@3P6AXXZEA 0000000180041370     BigConvexDataBuilder.obj
 0002:00000378       ?maxV4Error$initializer$@_VecMathTests@aos@shdfnd@physx@@3P6AXXZEA 0000000180041378     BigConvexDataBuilder.obj
 0002:00000380       ?minFError$initializer$@_VecMathTests@aos@shdfnd@physx@@3P6AXXZEA 0000000180041380     ConvexHullBuilder.obj
 0002:00000388       ?maxFError$initializer$@_VecMathTests@aos@shdfnd@physx@@3P6AXXZEA 0000000180041388     ConvexHullBuilder.obj
 0002:00000390       ?minV3Error$initializer$@_VecMathTests@aos@shdfnd@physx@@3P6AXXZEA 0000000180041390     ConvexHullBuilder.obj
 0002:00000398       ?maxV3Error$initializer$@_VecMathTests@aos@shdfnd@physx@@3P6AXXZEA 0000000180041398     ConvexHullBuilder.obj
 0002:000003a0       ?minV4Error$initializer$@_VecMathTests@aos@shdfnd@physx@@3P6AXXZEA 00000001800413a0     ConvexHullBuilder.obj
 0002:000003a8       ?maxV4Error$initializer$@_VecMathTests@aos@shdfnd@physx@@3P6AXXZEA 00000001800413a8     ConvexHullBuilder.obj
 0002:000003b0       ?minFError$initializer$@_VecMathTests@aos@shdfnd@physx@@3P6AXXZEA 00000001800413b0     ConvexHullUtils.obj
 0002:000003b8       ?maxFError$initializer$@_VecMathTests@aos@shdfnd@physx@@3P6AXXZEA 00000001800413b8     ConvexHullUtils.obj
 0002:000003c0       ?minV3Error$initializer$@_VecMathTests@aos@shdfnd@physx@@3P6AXXZEA 00000001800413c0     ConvexHullUtils.obj
 0002:000003c8       ?maxV3Error$initializer$@_VecMathTests@aos@shdfnd@physx@@3P6AXXZEA 00000001800413c8     ConvexHullUtils.obj
 0002:000003d0       ?minV4Error$initializer$@_VecMathTests@aos@shdfnd@physx@@3P6AXXZEA 00000001800413d0     ConvexHullUtils.obj
 0002:000003d8       ?maxV4Error$initializer$@_VecMathTests@aos@shdfnd@physx@@3P6AXXZEA 00000001800413d8     ConvexHullUtils.obj
 0002:000003e0       ?minFError$initializer$@_VecMathTests@aos@shdfnd@physx@@3P6AXXZEA 00000001800413e0     ConvexMeshBuilder.obj
 0002:000003e8       ?maxFError$initializer$@_VecMathTests@aos@shdfnd@physx@@3P6AXXZEA 00000001800413e8     ConvexMeshBuilder.obj
 0002:000003f0       ?minV3Error$initializer$@_VecMathTests@aos@shdfnd@physx@@3P6AXXZEA 00000001800413f0     ConvexMeshBuilder.obj
 0002:000003f8       ?maxV3Error$initializer$@_VecMathTests@aos@shdfnd@physx@@3P6AXXZEA 00000001800413f8     ConvexMeshBuilder.obj
 0002:00000400       ?minV4Error$initializer$@_VecMathTests@aos@shdfnd@physx@@3P6AXXZEA 0000000180041400     ConvexMeshBuilder.obj
 0002:00000408       ?maxV4Error$initializer$@_VecMathTests@aos@shdfnd@physx@@3P6AXXZEA 0000000180041408     ConvexMeshBuilder.obj
 0002:00000410       ?minFError$initializer$@_VecMathTests@aos@shdfnd@physx@@3P6AXXZEA 0000000180041410     VolumeIntegration.obj
 0002:00000418       ?maxFError$initializer$@_VecMathTests@aos@shdfnd@physx@@3P6AXXZEA 0000000180041418     VolumeIntegration.obj
 0002:00000420       ?minV3Error$initializer$@_VecMathTests@aos@shdfnd@physx@@3P6AXXZEA 0000000180041420     VolumeIntegration.obj
 0002:00000428       ?maxV3Error$initializer$@_VecMathTests@aos@shdfnd@physx@@3P6AXXZEA 0000000180041428     VolumeIntegration.obj
 0002:00000430       ?minV4Error$initializer$@_VecMathTests@aos@shdfnd@physx@@3P6AXXZEA 0000000180041430     VolumeIntegration.obj
 0002:00000438       ?maxV4Error$initializer$@_VecMathTests@aos@shdfnd@physx@@3P6AXXZEA 0000000180041438     VolumeIntegration.obj
 0002:000005d0       ?minus1w@?A0x227c3435@aos@shdfnd@physx@@3QBMB 00000001800415d0     Cooking.obj
 0002:000005e0       ?gMaskXYZ@internalWindowsSimd@aos@shdfnd@physx@@3QBIB 00000001800415e0     Cooking.obj
 0002:00000d50       ?minus1w@?A0x64b19329@aos@shdfnd@physx@@3QBMB 0000000180041d50     BVHStructureBuilder.obj
 0002:00000d60       ?gMaskXYZ@internalWindowsSimd@aos@shdfnd@physx@@3QBIB 0000000180041d60     BVHStructureBuilder.obj
 0002:00000e10       ?minus1w@?A0xefc78b90@aos@shdfnd@physx@@3QBMB 0000000180041e10     RTreeCooking.obj
 0002:00000e20       ?gMaskXYZ@internalWindowsSimd@aos@shdfnd@physx@@3QBIB 0000000180041e20     RTreeCooking.obj
 0002:00000e30       ?stopAtTrisPerPage@physx@@3QBIB 0000000180041e30     RTreeCooking.obj
 0002:00000e70       ?stopAtTrisPerLeaf@physx@@3QBIB 0000000180041e70     RTreeCooking.obj
 0002:00000ff0       ?minus1w@?A0x43c8e138@aos@shdfnd@physx@@3QBMB 0000000180041ff0     MeshBuilder.obj
 0002:00001000       ?gMaskXYZ@internalWindowsSimd@aos@shdfnd@physx@@3QBIB 0000000180042000     MeshBuilder.obj
 0002:00001020       ?minus1w@?A0xceb489e8@aos@shdfnd@physx@@3QBMB 0000000180042020     TriangleMeshBuilder.obj
 0002:00001030       ?gMaskXYZ@internalWindowsSimd@aos@shdfnd@physx@@3QBIB 0000000180042030     TriangleMeshBuilder.obj
 0002:000013e0       ?minus1w@?A0x99cce8cb@aos@shdfnd@physx@@3QBMB 00000001800423e0     BigConvexDataBuilder.obj
 0002:000013f0       ?gMaskXYZ@internalWindowsSimd@aos@shdfnd@physx@@3QBIB 00000001800423f0     BigConvexDataBuilder.obj
 0002:00001460       ?minus1w@?A0x2a430734@aos@shdfnd@physx@@3QBMB 0000000180042460     ConvexHullBuilder.obj
 0002:00001470       ?gMaskXYZ@internalWindowsSimd@aos@shdfnd@physx@@3QBIB 0000000180042470     ConvexHullBuilder.obj
 0002:000018f0       ?minus1w@?A0xa9aaa689@aos@shdfnd@physx@@3QBMB 00000001800428f0     ConvexHullUtils.obj
 0002:00001900       ?gMaskXYZ@internalWindowsSimd@aos@shdfnd@physx@@3QBIB 0000000180042900     ConvexHullUtils.obj
 0002:00001980       ?minus1w@?A0xe4e7a761@aos@shdfnd@physx@@3QBMB 0000000180042980     ConvexMeshBuilder.obj
 0002:00001990       ?gMaskXYZ@internalWindowsSimd@aos@shdfnd@physx@@3QBIB 0000000180042990     ConvexMeshBuilder.obj
 0002:00001ef0       ?minus1w@?A0xabad1410@aos@shdfnd@physx@@3QBMB 0000000180042ef0     VolumeIntegration.obj
 0002:00001f00       ?gMaskXYZ@internalWindowsSimd@aos@shdfnd@physx@@3QBIB 0000000180042f00     VolumeIntegration.obj
 0002:00002100       ?tokenTable@@3QBQEBDB      0000000180043100     libvcruntime:undname.obj
 0002:00002170       ?nameTable@@3QBQEBDB       0000000180043170     libvcruntime:undname.obj
 0002:000023f8       ?rttiTable@@3QBQEBDB       00000001800433f8     libvcruntime:undname.obj
 0002:00002f70       ?module_names@?A0x58e6d967@@3QBQEB_WB 0000000180043f70     libvcruntime:winapi_downlevel.obj
 0002:00003040       ?candidate_modules@?1??try_get_FlsAlloc@@YAP6AKP6AXPEAX@Z@ZXZ@4QBW4module_id@?A0x58e6d967@@B 0000000180044040     libvcruntime:winapi_downlevel.obj
 0002:00003058       ?candidate_modules@?1??try_get_FlsFree@@YAP6AHK@ZXZ@4QBW4module_id@?A0x58e6d967@@B 0000000180044058     libvcruntime:winapi_downlevel.obj
 0002:00003068       ?candidate_modules@?1??try_get_FlsGetValue@@YAP6APEAXK@ZXZ@4QBW4module_id@?A0x58e6d967@@B 0000000180044068     libvcruntime:winapi_downlevel.obj
 0002:00003080       ?candidate_modules@?1??try_get_FlsSetValue@@YAP6AHKPEAX@ZXZ@4QBW4module_id@?A0x58e6d967@@B 0000000180044080     libvcruntime:winapi_downlevel.obj
 0002:00003098       ?candidate_modules@?1??try_get_InitializeCriticalSectionEx@@YAP6AHPEAU_RTL_CRITICAL_SECTION@@KK@ZXZ@4QBW4module_id@?A0x58e6d967@@B 0000000180044098     libvcruntime:winapi_downlevel.obj
 0002:000030c0       ?atan_jby256@?1??atan2f@@9@9 00000001800440c0     libucrt:atan2f.obj
 0002:000038c0       __flag_x_one_y_snan        00000001800448c0     libucrt:powf.obj
 0002:000038c4       __flag_x_zero_z_inf        00000001800448c4     libucrt:powf.obj
 0002:000038c8       __flag_x_nan               00000001800448c8     libucrt:powf.obj
 0002:000038cc       __flag_y_nan               00000001800448cc     libucrt:powf.obj
 0002:000038d0       __flag_x_nan_y_nan         00000001800448d0     libucrt:powf.obj
 0002:000038d4       __flag_x_neg_y_notint      00000001800448d4     libucrt:powf.obj
 0002:000038d8       __flag_z_zero              00000001800448d8     libucrt:powf.obj
 0002:000038dc       __flag_z_denormal          00000001800448dc     libucrt:powf.obj
 0002:000038e0       __flag_z_inf               00000001800448e0     libucrt:powf.obj
 0002:000038e4       L__1_by_3                  00000001800448e4     libucrt:powf.obj
 0002:000038ec       L__log2                    00000001800448ec     libucrt:powf.obj
 0002:000038f4       L__max_exp_arg             00000001800448f4     libucrt:powf.obj
 0002:000038fc       L__min_exp_arg             00000001800448fc     libucrt:powf.obj
 0002:00003904       L__real_log2_by_64         0000000180044904     libucrt:powf.obj
 0002:0000390c       L__1_by_6                  000000018004490c     libucrt:powf.obj
 0002:00003914       L__real_threshold          0000000180044914     libucrt:powf.obj
 0002:0000391c       L__real_one                000000018004491c     libucrt:powf.obj
 0002:00003924       L__real_two                0000000180044924     libucrt:powf.obj
 0002:0000392c       L__neg_zero                000000018004492c     libucrt:powf.obj
 0002:00003940       L__real_ca42               0000000180044940     libucrt:powf.obj
 0002:00003948       L__real_ca4                0000000180044948     libucrt:powf.obj
 0002:00003950       L__real_ca31               0000000180044950     libucrt:powf.obj
 0002:00003958       L__real_ca3                0000000180044958     libucrt:powf.obj
 0002:00003960       L__clear_sign              0000000180044960     libucrt:powf.obj
 0002:00003970       L__real_64_by_log2         0000000180044970     libucrt:powf.obj
 0002:00003980       L__1_by_2                  0000000180044980     libucrt:powf.obj
 0002:00003990       L__1023                    0000000180044990     libucrt:powf.obj
 0002:000039a0       L__xexp_bits_xmantissa_bits 00000001800449a0     libucrt:powf.obj
 0002:000041c0       L_real_one                 00000001800451c0     libucrt:cosf.obj
 0002:000041d0       L_one_half                 00000001800451d0     libucrt:cosf.obj
 0002:000041e0       L_2bypi                    00000001800451e0     libucrt:cosf.obj
 0002:000041f0       L_one_sixth                00000001800451f0     libucrt:cosf.obj
 0002:00004200       L_piby2                    0000000180045200     libucrt:cosf.obj
 0002:00004210       L_piby2_1                  0000000180045210     libucrt:cosf.obj
 0002:00004220       L_piby2_1tail              0000000180045220     libucrt:cosf.obj
 0002:00004230       L_piby2_2                  0000000180045230     libucrt:cosf.obj
 0002:00004240       L_piby2_2tail              0000000180045240     libucrt:cosf.obj
 0002:00004250       L_large_x_sse2             0000000180045250     libucrt:cosf.obj
 0002:00004260       L_large_x_fma3             0000000180045260     libucrt:cosf.obj
 0002:00004270       L_sign_mask                0000000180045270     libucrt:cosf.obj
 0002:00004280       L__int_three               0000000180045280     libucrt:cosf.obj
 0002:00004290       L__min_norm_double         0000000180045290     libucrt:cosf.obj
 0002:000042a0       L_two_to_neg_7             00000001800452a0     libucrt:cosf.obj
 0002:000042b0       L_two_to_neg_13            00000001800452b0     libucrt:cosf.obj
 0002:000042c0       L_two_to_32_float          00000001800452c0     libucrt:cosf.obj
 0002:000042c8       L_one_float                00000001800452c8     libucrt:cosf.obj
 0002:000042d0       L_inf_mask_32              00000001800452d0     libucrt:cosf.obj
 0002:000042e0       L_signbit                  00000001800452e0     libucrt:sinf.obj
 0002:000042f0       L_sign_mask                00000001800452f0     libucrt:sinf.obj
 0002:00004300       L_one                      0000000180045300     libucrt:sinf.obj
 0002:00004310       L_int_three                0000000180045310     libucrt:sinf.obj
 0002:00004320       L_one_half                 0000000180045320     libucrt:sinf.obj
 0002:00004330       L_twobypi                  0000000180045330     libucrt:sinf.obj
 0002:00004340       L_piby2_1                  0000000180045340     libucrt:sinf.obj
 0002:00004350       L_one_sixth                0000000180045350     libucrt:sinf.obj
 0002:00004360       L_piby2_1tail              0000000180045360     libucrt:sinf.obj
 0002:00004370       L_piby2_2                  0000000180045370     libucrt:sinf.obj
 0002:00004380       L_piby2_2tail              0000000180045380     libucrt:sinf.obj
 0002:00004390       L_inf_mask_32              0000000180045390     libucrt:sinf.obj
 0002:000043a0       L_int_two                  00000001800453a0     libucrt:sinf.obj
 0002:000043b0       L_piby2_lead               00000001800453b0     libucrt:sinf.obj
 0002:000043c0       L_piby4                    00000001800453c0     libucrt:sinf.obj
 0002:000043d0       L_mask_3f2                 00000001800453d0     libucrt:sinf.obj
 0002:000043e0       L_mask_3f8                 00000001800453e0     libucrt:sinf.obj
 0002:000043f0       L_large_x_fma3             00000001800453f0     libucrt:sinf.obj
 0002:000043f8       L_large_x_sse2             00000001800453f8     libucrt:sinf.obj
 0002:00004400       L_near_one                 0000000180045400     libucrt:sinf.obj
 0002:00004408       L_two_to_32                0000000180045408     libucrt:sinf.obj
 0002:00004510       __acrt_initializers        0000000180045510     libucrt:initialization.obj
 0002:000050b0       L__piby2                   00000001800460b0     libucrt:remainder_piby2f_forasm.obj
 0002:000050c0       L_piby2_lead               00000001800460c0     libucrt:remainder_piby2_forfma3.obj
 0002:000050d0       L_fff800                   00000001800460d0     libucrt:remainder_piby2_forfma3.obj
 0002:000050e0       L_piby2_part1              00000001800460e0     libucrt:remainder_piby2_forfma3.obj
 0002:000050f0       L_piby2_part2              00000001800460f0     libucrt:remainder_piby2_forfma3.obj
 0002:00005100       L_piby2_part3              0000000180046100     libucrt:remainder_piby2_forfma3.obj
 0002:00005110       L_piby2_1                  0000000180046110     libucrt:remainder_piby2_forfma3.obj
 0002:00005120       L_piby2_2                  0000000180046120     libucrt:remainder_piby2_forfma3.obj
 0002:00005130       L_piby2_3                  0000000180046130     libucrt:remainder_piby2_forfma3.obj
 0002:00005140       L_piby2_1tail              0000000180046140     libucrt:remainder_piby2_forfma3.obj
 0002:00005150       L_piby2_2tail              0000000180046150     libucrt:remainder_piby2_forfma3.obj
 0002:00005160       L_piby2_3tail              0000000180046160     libucrt:remainder_piby2_forfma3.obj
 0002:00005170       L_sign_mask                0000000180046170     libucrt:remainder_piby2_forfma3.obj
 0002:00005180       L_twobypi                  0000000180046180     libucrt:remainder_piby2_forfma3.obj
 0002:00005190       L_point_five               0000000180046190     libucrt:remainder_piby2_forfma3.obj
 0002:000051a0       L_int_three                00000001800461a0     libucrt:remainder_piby2_forfma3.obj
 0002:000051b0       L_inf_mask_64              00000001800461b0     libucrt:remainder_piby2_forfma3.obj
 0002:000051c0       L_signbit                  00000001800461c0     libucrt:remainder_piby2_forfma3.obj
 0002:000051d0       L_r                        00000001800461d0     libucrt:remainder_piby2_forfma3.obj
 0002:000051e0       L_xc1                      00000001800461e0     libucrt:remainder_piby2_forfma3.obj
 0002:000051f0       L_xc2                      00000001800461f0     libucrt:remainder_piby2_forfma3.obj
 0002:00005200       L_xc3                      0000000180046200     libucrt:remainder_piby2_forfma3.obj
 0002:00005210       L_sigma                    0000000180046210     libucrt:remainder_piby2_forfma3.obj
 0002:00005320       L__piby2                   0000000180046320     libucrt:remainder_piby2f_forc.obj
 0002:00005330       L__2_by_pi_bits            0000000180046330     libucrt:remainder_piby2f_forc.obj
 0002:000053d0       ?errtable@@3QBUerrentry@?A0x31fdb9ec@@B 00000001800463d0     libucrt:errno.obj
 0002:00005538       ?_mb_locale_names@@3QBQEB_WB 0000000180046538     libucrt:mbctype.obj
 0002:000055a0       ?module_names@?A0x391cf84c@@3QBQEB_WB 00000001800465a0     libucrt:winapi_thunks.obj
 0002:00005a98       ?candidate_modules@?1??try_get_AreFileApisANSI@@YAP6AHXZXZ@4QBW4module_id@?A0x391cf84c@@B 0000000180046a98     libucrt:winapi_thunks.obj
 0002:00005ab0       ?candidate_modules@?1??try_get_FlsAlloc@@YAP6AKP6AXPEAX@Z@ZXZ@4QBW4module_id@?A0x391cf84c@@B 0000000180046ab0     libucrt:winapi_thunks.obj
 0002:00005ab8       ?candidate_modules@?1??try_get_FlsFree@@YAP6AHK@ZXZ@4QBW4module_id@?A0x391cf84c@@B 0000000180046ab8     libucrt:winapi_thunks.obj
 0002:00005ac0       ?candidate_modules@?1??try_get_FlsGetValue@@YAP6APEAXK@ZXZ@4QBW4module_id@?A0x391cf84c@@B 0000000180046ac0     libucrt:winapi_thunks.obj
 0002:00005ac8       ?candidate_modules@?1??try_get_FlsSetValue@@YAP6AHKPEAX@ZXZ@4QBW4module_id@?A0x391cf84c@@B 0000000180046ac8     libucrt:winapi_thunks.obj
 0002:00005ad0       ?candidate_modules@?1??try_get_InitializeCriticalSectionEx@@YAP6AHPEAU_RTL_CRITICAL_SECTION@@KK@ZXZ@4QBW4module_id@?A0x391cf84c@@B 0000000180046ad0     libucrt:winapi_thunks.obj
 0002:00005ad8       ?candidate_modules@?1??try_get_LCMapStringEx@@YAP6AHPEB_WK0HPEA_WHPEAU_nlsversioninfo@@PEAX_J@ZXZ@4QBW4module_id@?A0x391cf84c@@B 0000000180046ad8     libucrt:winapi_thunks.obj
 0002:00005af0       ?candidate_modules@?1??try_get_LocaleNameToLCID@@YAP6AKPEB_WK@ZXZ@4QBW4module_id@?A0x391cf84c@@B 0000000180046af0     libucrt:winapi_thunks.obj
 0002:00005b0c       ?candidate_modules@?1??try_get_AppPolicyGetProcessTerminationMethod@@YAP6AJPEAXPEAW4AppPolicyProcessTerminationMethod@@@ZXZ@4QBW4module_id@?A0x391cf84c@@B 0000000180046b0c     libucrt:winapi_thunks.obj
 0002:00006820       __real@433fffffffffffff    0000000180047820     libucrt:fpsr.obj
 0002:00006828       __real@c33fffffffffffff    0000000180047828     libucrt:fpsr.obj
 0002:00006840       ?LcidToLocaleNameTable@?A0x881e4c05@@3QBULcidToLocaleName@1@B 0000000180047840     libucrt:lcidtoname_downlevel.obj
 0002:000082a0       ?LocaleNameToIndexTable@?A0x881e4c05@@3QBULocaleNameIndex@1@B 00000001800492a0     libucrt:lcidtoname_downlevel.obj
 0002:0000a530       __real_ninf                000000018004b530     libucrt:log10.obj
 0002:0000a540       __real_inf                 000000018004b540     libucrt:log10.obj
 0002:0000a550       __real_neg_qnan            000000018004b550     libucrt:log10.obj
 0002:0000a560       __real_qnanbit             000000018004b560     libucrt:log10.obj
 0002:0000a570       __int_1023                 000000018004b570     libucrt:log10.obj
 0002:0000a580       __mask_001                 000000018004b580     libucrt:log10.obj
 0002:0000a590       __mask_mant                000000018004b590     libucrt:log10.obj
 0002:0000a5a0       __mask_mant_top8           000000018004b5a0     libucrt:log10.obj
 0002:0000a5b0       __mask_mant9               000000018004b5b0     libucrt:log10.obj
 0002:0000a5c0       __real_log10_e             000000018004b5c0     libucrt:log10.obj
 0002:0000a5d0       __real_log10_e_lead        000000018004b5d0     libucrt:log10.obj
 0002:0000a5e0       __real_log10_e_tail        000000018004b5e0     libucrt:log10.obj
 0002:0000a5f0       __real_log10_2_lead        000000018004b5f0     libucrt:log10.obj
 0002:0000a600       __real_log10_2_tail        000000018004b600     libucrt:log10.obj
 0002:0000a610       __real_two                 000000018004b610     libucrt:log10.obj
 0002:0000a620       __real_one                 000000018004b620     libucrt:log10.obj
 0002:0000a630       __real_half                000000018004b630     libucrt:log10.obj
 0002:0000a640       __mask_100                 000000018004b640     libucrt:log10.obj
 0002:0000a650       __real_1_over_512          000000018004b650     libucrt:log10.obj
 0002:0000a660       __real_1_over_2            000000018004b660     libucrt:log10.obj
 0002:0000a670       __real_1_over_3            000000018004b670     libucrt:log10.obj
 0002:0000a680       __real_1_over_4            000000018004b680     libucrt:log10.obj
 0002:0000a690       __real_1_over_5            000000018004b690     libucrt:log10.obj
 0002:0000a6a0       __real_1_over_6            000000018004b6a0     libucrt:log10.obj
 0002:0000a6b0       __real_neg_1023            000000018004b6b0     libucrt:log10.obj
 0002:0000a6c0       __mask_2045                000000018004b6c0     libucrt:log10.obj
 0002:0000a6d0       __real_threshold           000000018004b6d0     libucrt:log10.obj
 0002:0000a6e0       __real_near_one_lt         000000018004b6e0     libucrt:log10.obj
 0002:0000a6f0       __real_near_one_gt         000000018004b6f0     libucrt:log10.obj
 0002:0000a700       __real_min_norm            000000018004b700     libucrt:log10.obj
 0002:0000a710       __real_notsign             000000018004b710     libucrt:log10.obj
 0002:0000a720       __real_ca1                 000000018004b720     libucrt:log10.obj
 0002:0000a730       __real_ca2                 000000018004b730     libucrt:log10.obj
 0002:0000a740       __real_ca3                 000000018004b740     libucrt:log10.obj
 0002:0000a750       __real_ca4                 000000018004b750     libucrt:log10.obj
 0002:0000a760       __mask_lower               000000018004b760     libucrt:log10.obj
 0002:0000a770       __flag_x_zero              000000018004b770     libucrt:log10.obj
 0002:0000a774       __flag_x_neg               000000018004b774     libucrt:log10.obj
 0002:0000a778       __flag_x_nan               000000018004b778     libucrt:log10.obj
 0002:0000b7a8       GS_ExceptionPointers       000000018004c7a8     LIBCMT:gs_report.obj
 0002:0000bf58       $chain$0$??_EPxFoundation@physx@@MEAAPEAXI@Z 000000018004cf58     Adjacencies.obj
 0002:0000bf6c       $chain$1$??_EPxFoundation@physx@@MEAAPEAXI@Z 000000018004cf6c     Adjacencies.obj
 0002:0000bf7c       $chain$0$??1Adjacencies@physx@@QEAA@XZ 000000018004cf7c     Adjacencies.obj
 0002:0000bf90       $chain$2$??1Adjacencies@physx@@QEAA@XZ 000000018004cf90     Adjacencies.obj
 0002:0000bfa4       $chain$3$??1Adjacencies@physx@@QEAA@XZ 000000018004cfa4     Adjacencies.obj
 0002:0000bfb4       $unwind$?Init@AdjacenciesBuilder@physx@@QEAA_NAEBUADJACENCIESCREATE@2@@Z 000000018004cfb4     Adjacencies.obj
 0002:0000bfc0       $chain$1$?Init@AdjacenciesBuilder@physx@@QEAA_NAEBUADJACENCIESCREATE@2@@Z 000000018004cfc0     Adjacencies.obj
 0002:0000bfd8       $chain$2$?Init@AdjacenciesBuilder@physx@@QEAA_NAEBUADJACENCIESCREATE@2@@Z 000000018004cfd8     Adjacencies.obj
 0002:0000bfec       $chain$5$?Init@AdjacenciesBuilder@physx@@QEAA_NAEBUADJACENCIESCREATE@2@@Z 000000018004cfec     Adjacencies.obj
 0002:0000c008       $chain$6$?Init@AdjacenciesBuilder@physx@@QEAA_NAEBUADJACENCIESCREATE@2@@Z 000000018004d008     Adjacencies.obj
 0002:0000c020       $chain$7$?Init@AdjacenciesBuilder@physx@@QEAA_NAEBUADJACENCIESCREATE@2@@Z 000000018004d020     Adjacencies.obj
 0002:0000c034       $chain$8$?Init@AdjacenciesBuilder@physx@@QEAA_NAEBUADJACENCIESCREATE@2@@Z 000000018004d034     Adjacencies.obj
 0002:0000c04c       $unwind$??$partition@I$$CBU?$Less@I@shdfnd@physx@@@internal@shdfnd@physx@@YAHPEAIHHAEBU?$Less@I@12@@Z 000000018004d04c     RTreeCooking.obj
 0002:0000c04c       $unwind$?AddTriangle@@YAXIIIIPEAVAdjTriangle@physx@@AEAIPEAVAdjEdge@@@Z 000000018004d04c     Adjacencies.obj
 0002:0000c058       $unwind$?UpdateLink@@YA_NIIIIPEAVAdjTriangle@physx@@AEBUADJACENCIESCREATE@2@@Z 000000018004d058     Adjacencies.obj
 0002:0000c064       $chain$3$?UpdateLink@@YA_NIIIIPEAVAdjTriangle@physx@@AEBUADJACENCIESCREATE@2@@Z 000000018004d064     Adjacencies.obj
 0002:0000c084       $chain$5$?UpdateLink@@YA_NIIIIPEAVAdjTriangle@physx@@AEBUADJACENCIESCREATE@2@@Z 000000018004d084     Adjacencies.obj
 0002:0000c09c       $chain$6$?UpdateLink@@YA_NIIIIPEAVAdjTriangle@physx@@AEBUADJACENCIESCREATE@2@@Z 000000018004d09c     Adjacencies.obj
 0002:0000c0ac       $chain$7$?UpdateLink@@YA_NIIIIPEAVAdjTriangle@physx@@AEBUADJACENCIESCREATE@2@@Z 000000018004d0ac     Adjacencies.obj
 0002:0000c0c4       $chain$8$?UpdateLink@@YA_NIIIIPEAVAdjTriangle@physx@@AEBUADJACENCIESCREATE@2@@Z 000000018004d0c4     Adjacencies.obj
 0002:0000c0d4       $unwind$?CreateDatabase@@YA_NPEAVAdjTriangle@physx@@IPEBVAdjEdge@@AEBUADJACENCIESCREATE@2@@Z 000000018004d0d4     Adjacencies.obj
 0002:0000c0f0       $unwind$PxCreateCooking    000000018004d0f0     Cooking.obj
 0002:0000c0f0       $unwind$?getCallingConvention@UnDecorator@@CA?AVDName@@XZ 000000018004d0f0     libvcruntime:undname.obj
 0002:0000c0f0       $unwind$?getTransform@Box@Gu@physx@@QEBA?AVPxTransform@3@XZ 000000018004d0f0     ConvexHullUtils.obj
 0002:0000c0fc       $unwind$?validateTriangleMesh@Cooking@physx@@UEBA_NAEBVPxTriangleMeshDesc@2@@Z 000000018004d0fc     Cooking.obj
 0002:0000c10c       $unwind$?createTriangleMesh@Cooking@physx@@UEBAPEAVPxTriangleMesh@2@AEBVPxTriangleMeshDesc@2@AEAVPxPhysicsInsertionCallback@2@PEAW4Enum@PxTriangleMeshCookingResult@2@@Z 000000018004d10c     Cooking.obj
 0002:0000c10c       $unwind$?cookConvexMesh@Cooking@physx@@UEBA_NAEBVPxConvexMeshDesc@2@AEAVPxOutputStream@2@PEAW4Enum@PxConvexMeshCookingResult@2@@Z 000000018004d10c     Cooking.obj
 0002:0000c10c       $unwind$?cookTriangleMesh@Cooking@physx@@UEBA_NAEBVPxTriangleMeshDesc@2@AEAVPxOutputStream@2@PEAW4Enum@PxTriangleMeshCookingResult@2@@Z 000000018004d10c     Cooking.obj
 0002:0000c128       $unwind$?createConvexMesh@Cooking@physx@@UEBAPEAVPxConvexMesh@2@AEBVPxConvexMeshDesc@2@AEAVPxPhysicsInsertionCallback@2@PEAW4Enum@PxConvexMeshCookingResult@2@@Z 000000018004d128     Cooking.obj
 0002:0000c148       $unwind$?validateConvexMesh@Cooking@physx@@UEBA_NAEBVPxConvexMeshDesc@2@@Z 000000018004d148     Cooking.obj
 0002:0000c158       $unwind$?computeHullPolygons@Cooking@physx@@UEBA_NAEBVPxSimpleTriangleMesh@2@AEAVPxAllocatorCallback@2@AEAIAEAPEAVPxVec3@2@2AEAPEAI2AEAPEAUPxHullPolygon@2@@Z 000000018004d158     Cooking.obj
 0002:0000c178       $unwind$?cookHeightField@Cooking@physx@@UEBA_NAEBVPxHeightFieldDesc@2@AEAVPxOutputStream@2@@Z 000000018004d178     Cooking.obj
 0002:0000c18c       $unwind$?createHeightField@Cooking@physx@@UEBAPEAVPxHeightField@2@AEBVPxHeightFieldDesc@2@AEAVPxPhysicsInsertionCallback@2@@Z 000000018004d18c     Cooking.obj
 0002:0000c18c       $unwind$?getArgumentList@UnDecorator@@CA?AVDName@@XZ 000000018004d18c     libvcruntime:undname.obj
 0002:0000c19c       $unwind$?cookBVHStructure@Cooking@physx@@UEBA_NAEBVPxBVHStructureDesc@2@AEAVPxOutputStream@2@@Z 000000018004d19c     Cooking.obj
 0002:0000c1ac       $unwind$?createBVHStructure@Cooking@physx@@UEBAPEAVPxBVHStructure@2@AEBVPxBVHStructureDesc@2@AEAVPxPhysicsInsertionCallback@2@@Z 000000018004d1ac     Cooking.obj
 0002:0000c1ac       $unwind$?DloadMakePermanentImageCommit@@YAXPEAX_K@Z 000000018004d1ac     Delayimp:delayhlp.obj
 0002:0000c1b8       $unwind$?cookConvexMeshInternal@Cooking@physx@@AEBA_NAEBVPxConvexMeshDesc@2@AEAVConvexMeshBuilder@2@PEAVConvexHullLib@2@PEAW4Enum@PxConvexMeshCookingResult@2@@Z 000000018004d1b8     Cooking.obj
 0002:0000c1d0       $chain$0$?allocate@?$ReflectionAllocator@UPxDebugLine@physx@@@shdfnd@physx@@QEAAPEAX_KPEBDH@Z 000000018004d1d0     Cooking.obj
 0002:0000c1e4       $chain$1$?allocate@?$ReflectionAllocator@UPxDebugLine@physx@@@shdfnd@physx@@QEAAPEAX_KPEBDH@Z 000000018004d1e4     Cooking.obj
 0002:0000c1f4       $chain$0$?copy@?$Array@UPxDebugLine@physx@@V?$ReflectionAllocator@UPxDebugLine@physx@@@shdfnd@2@@shdfnd@physx@@KAXPEAUPxDebugLine@3@0PEBU43@@Z 000000018004d1f4     Cooking.obj
 0002:0000c208       $chain$1$?copy@?$Array@UPxDebugLine@physx@@V?$ReflectionAllocator@UPxDebugLine@physx@@@shdfnd@2@@shdfnd@physx@@KAXPEAUPxDebugLine@3@0PEBU43@@Z 000000018004d208     Cooking.obj
 0002:0000c218       $unwind$?getHeightInternal2@HeightField@Gu@physx@@QEBAMIMM@Z 000000018004d218     Cooking.obj
 0002:0000c224       $chain$0$?getHeightInternal2@HeightField@Gu@physx@@QEBAMIMM@Z 000000018004d224     Cooking.obj
 0002:0000c238       $chain$2$?getHeightInternal2@HeightField@Gu@physx@@QEBAMIMM@Z 000000018004d238     Cooking.obj
 0002:0000c24c       $unwind$?Reduce@ReducedVertexCloud@physx@@QEAA_NPEAUREDUCEDCLOUD@2@@Z 000000018004d24c     CookingUtils.obj
 0002:0000c268       $unwind$?init@EdgeListBuilder@Gu@physx@@QEAA_NAEBUEDGELISTCREATE@23@@Z 000000018004d268     EdgeList.obj
 0002:0000c278       $unwind$?createFacesToEdges@EdgeListBuilder@Gu@physx@@AEAA_NIPEBIPEBG@Z 000000018004d278     EdgeList.obj
 0002:0000c288       $chain$0$?createFacesToEdges@EdgeListBuilder@Gu@physx@@AEAA_NIPEBIPEBG@Z 000000018004d288     EdgeList.obj
 0002:0000c29c       $chain$1$?createFacesToEdges@EdgeListBuilder@Gu@physx@@AEAA_NIPEBIPEBG@Z 000000018004d29c     EdgeList.obj
 0002:0000c2b0       $chain$2$?createFacesToEdges@EdgeListBuilder@Gu@physx@@AEAA_NIPEBIPEBG@Z 000000018004d2b0     EdgeList.obj
 0002:0000c2c4       $chain$3$?createFacesToEdges@EdgeListBuilder@Gu@physx@@AEAA_NIPEBIPEBG@Z 000000018004d2c4     EdgeList.obj
 0002:0000c2d8       $chain$4$?createFacesToEdges@EdgeListBuilder@Gu@physx@@AEAA_NIPEBIPEBG@Z 000000018004d2d8     EdgeList.obj
 0002:0000c2e8       $chain$5$?createFacesToEdges@EdgeListBuilder@Gu@physx@@AEAA_NIPEBIPEBG@Z 000000018004d2e8     EdgeList.obj
 0002:0000c2f8       $chain$6$?createFacesToEdges@EdgeListBuilder@Gu@physx@@AEAA_NIPEBIPEBG@Z 000000018004d2f8     EdgeList.obj
 0002:0000c308       $chain$7$?createFacesToEdges@EdgeListBuilder@Gu@physx@@AEAA_NIPEBIPEBG@Z 000000018004d308     EdgeList.obj
 0002:0000c318       $unwind$?createEdgesToFaces@EdgeListBuilder@Gu@physx@@AEAA_NIPEBIPEBG@Z 000000018004d318     EdgeList.obj
 0002:0000c324       $chain$1$?createEdgesToFaces@EdgeListBuilder@Gu@physx@@AEAA_NIPEBIPEBG@Z 000000018004d324     EdgeList.obj
 0002:0000c33c       $chain$2$?createEdgesToFaces@EdgeListBuilder@Gu@physx@@AEAA_NIPEBIPEBG@Z 000000018004d33c     EdgeList.obj
 0002:0000c350       $unwind$?computeActiveEdges@EdgeListBuilder@Gu@physx@@AEAA_NIPEBIPEBGPEBVPxVec3@3@M@Z 000000018004d350     EdgeList.obj
 0002:0000c360       $chain$1$?computeActiveEdges@EdgeListBuilder@Gu@physx@@AEAA_NIPEBIPEBGPEBVPxVec3@3@M@Z 000000018004d360     EdgeList.obj
 0002:0000c378       $chain$14$?computeActiveEdges@EdgeListBuilder@Gu@physx@@AEAA_NIPEBIPEBGPEBVPxVec3@3@M@Z 000000018004d378     EdgeList.obj
 0002:0000c3bc       $chain$15$?computeActiveEdges@EdgeListBuilder@Gu@physx@@AEAA_NIPEBIPEBGPEBVPxVec3@3@M@Z 000000018004d3bc     EdgeList.obj
 0002:0000c3d4       $chain$16$?computeActiveEdges@EdgeListBuilder@Gu@physx@@AEAA_NIPEBIPEBGPEBVPxVec3@3@M@Z 000000018004d3d4     EdgeList.obj
 0002:0000c3f0       $chain$17$?computeActiveEdges@EdgeListBuilder@Gu@physx@@AEAA_NIPEBIPEBGPEBVPxVec3@3@M@Z 000000018004d3f0     EdgeList.obj
 0002:0000c408       $chain$18$?computeActiveEdges@EdgeListBuilder@Gu@physx@@AEAA_NIPEBIPEBGPEBVPxVec3@3@M@Z 000000018004d408     EdgeList.obj
 0002:0000c418       $unwind$??0MeshCleaner@physx@@QEAA@IPEBVPxVec3@1@IPEBIM@Z 000000018004d418     MeshCleaner.obj
 0002:0000c424       $chain$1$??0MeshCleaner@physx@@QEAA@IPEBVPxVec3@1@IPEBIM@Z 000000018004d424     MeshCleaner.obj
 0002:0000c43c       $chain$5$??0MeshCleaner@physx@@QEAA@IPEBVPxVec3@1@IPEBIM@Z 000000018004d43c     MeshCleaner.obj
 0002:0000c45c       $chain$7$??0MeshCleaner@physx@@QEAA@IPEBVPxVec3@1@IPEBIM@Z 000000018004d45c     MeshCleaner.obj
 0002:0000c474       $chain$8$??0MeshCleaner@physx@@QEAA@IPEBVPxVec3@1@IPEBIM@Z 000000018004d474     MeshCleaner.obj
 0002:0000c488       $chain$9$??0MeshCleaner@physx@@QEAA@IPEBVPxVec3@1@IPEBIM@Z 000000018004d488     MeshCleaner.obj
 0002:0000c498       $chain$12$??0MeshCleaner@physx@@QEAA@IPEBVPxVec3@1@IPEBIM@Z 000000018004d498     MeshCleaner.obj
 0002:0000c498       $chain$10$??0MeshCleaner@physx@@QEAA@IPEBVPxVec3@1@IPEBIM@Z 000000018004d498     MeshCleaner.obj
 0002:0000c4a8       $chain$11$??0MeshCleaner@physx@@QEAA@IPEBVPxVec3@1@IPEBIM@Z 000000018004d4a8     MeshCleaner.obj
 0002:0000c4c0       $chain$13$??0MeshCleaner@physx@@QEAA@IPEBVPxVec3@1@IPEBIM@Z 000000018004d4c0     MeshCleaner.obj
 0002:0000c4dc       $chain$14$??0MeshCleaner@physx@@QEAA@IPEBVPxVec3@1@IPEBIM@Z 000000018004d4dc     MeshCleaner.obj
 0002:0000c4f4       $chain$15$??0MeshCleaner@physx@@QEAA@IPEBVPxVec3@1@IPEBIM@Z 000000018004d4f4     MeshCleaner.obj
 0002:0000c504       $unwind$??$kmeans_cluster@VPxVec3@physx@@M@@YAIPEBVPxVec3@physx@@IIPEAV01@PEAIMM@Z 000000018004d504     Quantizer.obj
 0002:0000c510       $chain$4$??$kmeans_cluster@VPxVec3@physx@@M@@YAIPEBVPxVec3@physx@@IIPEAV01@PEAIMM@Z 000000018004d510     Quantizer.obj
 0002:0000c534       $chain$6$??$kmeans_cluster@VPxVec3@physx@@M@@YAIPEBVPxVec3@physx@@IIPEAV01@PEAIMM@Z 000000018004d534     Quantizer.obj
 0002:0000c54c       $chain$9$??$kmeans_cluster@VPxVec3@physx@@M@@YAIPEBVPxVec3@physx@@IIPEAV01@PEAIMM@Z 000000018004d54c     Quantizer.obj
 0002:0000c568       $chain$10$??$kmeans_cluster@VPxVec3@physx@@M@@YAIPEBVPxVec3@physx@@IIPEAV01@PEAIMM@Z 000000018004d568     Quantizer.obj
 0002:0000c578       $chain$11$??$kmeans_cluster@VPxVec3@physx@@M@@YAIPEBVPxVec3@physx@@IIPEAV01@PEAIMM@Z 000000018004d578     Quantizer.obj
 0002:0000c58c       $chain$12$??$kmeans_cluster@VPxVec3@physx@@M@@YAIPEBVPxVec3@physx@@IIPEAV01@PEAIMM@Z 000000018004d58c     Quantizer.obj
 0002:0000c59c       $unwind$?kmeansQuantize3D@QuantizerImpl@@UEAAPEBVPxVec3@physx@@IPEBV23@I_NIAEAI@Z 000000018004d59c     Quantizer.obj
 0002:0000c5b0       $chain$1$?kmeansQuantize3D@QuantizerImpl@@UEAAPEBVPxVec3@physx@@IPEBV23@I_NIAEAI@Z 000000018004d5b0     Quantizer.obj
 0002:0000c5c8       $chain$2$?kmeansQuantize3D@QuantizerImpl@@UEAAPEBVPxVec3@physx@@IPEBV23@I_NIAEAI@Z 000000018004d5c8     Quantizer.obj
 0002:0000c5dc       $chain$3$?kmeansQuantize3D@QuantizerImpl@@UEAAPEBVPxVec3@physx@@IPEBV23@I_NIAEAI@Z 000000018004d5dc     Quantizer.obj
 0002:0000c5ec       $unwind$?normalizeInput@QuantizerImpl@@AEAAXIPEBVPxVec3@physx@@I@Z 000000018004d5ec     Quantizer.obj
 0002:0000c60c       $chain$0$?normalizeInput@QuantizerImpl@@AEAAXIPEBVPxVec3@physx@@I@Z 000000018004d60c     Quantizer.obj
 0002:0000c620       $chain$3$?normalizeInput@QuantizerImpl@@AEAAXIPEBVPxVec3@physx@@I@Z 000000018004d620     Quantizer.obj
 0002:0000c63c       $chain$4$?normalizeInput@QuantizerImpl@@AEAAXIPEBVPxVec3@physx@@I@Z 000000018004d63c     Quantizer.obj
 0002:0000c64c       $chain$5$?normalizeInput@QuantizerImpl@@AEAAXIPEBVPxVec3@physx@@I@Z 000000018004d64c     Quantizer.obj
 0002:0000c65c       $chain$7$?normalizeInput@QuantizerImpl@@AEAAXIPEBVPxVec3@physx@@I@Z 000000018004d65c     Quantizer.obj
 0002:0000c674       $chain$8$?normalizeInput@QuantizerImpl@@AEAAXIPEBVPxVec3@physx@@I@Z 000000018004d674     Quantizer.obj
 0002:0000c684       $chain$0$?allocate@?$ReflectionAllocator@VPxVec3@physx@@@shdfnd@physx@@QEAAPEAX_KPEBDH@Z 000000018004d684     Quantizer.obj
 0002:0000c698       $chain$1$?allocate@?$ReflectionAllocator@VPxVec3@physx@@@shdfnd@physx@@QEAAPEAX_KPEBDH@Z 000000018004d698     Quantizer.obj
 0002:0000c6a8       $unwind$?loadFromDesc@BVHStructureBuilder@physx@@QEAA_NAEBVPxBVHStructureDesc@2@@Z 000000018004d6a8     BVHStructureBuilder.obj
 0002:0000c6bc       $unwind$?save@BVHStructureBuilder@physx@@QEBA_NAEAVPxOutputStream@2@_N@Z 000000018004d6bc     BVHStructureBuilder.obj
 0002:0000c6cc       $chain$2$?save@BVHStructureBuilder@physx@@QEBA_NAEAVPxOutputStream@2@_N@Z 000000018004d6cc     BVHStructureBuilder.obj
 0002:0000c6e4       $chain$3$?save@BVHStructureBuilder@physx@@QEBA_NAEAVPxOutputStream@2@_N@Z 000000018004d6e4     BVHStructureBuilder.obj
 0002:0000c6f8       $chain$0$?allocate@?$ReflectionAllocator@USlab@NodeAllocator@Gu@physx@@@shdfnd@physx@@QEAAPEAX_KPEBDH@Z 000000018004d6f8     BVHStructureBuilder.obj
 0002:0000c70c       $chain$1$?allocate@?$ReflectionAllocator@USlab@NodeAllocator@Gu@physx@@@shdfnd@physx@@QEAAPEAX_KPEBDH@Z 000000018004d70c     BVHStructureBuilder.obj
 0002:0000c71c       $unwind$?flatten@@YAXAEBVNodeAllocator@Gu@physx@@PEAUBVHNode@23@@Z 000000018004d71c     BVHStructureBuilder.obj
 0002:0000c728       $chain$4$?flatten@@YAXAEBVNodeAllocator@Gu@physx@@PEAUBVHNode@23@@Z 000000018004d728     BVHStructureBuilder.obj
 0002:0000c74c       $chain$5$?flatten@@YAXAEBVNodeAllocator@Gu@physx@@PEAUBVHNode@23@@Z 000000018004d74c     BVHStructureBuilder.obj
 0002:0000c75c       $unwind$?saveHeightField@physx@@YA_NAEBVHeightField@Gu@1@AEAVPxOutputStream@1@_N@Z 000000018004d75c     HeightFieldCooking.obj
 0002:0000c76c       $chain$2$?saveHeightField@physx@@YA_NAEBVHeightField@Gu@1@AEAVPxOutputStream@1@_N@Z 000000018004d76c     HeightFieldCooking.obj
 0002:0000c784       $chain$3$?saveHeightField@physx@@YA_NAEBVHeightField@Gu@1@AEAVPxOutputStream@1@_N@Z 000000018004d784     HeightFieldCooking.obj
 0002:0000c794       $chain$0$?allocate@?$ReflectionAllocator@I@shdfnd@physx@@QEAAPEAX_KPEBDH@Z 000000018004d794     RTreeCooking.obj
 0002:0000c7a8       $chain$1$?allocate@?$ReflectionAllocator@I@shdfnd@physx@@QEAAPEAX_KPEBDH@Z 000000018004d7a8     RTreeCooking.obj
 0002:0000c7b8       $unwind$?buildFromTriangles@RTreeCooker@physx@@SAXAEAURTree@Gu@2@PEBVPxVec3@2@IPEBGPEBIIAEAV?$Array@IV?$ReflectionAllocator@I@shdfnd@physx@@@shdfnd@2@PEAURemapCallback@12@MW4Enum@PxMeshCookingHint@2@@Z 000000018004d7b8     RTreeCooking.obj
 0002:0000c7c8       $chain$6$?buildFromTriangles@RTreeCooker@physx@@SAXAEAURTree@Gu@2@PEBVPxVec3@2@IPEBGPEBIIAEAV?$Array@IV?$ReflectionAllocator@I@shdfnd@physx@@@shdfnd@2@PEAURemapCallback@12@MW4Enum@PxMeshCookingHint@2@@Z 000000018004d7c8     RTreeCooking.obj
 0002:0000c7f4       $chain$7$?buildFromTriangles@RTreeCooker@physx@@SAXAEAURTree@Gu@2@PEBVPxVec3@2@IPEBGPEBIIAEAV?$Array@IV?$ReflectionAllocator@I@shdfnd@physx@@@shdfnd@2@PEAURemapCallback@12@MW4Enum@PxMeshCookingHint@2@@Z 000000018004d7f4     RTreeCooking.obj
 0002:0000c808       $chain$8$?buildFromTriangles@RTreeCooker@physx@@SAXAEAURTree@Gu@2@PEBVPxVec3@2@IPEBGPEBIIAEAV?$Array@IV?$ReflectionAllocator@I@shdfnd@physx@@@shdfnd@2@PEAURemapCallback@12@MW4Enum@PxMeshCookingHint@2@@Z 000000018004d808     RTreeCooking.obj
 0002:0000c818       $chain$9$?buildFromTriangles@RTreeCooker@physx@@SAXAEAURTree@Gu@2@PEBVPxVec3@2@IPEBGPEBIIAEAV?$Array@IV?$ReflectionAllocator@I@shdfnd@physx@@@shdfnd@2@PEAURemapCallback@12@MW4Enum@PxMeshCookingHint@2@@Z 000000018004d818     RTreeCooking.obj
 0002:0000c828       $unwind$?buildFromBounds@physx@@YAXAEAURTree@Gu@1@PEBUPxBounds3V@1@IAEAV?$Array@IV?$ReflectionAllocator@I@shdfnd@physx@@@shdfnd@1@PEAURemapCallback@RTreeCooker@1@AEAT__m128@@4MW4Enum@PxMeshCookingHint@1@@Z 000000018004d828     RTreeCooking.obj
 0002:0000c844       $chain$0$?allocate@?$ReflectionAllocator@UPxBounds3V@physx@@@shdfnd@physx@@QEAAPEAX_KPEBDH@Z 000000018004d844     RTreeCooking.obj
 0002:0000c858       $chain$1$?allocate@?$ReflectionAllocator@UPxBounds3V@physx@@@shdfnd@physx@@QEAAPEAX_KPEBDH@Z 000000018004d858     RTreeCooking.obj
 0002:0000c868       $unwind$?sort4@SubSortQuick@physx@@QEAAXPEIAIIAEAV?$Array@URTreeNodeNQ@physx@@V?$ReflectionAllocator@URTreeNodeNQ@physx@@@shdfnd@2@@shdfnd@2@AEAIAEAUPxBounds3V@2@I@Z 000000018004d868     RTreeCooking.obj
 0002:0000c878       $chain$0$?allocate@?$ReflectionAllocator@URTreeNodeNQ@physx@@@shdfnd@physx@@QEAAPEAX_KPEBDH@Z 000000018004d878     RTreeCooking.obj
 0002:0000c88c       $chain$1$?allocate@?$ReflectionAllocator@URTreeNodeNQ@physx@@@shdfnd@physx@@QEAAPEAX_KPEBDH@Z 000000018004d88c     RTreeCooking.obj
 0002:0000c89c       $chain$0$?copy@?$Array@URTreeNodeNQ@physx@@V?$ReflectionAllocator@URTreeNodeNQ@physx@@@shdfnd@2@@shdfnd@physx@@KAXPEAURTreeNodeNQ@3@0PEBU43@@Z 000000018004d89c     RTreeCooking.obj
 0002:0000c8b0       $chain$1$?copy@?$Array@URTreeNodeNQ@physx@@V?$ReflectionAllocator@URTreeNodeNQ@physx@@@shdfnd@2@@shdfnd@physx@@KAXPEAURTreeNodeNQ@3@0PEBU43@@Z 000000018004d8b0     RTreeCooking.obj
 0002:0000c8c0       $unwind$?growAndPushBack@?$Array@VPxVec3@physx@@V?$ReflectionAllocator@VPxVec3@physx@@@shdfnd@2@@shdfnd@physx@@IEAAAEAVPxVec3@3@AEBV43@@Z 000000018004d8c0     Quantizer.obj
 0002:0000c8c0       $unwind$?outputSegment@RenderOutput@Cm@physx@@QEAAXAEBVPxVec3@3@0@Z 000000018004d8c0     Cooking.obj
 0002:0000c8c0       $unwind$?growAndPushBack@?$Array@URTreeNodeNQ@physx@@V?$ReflectionAllocator@URTreeNodeNQ@physx@@@shdfnd@2@@shdfnd@physx@@IEAAAEAURTreeNodeNQ@3@AEBU43@@Z 000000018004d8c0     RTreeCooking.obj
 0002:0000c8c0       $unwind$??$partition@I$$CBUSortBoundsPredicate@physx@@@internal@shdfnd@physx@@YAHPEAIHHAEBUSortBoundsPredicate@2@@Z 000000018004d8c0     RTreeCooking.obj
 0002:0000c8c0       $unwind$?growAndPushBack@?$Array@VPxPlane@physx@@V?$ReflectionAllocator@VPxPlane@physx@@@shdfnd@2@@shdfnd@physx@@IEAAAEAVPxPlane@3@AEBV43@@Z 000000018004d8c0     ConvexHullUtils.obj
 0002:0000c8d8       $unwind$??$quickSelectFirstK@UBoundsLTE@physx@@@quickSelect@physx@@YAXPEIAIIIIAEBUBoundsLTE@1@@Z 000000018004d8d8     RTreeCooking.obj
 0002:0000c8f4       $unwind$??0SubSortSAH@physx@@QEAA@PEAIPEBUPxBounds3V@1@IPEBI22222M@Z 000000018004d8f4     RTreeCooking.obj
 0002:0000c8f4       $unwind$_invalid_parameter 000000018004d8f4     libucrt:invalid_parameter.obj
 0002:0000c908       $unwind$?split@SubSortSAH@physx@@QEAAIPEAII@Z 000000018004d908     RTreeCooking.obj
 0002:0000c918       $chain$2$?split@SubSortSAH@physx@@QEAAIPEAII@Z 000000018004d918     RTreeCooking.obj
 0002:0000c930       $chain$6$?split@SubSortSAH@physx@@QEAAIPEAII@Z 000000018004d930     RTreeCooking.obj
 0002:0000c950       $chain$7$?split@SubSortSAH@physx@@QEAAIPEAII@Z 000000018004d950     RTreeCooking.obj
 0002:0000c968       $chain$8$?split@SubSortSAH@physx@@QEAAIPEAII@Z 000000018004d968     RTreeCooking.obj
 0002:0000c978       $unwind$?sort4@SubSortSAH@physx@@QEAAXPEAIIAEAV?$Array@URTreeNodeNQ@physx@@V?$ReflectionAllocator@URTreeNodeNQ@physx@@@shdfnd@2@@shdfnd@2@AEAIIPEAURTreeNodeNQ@2@@Z 000000018004d978     RTreeCooking.obj
 0002:0000c98c       $chain$2$?sort4@SubSortSAH@physx@@QEAAXPEAIIAEAV?$Array@URTreeNodeNQ@physx@@V?$ReflectionAllocator@URTreeNodeNQ@physx@@@shdfnd@2@@shdfnd@2@AEAIIPEAURTreeNodeNQ@2@@Z 000000018004d98c     RTreeCooking.obj
 0002:0000c9a8       $chain$4$?sort4@SubSortSAH@physx@@QEAAXPEAIIAEAV?$Array@URTreeNodeNQ@physx@@V?$ReflectionAllocator@URTreeNodeNQ@physx@@@shdfnd@2@@shdfnd@2@AEAIIPEAURTreeNodeNQ@2@@Z 000000018004d9a8     RTreeCooking.obj
 0002:0000c9c0       $chain$5$?sort4@SubSortSAH@physx@@QEAAXPEAIIAEAV?$Array@URTreeNodeNQ@physx@@V?$ReflectionAllocator@URTreeNodeNQ@physx@@@shdfnd@2@@shdfnd@2@AEAIIPEAURTreeNodeNQ@2@@Z 000000018004d9c0     RTreeCooking.obj
 0002:0000c9d0       $chain$6$?sort4@SubSortSAH@physx@@QEAAXPEAIIAEAV?$Array@URTreeNodeNQ@physx@@V?$ReflectionAllocator@URTreeNodeNQ@physx@@@shdfnd@2@@shdfnd@2@AEAIIPEAURTreeNodeNQ@2@@Z 000000018004d9d0     RTreeCooking.obj
 0002:0000c9e8       $chain$7$?sort4@SubSortSAH@physx@@QEAAXPEAIIAEAV?$Array@URTreeNodeNQ@physx@@V?$ReflectionAllocator@URTreeNodeNQ@physx@@@shdfnd@2@@shdfnd@2@AEAIIPEAURTreeNodeNQ@2@@Z 000000018004d9e8     RTreeCooking.obj
 0002:0000c9f8       $chain$1$?allocate@?$Array@UInterval@physx@@V?$InlineAllocator@$0CAAA@V?$ReflectionAllocator@UInterval@physx@@@shdfnd@physx@@@shdfnd@2@@shdfnd@physx@@IEAAPEAUInterval@3@I@Z 000000018004d9f8     RTreeCooking.obj
 0002:0000ca10       $chain$3$?allocate@?$Array@UInterval@physx@@V?$InlineAllocator@$0CAAA@V?$ReflectionAllocator@UInterval@physx@@@shdfnd@physx@@@shdfnd@2@@shdfnd@physx@@IEAAPEAUInterval@3@I@Z 000000018004da10     RTreeCooking.obj
 0002:0000ca24       $chain$4$?allocate@?$Array@UInterval@physx@@V?$InlineAllocator@$0CAAA@V?$ReflectionAllocator@UInterval@physx@@@shdfnd@physx@@@shdfnd@2@@shdfnd@physx@@IEAAPEAUInterval@3@I@Z 000000018004da24     RTreeCooking.obj
 0002:0000ca34       $chain$0$?allocate@?$ReflectionAllocator@URTreeNodeQ@Gu@physx@@@shdfnd@physx@@QEAAPEAX_KPEBDH@Z 000000018004da34     RTreeCooking.obj
 0002:0000ca48       $chain$1$?allocate@?$ReflectionAllocator@URTreeNodeQ@Gu@physx@@@shdfnd@physx@@QEAAPEAX_KPEBDH@Z 000000018004da48     RTreeCooking.obj
 0002:0000ca58       $unwind$??$sort@IU?$Less@I@shdfnd@physx@@V?$ReflectionAllocator@I@23@@shdfnd@physx@@YAXPEAIIAEBU?$Less@I@01@AEBV?$ReflectionAllocator@I@01@I@Z 000000018004da58     RTreeCooking.obj
 0002:0000ca58       $unwind$??$sort@UEdgeTriLookup@physx@@U?$Less@UEdgeTriLookup@physx@@@shdfnd@2@V?$ReflectionAllocator@UEdgeTriLookup@physx@@@42@@shdfnd@physx@@YAXPEAUEdgeTriLookup@1@IAEBU?$Less@UEdgeTriLookup@physx@@@01@AEBV?$ReflectionAllocator@UEdgeTriLookup@physx@@@01@I@Z 000000018004da58     TriangleMeshBuilder.obj
 0002:0000ca58       $unwind$??$sort@IUSortBoundsPredicate@physx@@V?$ReflectionAllocator@I@shdfnd@2@@shdfnd@physx@@YAXPEAIIAEBUSortBoundsPredicate@1@AEBV?$ReflectionAllocator@I@01@I@Z 000000018004da58     RTreeCooking.obj
 0002:0000ca74       $unwind$??$smallSort@I$$CBU?$Less@I@shdfnd@physx@@@internal@shdfnd@physx@@YAXPEAIHHAEBU?$Less@I@12@@Z 000000018004da74     RTreeCooking.obj
 0002:0000ca7c       $chain$5$??$smallSort@I$$CBU?$Less@I@shdfnd@physx@@@internal@shdfnd@physx@@YAXPEAIHHAEBU?$Less@I@12@@Z 000000018004da7c     RTreeCooking.obj
 0002:0000caa4       $chain$6$??$smallSort@I$$CBU?$Less@I@shdfnd@physx@@@internal@shdfnd@physx@@YAXPEAIHHAEBU?$Less@I@12@@Z 000000018004daa4     RTreeCooking.obj
 0002:0000cab4       $unwind$??$smallSort@I$$CBUSortBoundsPredicate@physx@@@internal@shdfnd@physx@@YAXPEAIHHAEBUSortBoundsPredicate@2@@Z 000000018004dab4     RTreeCooking.obj
 0002:0000cac0       $chain$4$??$smallSort@I$$CBUSortBoundsPredicate@physx@@@internal@shdfnd@physx@@YAXPEAIHHAEBUSortBoundsPredicate@2@@Z 000000018004dac0     RTreeCooking.obj
 0002:0000cae4       $chain$5$??$smallSort@I$$CBUSortBoundsPredicate@physx@@@internal@shdfnd@physx@@YAXPEAIHHAEBUSortBoundsPredicate@2@@Z 000000018004dae4     RTreeCooking.obj
 0002:0000caf4       $unwind$?computeLocalBounds@MeshBulider@physx@@IEAAXAEAVMeshDataBase@Gu@2@@Z 000000018004daf4     MeshBuilder.obj
 0002:0000cb04       $unwind$?allocateMaterials@TriangleMeshData@Gu@physx@@QEAAPEAGXZ 000000018004db04     TriangleMeshBuilder.obj
 0002:0000cb04       $unwind$?initialize@BigConvexDataBuilder@physx@@QEAA_NXZ 000000018004db04     BigConvexDataBuilder.obj
 0002:0000cb04       $unwind$?init@?$MemBlock@UQuickHullHalfEdge@local@@$0A@@local@@QEAAXI@Z 000000018004db04     QuickHullConvexHullLib.obj
 0002:0000cb10       $chain$0$?allocateMaterials@TriangleMeshData@Gu@physx@@QEAAPEAGXZ 000000018004db10     TriangleMeshBuilder.obj
 0002:0000cb24       $chain$1$?allocateMaterials@TriangleMeshData@Gu@physx@@QEAAPEAGXZ 000000018004db24     TriangleMeshBuilder.obj
 0002:0000cb34       $unwind$??_GRTreeTriangleData@Gu@physx@@UEAAPEAXI@Z 000000018004db34     TriangleMeshBuilder.obj
 0002:0000cb40       $chain$0$??_GRTreeTriangleData@Gu@physx@@UEAAPEAXI@Z 000000018004db40     TriangleMeshBuilder.obj
 0002:0000cb54       $chain$1$??_GRTreeTriangleData@Gu@physx@@UEAAPEAXI@Z 000000018004db54     TriangleMeshBuilder.obj
 0002:0000cb64       $unwind$?cleanMesh@TriangleMeshBuilder@physx@@QEAA_N_NPEAW4Enum@PxTriangleMeshCookingResult@2@@Z 000000018004db64     TriangleMeshBuilder.obj
 0002:0000cb74       $chain$0$?cleanMesh@TriangleMeshBuilder@physx@@QEAA_N_NPEAW4Enum@PxTriangleMeshCookingResult@2@@Z 000000018004db74     TriangleMeshBuilder.obj
 0002:0000cb88       $chain$1$?cleanMesh@TriangleMeshBuilder@physx@@QEAA_N_NPEAW4Enum@PxTriangleMeshCookingResult@2@@Z 000000018004db88     TriangleMeshBuilder.obj
 0002:0000cb98       $chain$2$?cleanMesh@TriangleMeshBuilder@physx@@QEAA_N_NPEAW4Enum@PxTriangleMeshCookingResult@2@@Z 000000018004db98     TriangleMeshBuilder.obj
 0002:0000cbac       $chain$3$?cleanMesh@TriangleMeshBuilder@physx@@QEAA_N_NPEAW4Enum@PxTriangleMeshCookingResult@2@@Z 000000018004dbac     TriangleMeshBuilder.obj
 0002:0000cbc0       $chain$4$?cleanMesh@TriangleMeshBuilder@physx@@QEAA_N_NPEAW4Enum@PxTriangleMeshCookingResult@2@@Z 000000018004dbc0     TriangleMeshBuilder.obj
 0002:0000cbd4       $chain$5$?cleanMesh@TriangleMeshBuilder@physx@@QEAA_N_NPEAW4Enum@PxTriangleMeshCookingResult@2@@Z 000000018004dbd4     TriangleMeshBuilder.obj
 0002:0000cbe8       $chain$6$?cleanMesh@TriangleMeshBuilder@physx@@QEAA_N_NPEAW4Enum@PxTriangleMeshCookingResult@2@@Z 000000018004dbe8     TriangleMeshBuilder.obj
 0002:0000cbf8       $chain$7$?cleanMesh@TriangleMeshBuilder@physx@@QEAA_N_NPEAW4Enum@PxTriangleMeshCookingResult@2@@Z 000000018004dbf8     TriangleMeshBuilder.obj
 0002:0000cc08       $chain$8$?cleanMesh@TriangleMeshBuilder@physx@@QEAA_N_NPEAW4Enum@PxTriangleMeshCookingResult@2@@Z 000000018004dc08     TriangleMeshBuilder.obj
 0002:0000cc18       $chain$9$?cleanMesh@TriangleMeshBuilder@physx@@QEAA_N_NPEAW4Enum@PxTriangleMeshCookingResult@2@@Z 000000018004dc18     TriangleMeshBuilder.obj
 0002:0000cc28       $unwind$?remapTopology@TriangleMeshBuilder@physx@@QEAAXPEBI@Z 000000018004dc28     TriangleMeshBuilder.obj
 0002:0000cc34       $chain$4$?remapTopology@TriangleMeshBuilder@physx@@QEAAXPEBI@Z 000000018004dc34     TriangleMeshBuilder.obj
 0002:0000cc58       $chain$5$?remapTopology@TriangleMeshBuilder@physx@@QEAAXPEBI@Z 000000018004dc58     TriangleMeshBuilder.obj
 0002:0000cc78       $chain$6$?remapTopology@TriangleMeshBuilder@physx@@QEAAXPEBI@Z 000000018004dc78     TriangleMeshBuilder.obj
 0002:0000cc88       $unwind$?createSharedEdgeData@TriangleMeshBuilder@physx@@QEAAX_N0@Z 000000018004dc88     TriangleMeshBuilder.obj
 0002:0000cc94       $chain$4$?createSharedEdgeData@TriangleMeshBuilder@physx@@QEAAX_N0@Z 000000018004dc94     TriangleMeshBuilder.obj
 0002:0000ccb8       $chain$5$?createSharedEdgeData@TriangleMeshBuilder@physx@@QEAAX_N0@Z 000000018004dcb8     TriangleMeshBuilder.obj
 0002:0000ccc8       $chain$0$?recordTriangleIndices@TriangleMeshBuilder@physx@@QEAAXXZ 000000018004dcc8     TriangleMeshBuilder.obj
 0002:0000ccdc       $chain$1$?recordTriangleIndices@TriangleMeshBuilder@physx@@QEAAXXZ 000000018004dcdc     TriangleMeshBuilder.obj
 0002:0000ccf0       $chain$2$?recordTriangleIndices@TriangleMeshBuilder@physx@@QEAAXXZ 000000018004dcf0     TriangleMeshBuilder.obj
 0002:0000cd00       $chain$3$?recordTriangleIndices@TriangleMeshBuilder@physx@@QEAAXXZ 000000018004dd00     TriangleMeshBuilder.obj
 0002:0000cd10       $unwind$?createGRBMidPhaseAndData@TriangleMeshBuilder@physx@@QEAAXI@Z 000000018004dd10     TriangleMeshBuilder.obj
 0002:0000cd1c       $chain$1$?createGRBMidPhaseAndData@TriangleMeshBuilder@physx@@QEAAXI@Z 000000018004dd1c     TriangleMeshBuilder.obj
 0002:0000cd34       $chain$2$?createGRBMidPhaseAndData@TriangleMeshBuilder@physx@@QEAAXI@Z 000000018004dd34     TriangleMeshBuilder.obj
 0002:0000cd48       $chain$3$?createGRBMidPhaseAndData@TriangleMeshBuilder@physx@@QEAAXI@Z 000000018004dd48     TriangleMeshBuilder.obj
 0002:0000cd58       $chain$4$?createGRBMidPhaseAndData@TriangleMeshBuilder@physx@@QEAAXI@Z 000000018004dd58     TriangleMeshBuilder.obj
 0002:0000cd6c       $chain$5$?createGRBMidPhaseAndData@TriangleMeshBuilder@physx@@QEAAXI@Z 000000018004dd6c     TriangleMeshBuilder.obj
 0002:0000cd7c       $unwind$?loadFromDesc@TriangleMeshBuilder@physx@@QEAA_NAEBVPxTriangleMeshDesc@2@PEAW4Enum@PxTriangleMeshCookingResult@2@_N@Z 000000018004dd7c     TriangleMeshBuilder.obj
 0002:0000cd8c       $chain$0$?loadFromDesc@TriangleMeshBuilder@physx@@QEAA_NAEBVPxTriangleMeshDesc@2@PEAW4Enum@PxTriangleMeshCookingResult@2@_N@Z 000000018004dd8c     TriangleMeshBuilder.obj
 0002:0000cda0       $chain$1$?loadFromDesc@TriangleMeshBuilder@physx@@QEAA_NAEBVPxTriangleMeshDesc@2@PEAW4Enum@PxTriangleMeshCookingResult@2@_N@Z 000000018004dda0     TriangleMeshBuilder.obj
 0002:0000cdb4       $chain$2$?loadFromDesc@TriangleMeshBuilder@physx@@QEAA_NAEBVPxTriangleMeshDesc@2@PEAW4Enum@PxTriangleMeshCookingResult@2@_N@Z 000000018004ddb4     TriangleMeshBuilder.obj
 0002:0000cdc8       $chain$3$?loadFromDesc@TriangleMeshBuilder@physx@@QEAA_NAEBVPxTriangleMeshDesc@2@PEAW4Enum@PxTriangleMeshCookingResult@2@_N@Z 000000018004ddc8     TriangleMeshBuilder.obj
 0002:0000cdd8       $chain$4$?loadFromDesc@TriangleMeshBuilder@physx@@QEAA_NAEBVPxTriangleMeshDesc@2@PEAW4Enum@PxTriangleMeshCookingResult@2@_N@Z 000000018004ddd8     TriangleMeshBuilder.obj
 0002:0000cde8       $chain$6$?loadFromDesc@TriangleMeshBuilder@physx@@QEAA_NAEBVPxTriangleMeshDesc@2@PEAW4Enum@PxTriangleMeshCookingResult@2@_N@Z 000000018004dde8     TriangleMeshBuilder.obj
 0002:0000cdfc       $chain$7$?loadFromDesc@TriangleMeshBuilder@physx@@QEAA_NAEBVPxTriangleMeshDesc@2@PEAW4Enum@PxTriangleMeshCookingResult@2@_N@Z 000000018004ddfc     TriangleMeshBuilder.obj
 0002:0000ce0c       $unwind$?save@TriangleMeshBuilder@physx@@QEBA_NAEAVPxOutputStream@2@_NAEBUPxCookingParams@2@@Z 000000018004de0c     TriangleMeshBuilder.obj
 0002:0000ce20       $chain$3$?save@TriangleMeshBuilder@physx@@QEBA_NAEAVPxOutputStream@2@_NAEBUPxCookingParams@2@@Z 000000018004de20     TriangleMeshBuilder.obj
 0002:0000ce3c       $chain$4$?save@TriangleMeshBuilder@physx@@QEBA_NAEAVPxOutputStream@2@_NAEBUPxCookingParams@2@@Z 000000018004de3c     TriangleMeshBuilder.obj
 0002:0000ce54       $unwind$?checkMeshIndicesSize@TriangleMeshBuilder@physx@@QEAAXXZ 000000018004de54     TriangleMeshBuilder.obj
 0002:0000ce60       $chain$1$?checkMeshIndicesSize@TriangleMeshBuilder@physx@@QEAAXXZ 000000018004de60     TriangleMeshBuilder.obj
 0002:0000ce78       $chain$2$?checkMeshIndicesSize@TriangleMeshBuilder@physx@@QEAAXXZ 000000018004de78     TriangleMeshBuilder.obj
 0002:0000ce8c       $chain$3$?checkMeshIndicesSize@TriangleMeshBuilder@physx@@QEAAXXZ 000000018004de8c     TriangleMeshBuilder.obj
 0002:0000ce9c       $chain$4$?checkMeshIndicesSize@TriangleMeshBuilder@physx@@QEAAXXZ 000000018004de9c     TriangleMeshBuilder.obj
 0002:0000ceac       $unwind$?createEdgeList@TriangleMeshBuilder@physx@@IEAAXXZ 000000018004deac     TriangleMeshBuilder.obj
 0002:0000cebc       $unwind$?reset@?$MemBlock@UQuickHullHalfEdge@local@@$0A@@local@@QEAAXXZ 000000018004debc     QuickHullConvexHullLib.obj
 0002:0000cebc       $unwind$??YDName@@QEAAAEAV0@D@Z 000000018004debc     libvcruntime:undname.obj
 0002:0000cebc       $unwind$?reset@?$MemBlock@UQuickHullFace@local@@$00@local@@QEAAXXZ 000000018004debc     QuickHullConvexHullLib.obj
 0002:0000cebc       $unwind$??1RTreeTriangleMeshBuilder@physx@@UEAA@XZ 000000018004debc     TriangleMeshBuilder.obj
 0002:0000cec8       $chain$0$??1RTreeTriangleMeshBuilder@physx@@UEAA@XZ 000000018004dec8     TriangleMeshBuilder.obj
 0002:0000cedc       $chain$1$??1RTreeTriangleMeshBuilder@physx@@UEAA@XZ 000000018004dedc     TriangleMeshBuilder.obj
 0002:0000ceec       $unwind$?createMidPhaseStructure@RTreeTriangleMeshBuilder@physx@@UEAAXXZ 000000018004deec     TriangleMeshBuilder.obj
 0002:0000cef4       $unwind$?saveMidPhaseStructure@RTreeTriangleMeshBuilder@physx@@UEBAXAEAVPxOutputStream@2@_N@Z 000000018004def4     TriangleMeshBuilder.obj
 0002:0000cf04       $chain$0$?saveMidPhaseStructure@RTreeTriangleMeshBuilder@physx@@UEBAXAEAVPxOutputStream@2@_N@Z 000000018004df04     TriangleMeshBuilder.obj
 0002:0000cf18       $chain$1$?saveMidPhaseStructure@RTreeTriangleMeshBuilder@physx@@UEBAXAEAVPxOutputStream@2@_N@Z 000000018004df18     TriangleMeshBuilder.obj
 0002:0000cf28       $unwind$?createMidPhaseStructure@BV4TriangleMeshBuilder@physx@@UEAAXXZ 000000018004df28     TriangleMeshBuilder.obj
 0002:0000cf34       $chain$3$?createMidPhaseStructure@BV4TriangleMeshBuilder@physx@@UEAAXXZ 000000018004df34     TriangleMeshBuilder.obj
 0002:0000cf54       $chain$4$?createMidPhaseStructure@BV4TriangleMeshBuilder@physx@@UEAAXXZ 000000018004df54     TriangleMeshBuilder.obj
 0002:0000cf68       $chain$5$?createMidPhaseStructure@BV4TriangleMeshBuilder@physx@@UEAAXXZ 000000018004df68     TriangleMeshBuilder.obj
 0002:0000cf78       $chain$6$?createMidPhaseStructure@BV4TriangleMeshBuilder@physx@@UEAAXXZ 000000018004df78     TriangleMeshBuilder.obj
 0002:0000cf88       $unwind$?saveMidPhaseStructure@BV4TriangleMeshBuilder@physx@@UEBAXAEAVPxOutputStream@2@_N@Z 000000018004df88     TriangleMeshBuilder.obj
 0002:0000cf94       $unwind$?createMidPhaseStructure@BV32TriangleMeshBuilder@physx@@SAXAEBUPxCookingParams@2@AEAVTriangleMeshData@Gu@2@AEAVBV32Tree@52@@Z 000000018004df94     TriangleMeshBuilder.obj
 0002:0000cfa4       $chain$0$?createMidPhaseStructure@BV32TriangleMeshBuilder@physx@@SAXAEBUPxCookingParams@2@AEAVTriangleMeshData@Gu@2@AEAVBV32Tree@52@@Z 000000018004dfa4     TriangleMeshBuilder.obj
 0002:0000cfb8       $chain$1$?createMidPhaseStructure@BV32TriangleMeshBuilder@physx@@SAXAEBUPxCookingParams@2@AEAVTriangleMeshData@Gu@2@AEAVBV32Tree@52@@Z 000000018004dfb8     TriangleMeshBuilder.obj
 0002:0000cfc8       $unwind$?saveMidPhaseStructure@BV32TriangleMeshBuilder@physx@@SAXPEAVBV32Tree@Gu@2@AEAVPxOutputStream@2@_N@Z 000000018004dfc8     TriangleMeshBuilder.obj
 0002:0000cfd8       $chain$1$?saveMidPhaseStructure@BV32TriangleMeshBuilder@physx@@SAXPEAVBV32Tree@Gu@2@AEAVPxOutputStream@2@_N@Z 000000018004dfd8     TriangleMeshBuilder.obj
 0002:0000cff0       $chain$2$?saveMidPhaseStructure@BV32TriangleMeshBuilder@physx@@SAXPEAVBV32Tree@Gu@2@AEAVPxOutputStream@2@_N@Z 000000018004dff0     TriangleMeshBuilder.obj
 0002:0000d000       $unwind$?findAdjacent@physx@@YAIPEBVPxVec3@1@0PEBUuint3@1@IIIAEBVPxPlane@1@PEAUEdgeTriLookup@1@I@Z 000000018004e000     TriangleMeshBuilder.obj
 0002:0000d024       $unwind$?buildAdjacencies@physx@@YAXPEAUuint4@1@PEAVPxVec3@1@PEBV31@PEBUuint3@1@I@Z 000000018004e024     TriangleMeshBuilder.obj
 0002:0000d030       $chain$7$?buildAdjacencies@physx@@YAXPEAUuint4@1@PEAVPxVec3@1@PEBV31@PEBUuint3@1@I@Z 000000018004e030     TriangleMeshBuilder.obj
 0002:0000d060       $chain$10$?buildAdjacencies@physx@@YAXPEAUuint4@1@PEAVPxVec3@1@PEBV31@PEBUuint3@1@I@Z 000000018004e060     TriangleMeshBuilder.obj
 0002:0000d07c       $chain$11$?buildAdjacencies@physx@@YAXPEAUuint4@1@PEAVPxVec3@1@PEBV31@PEBUuint3@1@I@Z 000000018004e07c     TriangleMeshBuilder.obj
 0002:0000d08c       $chain$12$?buildAdjacencies@physx@@YAXPEAUuint4@1@PEAVPxVec3@1@PEBV31@PEBUuint3@1@I@Z 000000018004e08c     TriangleMeshBuilder.obj
 0002:0000d09c       $unwind$??$smallSort@UEdgeTriLookup@physx@@$$CBU?$Less@UEdgeTriLookup@physx@@@shdfnd@2@@internal@shdfnd@physx@@YAXPEAUEdgeTriLookup@2@HHAEBU?$Less@UEdgeTriLookup@physx@@@12@@Z 000000018004e09c     TriangleMeshBuilder.obj
 0002:0000d0a8       $chain$5$??$smallSort@UEdgeTriLookup@physx@@$$CBU?$Less@UEdgeTriLookup@physx@@@shdfnd@2@@internal@shdfnd@physx@@YAXPEAUEdgeTriLookup@2@HHAEBU?$Less@UEdgeTriLookup@physx@@@12@@Z 000000018004e0a8     TriangleMeshBuilder.obj
 0002:0000d0d0       $chain$6$??$smallSort@UEdgeTriLookup@physx@@$$CBU?$Less@UEdgeTriLookup@physx@@@shdfnd@2@@internal@shdfnd@physx@@YAXPEAUEdgeTriLookup@2@HHAEBU?$Less@UEdgeTriLookup@physx@@@12@@Z 000000018004e0d0     TriangleMeshBuilder.obj
 0002:0000d0e0       $unwind$?precompute@BigConvexDataBuilder@physx@@QEAA_NI@Z 000000018004e0e0     BigConvexDataBuilder.obj
 0002:0000d0f4       $chain$12$?precompute@BigConvexDataBuilder@physx@@QEAA_NI@Z 000000018004e0f4     BigConvexDataBuilder.obj
 0002:0000d134       $chain$13$?precompute@BigConvexDataBuilder@physx@@QEAA_NI@Z 000000018004e134     BigConvexDataBuilder.obj
 0002:0000d144       $chain$0$?initialize@BigConvexDataBuilder@physx@@QEAA_NXZ 000000018004e144     BigConvexDataBuilder.obj
 0002:0000d158       $chain$1$?initialize@BigConvexDataBuilder@physx@@QEAA_NXZ 000000018004e158     BigConvexDataBuilder.obj
 0002:0000d168       $unwind$?computeValencies@BigConvexDataBuilder@physx@@QEAA_NAEBVConvexHullBuilder@2@@Z 000000018004e168     BigConvexDataBuilder.obj
 0002:0000d17c       $chain$2$?computeValencies@BigConvexDataBuilder@physx@@QEAA_NAEBVConvexHullBuilder@2@@Z 000000018004e17c     BigConvexDataBuilder.obj
 0002:0000d198       $chain$3$?computeValencies@BigConvexDataBuilder@physx@@QEAA_NAEBVConvexHullBuilder@2@@Z 000000018004e198     BigConvexDataBuilder.obj
 0002:0000d1a8       $unwind$?saveValencies@BigConvexDataBuilder@physx@@QEBA_NAEAVPxOutputStream@2@_N@Z 000000018004e1a8     BigConvexDataBuilder.obj
 0002:0000d1b4       $chain$1$?saveValencies@BigConvexDataBuilder@physx@@QEBA_NAEAVPxOutputStream@2@_N@Z 000000018004e1b4     BigConvexDataBuilder.obj
 0002:0000d1cc       $chain$2$?saveValencies@BigConvexDataBuilder@physx@@QEBA_NAEAVPxOutputStream@2@_N@Z 000000018004e1cc     BigConvexDataBuilder.obj
 0002:0000d1e0       $chain$3$?saveValencies@BigConvexDataBuilder@physx@@QEBA_NAEAVPxOutputStream@2@_N@Z 000000018004e1e0     BigConvexDataBuilder.obj
 0002:0000d1f0       $chain$4$?saveValencies@BigConvexDataBuilder@physx@@QEBA_NAEAVPxOutputStream@2@_N@Z 000000018004e1f0     BigConvexDataBuilder.obj
 0002:0000d204       $unwind$?init@ConvexHullBuilder@physx@@QEAA_NIPEBVPxVec3@2@PEBIIIPEBUPxHullPolygon@2@_NPEAVConvexHullLib@2@@Z 000000018004e204     ConvexHullBuilder.obj
 0002:0000d218       $chain$0$?init@ConvexHullBuilder@physx@@QEAA_NIPEBVPxVec3@2@PEBIIIPEBUPxHullPolygon@2@_NPEAVConvexHullLib@2@@Z 000000018004e218     ConvexHullBuilder.obj
 0002:0000d22c       $chain$1$?init@ConvexHullBuilder@physx@@QEAA_NIPEBVPxVec3@2@PEBIIIPEBUPxHullPolygon@2@_NPEAVConvexHullLib@2@@Z 000000018004e22c     ConvexHullBuilder.obj
 0002:0000d240       $chain$2$?init@ConvexHullBuilder@physx@@QEAA_NIPEBVPxVec3@2@PEBIIIPEBUPxHullPolygon@2@_NPEAVConvexHullLib@2@@Z 000000018004e240     ConvexHullBuilder.obj
 0002:0000d250       $chain$4$?init@ConvexHullBuilder@physx@@QEAA_NIPEBVPxVec3@2@PEBIIIPEBUPxHullPolygon@2@_NPEAVConvexHullLib@2@@Z 000000018004e250     ConvexHullBuilder.obj
 0002:0000d268       $chain$5$?init@ConvexHullBuilder@physx@@QEAA_NIPEBVPxVec3@2@PEBIIIPEBUPxHullPolygon@2@_NPEAVConvexHullLib@2@@Z 000000018004e268     ConvexHullBuilder.obj
 0002:0000d278       $chain$6$?init@ConvexHullBuilder@physx@@QEAA_NIPEBVPxVec3@2@PEBIIIPEBUPxHullPolygon@2@_NPEAVConvexHullLib@2@@Z 000000018004e278     ConvexHullBuilder.obj
 0002:0000d288       $unwind$?save@ConvexHullBuilder@physx@@QEBA_NAEAVPxOutputStream@2@_N@Z 000000018004e288     ConvexHullBuilder.obj
 0002:0000d298       $chain$0$?save@ConvexHullBuilder@physx@@QEBA_NAEAVPxOutputStream@2@_N@Z 000000018004e298     ConvexHullBuilder.obj
 0002:0000d2ac       $chain$3$?save@ConvexHullBuilder@physx@@QEBA_NAEAVPxOutputStream@2@_N@Z 000000018004e2ac     ConvexHullBuilder.obj
 0002:0000d2c8       $chain$4$?save@ConvexHullBuilder@physx@@QEBA_NAEAVPxOutputStream@2@_N@Z 000000018004e2c8     ConvexHullBuilder.obj
 0002:0000d2dc       $chain$5$?save@ConvexHullBuilder@physx@@QEBA_NAEAVPxOutputStream@2@_N@Z 000000018004e2dc     ConvexHullBuilder.obj
 0002:0000d2ec       $unwind$??$copy_and_add_argument_to_buffer@D@@YAHQEBD0_KAEAV?$argument_list@D@?A0x5f5c8891@@@Z 000000018004e2ec     libucrt:argv_wildcards.obj
 0002:0000d2ec       $unwind$?copy@ConvexHullBuilder@physx@@QEAA_NAEAUConvexHullData@Gu@2@AEAI@Z 000000018004e2ec     ConvexHullBuilder.obj
 0002:0000d2ec       $unwind$?importMesh@TriangleMeshBuilder@physx@@IEAA_NAEBVPxTriangleMeshDesc@2@AEBUPxCookingParams@2@PEAW4Enum@PxTriangleMeshCookingResult@2@_N@Z 000000018004e2ec     TriangleMeshBuilder.obj
 0002:0000d308       $unwind$?createEdgeList@ConvexHullBuilder@physx@@QEAA_N_NI@Z 000000018004e308     ConvexHullBuilder.obj
 0002:0000d314       $chain$5$?createEdgeList@ConvexHullBuilder@physx@@QEAA_N_NI@Z 000000018004e314     ConvexHullBuilder.obj
 0002:0000d33c       $chain$7$?createEdgeList@ConvexHullBuilder@physx@@QEAA_N_NI@Z 000000018004e33c     ConvexHullBuilder.obj
 0002:0000d364       $unwind$?checkHullPolygons@ConvexHullBuilder@physx@@QEBA_NXZ 000000018004e364     ConvexHullBuilder.obj
 0002:0000d384       $chain$11$?checkHullPolygons@ConvexHullBuilder@physx@@QEBA_NXZ 000000018004e384     ConvexHullBuilder.obj
 0002:0000d3b4       $chain$12$?checkHullPolygons@ConvexHullBuilder@physx@@QEBA_NXZ 000000018004e3b4     ConvexHullBuilder.obj
 0002:0000d3dc       $unwind$?calculateVertexMapTable@ConvexHullBuilder@physx@@QEAA_NI_N@Z 000000018004e3dc     ConvexHullBuilder.obj
 0002:0000d3ec       $chain$2$?calculateVertexMapTable@ConvexHullBuilder@physx@@QEAA_NI_N@Z 000000018004e3ec     ConvexHullBuilder.obj
 0002:0000d408       $chain$3$?calculateVertexMapTable@ConvexHullBuilder@physx@@QEAA_NI_N@Z 000000018004e408     ConvexHullBuilder.obj
 0002:0000d418       $unwind$?computeGeomCenter@ConvexHullBuilder@physx@@IEBA_NAEAVPxVec3@2@IPEAUHullTriangleData@2@@Z 000000018004e418     ConvexHullBuilder.obj
 0002:0000d420       $chain$0$?computeGeomCenter@ConvexHullBuilder@physx@@IEBA_NAEAVPxVec3@2@IPEAUHullTriangleData@2@@Z 000000018004e420     ConvexHullBuilder.obj
 0002:0000d434       $chain$7$?computeGeomCenter@ConvexHullBuilder@physx@@IEBA_NAEAVPxVec3@2@IPEAUHullTriangleData@2@@Z 000000018004e434     ConvexHullBuilder.obj
 0002:0000d460       $chain$8$?computeGeomCenter@ConvexHullBuilder@physx@@IEBA_NAEAVPxVec3@2@IPEAUHullTriangleData@2@@Z 000000018004e460     ConvexHullBuilder.obj
 0002:0000d470       $chain$9$?computeGeomCenter@ConvexHullBuilder@physx@@IEBA_NAEAVPxVec3@2@IPEAUHullTriangleData@2@@Z 000000018004e470     ConvexHullBuilder.obj
 0002:0000d480       $unwind$?cleanupVertices@ConvexHullLib@physx@@IEAA_NIPEBVPxVec3@2@IAEAIPEAV32@AEAV32@3@Z 000000018004e480     ConvexHullLib.obj
 0002:0000d4a8       $chain$8$?cleanupVertices@ConvexHullLib@physx@@IEAA_NIPEBVPxVec3@2@IAEAIPEAV32@AEAV32@3@Z 000000018004e4a8     ConvexHullLib.obj
 0002:0000d4c4       $chain$13$?cleanupVertices@ConvexHullLib@physx@@IEAA_NIPEBVPxVec3@2@IAEAIPEAV32@AEAV32@3@Z 000000018004e4c4     ConvexHullLib.obj
 0002:0000d4e8       $chain$14$?cleanupVertices@ConvexHullLib@physx@@IEAA_NIPEBVPxVec3@2@IAEAIPEAV32@AEAV32@3@Z 000000018004e4e8     ConvexHullLib.obj
 0002:0000d4f8       $chain$15$?cleanupVertices@ConvexHullLib@physx@@IEAA_NIPEBVPxVec3@2@IAEAIPEAV32@AEAV32@3@Z 000000018004e4f8     ConvexHullLib.obj
 0002:0000d508       $unwind$?shiftAndcleanupVertices@ConvexHullLib@physx@@IEAA_NIPEBVPxVec3@2@IAEAIPEAV32@AEAV32@3@Z 000000018004e508     ConvexHullLib.obj
 0002:0000d520       $chain$5$?shiftAndcleanupVertices@ConvexHullLib@physx@@IEAA_NIPEBVPxVec3@2@IAEAIPEAV32@AEAV32@3@Z 000000018004e520     ConvexHullLib.obj
 0002:0000d548       $chain$6$?shiftAndcleanupVertices@ConvexHullLib@physx@@IEAA_NIPEBVPxVec3@2@IAEAIPEAV32@AEAV32@3@Z 000000018004e548     ConvexHullLib.obj
 0002:0000d56c       $chain$8$?shiftAndcleanupVertices@ConvexHullLib@physx@@IEAA_NIPEBVPxVec3@2@IAEAIPEAV32@AEAV32@3@Z 000000018004e56c     ConvexHullLib.obj
 0002:0000d584       $chain$9$?shiftAndcleanupVertices@ConvexHullLib@physx@@IEAA_NIPEBVPxVec3@2@IAEAIPEAV32@AEAV32@3@Z 000000018004e584     ConvexHullLib.obj
 0002:0000d594       $chain$10$?shiftAndcleanupVertices@ConvexHullLib@physx@@IEAA_NIPEBVPxVec3@2@IAEAIPEAV32@AEAV32@3@Z 000000018004e594     ConvexHullLib.obj
 0002:0000d5a4       $unwind$?swapLargestFace@ConvexHullLib@physx@@IEAAXAEAVPxConvexMeshDesc@2@@Z 000000018004e5a4     ConvexHullLib.obj
 0002:0000d5b4       $chain$2$?swapLargestFace@ConvexHullLib@physx@@IEAAXAEAVPxConvexMeshDesc@2@@Z 000000018004e5b4     ConvexHullLib.obj
 0002:0000d5d0       $chain$3$?swapLargestFace@ConvexHullLib@physx@@IEAAXAEAVPxConvexMeshDesc@2@@Z 000000018004e5d0     ConvexHullLib.obj
 0002:0000d5e0       $unwind$?checkPointsAABBValidity@local@@YA_NIPEBVPxVec3@physx@@IMMAEAV23@1AEAIPEAV23@_N@Z 000000018004e5e0     ConvexHullLib.obj
 0002:0000d5f8       $chain$2$?checkPointsAABBValidity@local@@YA_NIPEBVPxVec3@physx@@IMMAEAV23@1AEAIPEAV23@_N@Z 000000018004e5f8     ConvexHullLib.obj
 0002:0000d614       $chain$3$?checkPointsAABBValidity@local@@YA_NIPEBVPxVec3@physx@@IMMAEAV23@1AEAIPEAV23@_N@Z 000000018004e614     ConvexHullLib.obj
 0002:0000d628       $chain$4$?checkPointsAABBValidity@local@@YA_NIPEBVPxVec3@physx@@IMMAEAV23@1AEAIPEAV23@_N@Z 000000018004e628     ConvexHullLib.obj
 0002:0000d638       $chain$5$?checkPointsAABBValidity@local@@YA_NIPEBVPxVec3@physx@@IMMAEAV23@1AEAIPEAV23@_N@Z 000000018004e638     ConvexHullLib.obj
 0002:0000d648       $unwind$??0PxQuat@physx@@QEAA@AEBVPxMat33@1@@Z 000000018004e648     ConvexHullUtils.obj
 0002:0000d654       $unwind$?getInverse@PxMat33@physx@@QEBA?BV12@XZ 000000018004e654     ConvexHullUtils.obj
 0002:0000d66c       $chain$5$?getInverse@PxMat33@physx@@QEBA?BV12@XZ 000000018004e66c     ConvexHullUtils.obj
 0002:0000d694       $chain$6$?getInverse@PxMat33@physx@@QEBA?BV12@XZ 000000018004e694     ConvexHullUtils.obj
 0002:0000d6a4       $unwind$??0ConvexHull@physx@@QEAA@AEBVPxVec3@1@AEBVPxTransform@1@AEBV?$Array@VPxPlane@physx@@V?$ReflectionAllocator@VPxPlane@physx@@@shdfnd@2@@shdfnd@1@@Z 000000018004e6a4     ConvexHullUtils.obj
 0002:0000d6dc       $unwind$?findCandidatePlane@ConvexHull@physx@@QEBAHMM@Z 000000018004e6dc     ConvexHullUtils.obj
 0002:0000d700       $chain$7$?findCandidatePlane@ConvexHull@physx@@QEBAHMM@Z 000000018004e700     ConvexHullUtils.obj
 0002:0000d730       $chain$8$?findCandidatePlane@ConvexHull@physx@@QEBAHMM@Z 000000018004e730     ConvexHullUtils.obj
 0002:0000d740       $unwind$?assertIntact@ConvexHull@physx@@QEBA_NM@Z 000000018004e740     ConvexHullUtils.obj
 0002:0000d754       $chain$8$?assertIntact@ConvexHull@physx@@QEBA_NM@Z 000000018004e754     ConvexHullUtils.obj
 0002:0000d788       $chain$9$?assertIntact@ConvexHull@physx@@QEBA_NM@Z 000000018004e788     ConvexHullUtils.obj
 0002:0000d798       $chain$10$?assertIntact@ConvexHull@physx@@QEBA_NM@Z 000000018004e798     ConvexHullUtils.obj
 0002:0000d7cc       $unwind$__acrt_WideCharToMultiByte 000000018004e7cc     libucrt:widechartomultibyte.obj
 0002:0000d7cc       $unwind$?maxNumVertsPerFace@ConvexHull@physx@@QEBAIXZ 000000018004e7cc     ConvexHullUtils.obj
 0002:0000d7cc       $unwind$__GSHandlerCheckCommon 000000018004e7cc     LIBCMT:_gshandler_.obj
 0002:0000d7d4       $chain$0$?maxNumVertsPerFace@ConvexHull@physx@@QEBAIXZ 000000018004e7d4     ConvexHullUtils.obj
 0002:0000d7e8       $chain$1$?maxNumVertsPerFace@ConvexHull@physx@@QEBAIXZ 000000018004e7e8     ConvexHullUtils.obj
 0002:0000d7f8       $unwind$?copyHull@ConvexHull@physx@@QEAAXAEBV12@@Z 000000018004e7f8     ConvexHullUtils.obj
 0002:0000d80c       $chain$0$?allocate@?$ReflectionAllocator@VHalfEdge@ConvexHull@physx@@@shdfnd@physx@@QEAAPEAX_KPEBDH@Z 000000018004e80c     ConvexHullUtils.obj
 0002:0000d820       $chain$1$?allocate@?$ReflectionAllocator@VHalfEdge@ConvexHull@physx@@@shdfnd@physx@@QEAAPEAX_KPEBDH@Z 000000018004e820     ConvexHullUtils.obj
 0002:0000d830       $chain$0$?allocate@?$ReflectionAllocator@VPxPlane@physx@@@shdfnd@physx@@QEAAPEAX_KPEBDH@Z 000000018004e830     ConvexHullUtils.obj
 0002:0000d844       $chain$1$?allocate@?$ReflectionAllocator@VPxPlane@physx@@@shdfnd@physx@@QEAAPEAX_KPEBDH@Z 000000018004e844     ConvexHullUtils.obj
 0002:0000d854       $unwind$?copy@?$Array@URTreeNodeNQ@physx@@V?$ReflectionAllocator@URTreeNodeNQ@physx@@@shdfnd@2@@shdfnd@physx@@KAXPEAURTreeNodeNQ@3@0PEBU43@@Z 000000018004e854     RTreeCooking.obj
 0002:0000d854       $unwind$?copy@?$Array@UPxDebugLine@physx@@V?$ReflectionAllocator@UPxDebugLine@physx@@@shdfnd@2@@shdfnd@physx@@KAXPEAUPxDebugLine@3@0PEBU43@@Z 000000018004e854     Cooking.obj
 0002:0000d854       $unwind$?copy@?$Array@VPxPlane@physx@@V?$ReflectionAllocator@VPxPlane@physx@@@shdfnd@2@@shdfnd@physx@@KAXPEAVPxPlane@3@0PEBV43@@Z 000000018004e854     ConvexHullUtils.obj
 0002:0000d85c       $chain$0$?copy@?$Array@VPxPlane@physx@@V?$ReflectionAllocator@VPxPlane@physx@@@shdfnd@2@@shdfnd@physx@@KAXPEAVPxPlane@3@0PEBV43@@Z 000000018004e85c     ConvexHullUtils.obj
 0002:0000d870       $chain$1$?copy@?$Array@VPxPlane@physx@@V?$ReflectionAllocator@VPxPlane@physx@@@shdfnd@2@@shdfnd@physx@@KAXPEAVPxPlane@3@0PEBV43@@Z 000000018004e870     ConvexHullUtils.obj
 0002:0000d880       $unwind$?recreate@?$Array@PEAUQuickHullFace@local@@V?$ReflectionAllocator@PEAUQuickHullFace@local@@@shdfnd@physx@@@shdfnd@physx@@IEAAXI@Z 000000018004e880     QuickHullConvexHullLib.obj
 0002:0000d880       $unwind$?growAndPushBack@?$Array@PEAUQuickHullFace@local@@V?$ReflectionAllocator@PEAUQuickHullFace@local@@@shdfnd@physx@@@shdfnd@physx@@IEAAAEAPEAUQuickHullFace@local@@AEBQEAU45@@Z 000000018004e880     QuickHullConvexHullLib.obj
 0002:0000d880       $unwind$__vcrt_InitializeCriticalSectionEx 000000018004e880     libvcruntime:winapi_downlevel.obj
 0002:0000d880       $unwind$__acrt_lowio_create_handle_array 000000018004e880     libucrt:osfinfo.obj
 0002:0000d880       $unwind$?growAndPushBack@?$Array@PEAUQuickHullVertex@local@@V?$ReflectionAllocator@PEAUQuickHullVertex@local@@@shdfnd@physx@@@shdfnd@physx@@IEAAAEAPEAUQuickHullVertex@local@@AEBQEAU45@@Z 000000018004e880     QuickHullConvexHullLib.obj
 0002:0000d880       $unwind$?recreate@?$Array@VPxPlane@physx@@V?$ReflectionAllocator@VPxPlane@physx@@@shdfnd@2@@shdfnd@physx@@IEAAXI@Z 000000018004e880     ConvexHullUtils.obj
 0002:0000d880       $unwind$?recreate@?$Array@URTreeNodeNQ@physx@@V?$ReflectionAllocator@URTreeNodeNQ@physx@@@shdfnd@2@@shdfnd@physx@@IEAAXI@Z 000000018004e880     RTreeCooking.obj
 0002:0000d880       $unwind$?recreate@?$Array@PEAUQuickHullVertex@local@@V?$ReflectionAllocator@PEAUQuickHullVertex@local@@@shdfnd@physx@@@shdfnd@physx@@IEAAXI@Z 000000018004e880     QuickHullConvexHullLib.obj
 0002:0000d880       $unwind$?growAndPushBack@?$Array@VPair@@V?$ReflectionAllocator@VPair@@@shdfnd@physx@@@shdfnd@physx@@IEAAAEAVPair@@AEBV4@@Z 000000018004e880     ConvexPolygonsBuilder.obj
 0002:0000d880       $unwind$?growAndPushBack@?$Array@UInterval@physx@@V?$InlineAllocator@$0CAAA@V?$ReflectionAllocator@UInterval@physx@@@shdfnd@physx@@@shdfnd@2@@shdfnd@physx@@IEAAAEAUInterval@3@AEBU43@@Z 000000018004e880     RTreeCooking.obj
 0002:0000d880       $unwind$??$ensure_buffer_is_big_enough@D@formatting_buffer@__crt_stdio_output@@QEAA_N_K@Z 000000018004e880     libucrt:output.obj
 0002:0000d880       $unwind$?length@pairNode@@UEBAHXZ 000000018004e880     libvcruntime:undname.obj
 0002:0000d880       $unwind$?recreate@?$Array@VPxVec3@physx@@V?$ReflectionAllocator@VPxVec3@physx@@@shdfnd@2@@shdfnd@physx@@IEAAXI@Z 000000018004e880     RTreeCooking.obj
 0002:0000d880       $unwind$?dllmain_raw@@YAHQEAUHINSTANCE__@@KQEAX@Z 000000018004e880     LIBCMT:dll_dllmain.obj
 0002:0000d880       $unwind$?getString@pDNameNode@@UEBAPEADPEAD0@Z 000000018004e880     libvcruntime:undname.obj
 0002:0000d880       $unwind$_recalloc_base     000000018004e880     libucrt:recalloc.obj
 0002:0000d880       $unwind$?recreate@?$Array@USlab@NodeAllocator@Gu@physx@@V?$ReflectionAllocator@USlab@NodeAllocator@Gu@physx@@@shdfnd@4@@shdfnd@physx@@IEAAXI@Z 000000018004e880     BVHStructureBuilder.obj
 0002:0000d880       $unwind$_seh_filter_exe    000000018004e880     libucrt:exception_filter.obj
 0002:0000d880       $unwind$?recreate@?$Array@UPxDebugLine@physx@@V?$ReflectionAllocator@UPxDebugLine@physx@@@shdfnd@2@@shdfnd@physx@@IEAAXI@Z 000000018004e880     Cooking.obj
 0002:0000d880       $unwind$?growAndPushBack@?$Array@UExpandPoint@local@@V?$ReflectionAllocator@UExpandPoint@local@@@shdfnd@physx@@@shdfnd@physx@@IEAAAEAUExpandPoint@local@@AEBU45@@Z 000000018004e880     QuickHullConvexHullLib.obj
 0002:0000d880       $unwind$?growAndPushBack@?$Array@URTreeNodeQ@Gu@physx@@V?$ReflectionAllocator@URTreeNodeQ@Gu@physx@@@shdfnd@3@@shdfnd@physx@@IEAAAEAURTreeNodeQ@Gu@3@AEBU453@@Z 000000018004e880     RTreeCooking.obj
 0002:0000d880       $unwind$_initterm          000000018004e880     libucrt:initterm.obj
 0002:0000d880       $unwind$?growAndPushBack@?$Array@VHalfEdge@ConvexHull@physx@@V?$ReflectionAllocator@VHalfEdge@ConvexHull@physx@@@shdfnd@3@@shdfnd@physx@@IEAAAEAVHalfEdge@ConvexHull@3@AEBV453@@Z 000000018004e880     ConvexHullUtils.obj
 0002:0000d880       $unwind$?recreate@?$Array@IV?$ReflectionAllocator@I@shdfnd@physx@@@shdfnd@physx@@IEAAXI@Z 000000018004e880     RTreeCooking.obj
 0002:0000d880       $unwind$?recreate@?$Array@UExpandPoint@local@@V?$ReflectionAllocator@UExpandPoint@local@@@shdfnd@physx@@@shdfnd@physx@@IEAAXI@Z 000000018004e880     QuickHullConvexHullLib.obj
 0002:0000d880       $unwind$__acrt_free_locale 000000018004e880     libucrt:locale_refcounting.obj
 0002:0000d880       $unwind$?growAndPushBack@?$Array@IV?$ReflectionAllocator@I@shdfnd@physx@@@shdfnd@physx@@IEAAAEAIAEBI@Z 000000018004e880     RTreeCooking.obj
 0002:0000d880       $unwind$?recreate@?$Array@PEAUQuickHullHalfEdge@local@@V?$ReflectionAllocator@PEAUQuickHullHalfEdge@local@@@shdfnd@physx@@@shdfnd@physx@@IEAAXI@Z 000000018004e880     QuickHullConvexHullLib.obj
 0002:0000d880       $unwind$?recreate@?$Array@UPxBounds3V@physx@@V?$ReflectionAllocator@UPxBounds3V@physx@@@shdfnd@2@@shdfnd@physx@@IEAAXI@Z 000000018004e880     RTreeCooking.obj
 0002:0000d880       $unwind$?growAndPushBack@?$Array@PEAUQuickHullHalfEdge@local@@V?$ReflectionAllocator@PEAUQuickHullHalfEdge@local@@@shdfnd@physx@@@shdfnd@physx@@IEAAAEAPEAUQuickHullHalfEdge@local@@AEBQEAU45@@Z 000000018004e880     QuickHullConvexHullLib.obj
 0002:0000d880       $unwind$__scrt_dllmain_exception_filter 000000018004e880     LIBCMT:utility.obj
 0002:0000d880       $unwind$?recreate@?$Array@URTreeNodeQ@Gu@physx@@V?$ReflectionAllocator@URTreeNodeQ@Gu@physx@@@shdfnd@3@@shdfnd@physx@@IEAAXI@Z 000000018004e880     RTreeCooking.obj
 0002:0000d880       $unwind$?recreate@?$Array@VHalfEdge@ConvexHull@physx@@V?$ReflectionAllocator@VHalfEdge@ConvexHull@physx@@@shdfnd@3@@shdfnd@physx@@IEAAXI@Z 000000018004e880     ConvexHullUtils.obj
 0002:0000d880       $unwind$?growAndPushBack@?$Array@UPxBounds3V@physx@@V?$ReflectionAllocator@UPxBounds3V@physx@@@shdfnd@2@@shdfnd@physx@@IEAAAEAUPxBounds3V@3@AEBU43@@Z 000000018004e880     RTreeCooking.obj
 0002:0000d880       $unwind$?setSBCS@@YAXPEAU__crt_multibyte_data@@@Z 000000018004e880     libucrt:mbctype.obj
 0002:0000d894       $unwind$?convexHullCrop@physx@@YAPEAVConvexHull@1@AEBV21@AEBVPxPlane@1@M@Z 000000018004e894     ConvexHullUtils.obj
 0002:0000d8a4       $chain$6$?convexHullCrop@physx@@YAPEAVConvexHull@1@AEBV21@AEBVPxPlane@1@M@Z 000000018004e8a4     ConvexHullUtils.obj
 0002:0000d8d0       $chain$7$?convexHullCrop@physx@@YAPEAVConvexHull@1@AEBV21@AEBVPxPlane@1@M@Z 000000018004e8d0     ConvexHullUtils.obj
 0002:0000d8e4       $chain$8$?convexHullCrop@physx@@YAPEAVConvexHull@1@AEBV21@AEBVPxPlane@1@M@Z 000000018004e8e4     ConvexHullUtils.obj
 0002:0000d8f4       $chain$9$?convexHullCrop@physx@@YAPEAVConvexHull@1@AEBV21@AEBVPxPlane@1@M@Z 000000018004e8f4     ConvexHullUtils.obj
 0002:0000d908       $chain$11$?convexHullCrop@physx@@YAPEAVConvexHull@1@AEBV21@AEBVPxPlane@1@M@Z 000000018004e908     ConvexHullUtils.obj
 0002:0000d920       $chain$12$?convexHullCrop@physx@@YAPEAVConvexHull@1@AEBV21@AEBVPxPlane@1@M@Z 000000018004e920     ConvexHullUtils.obj
 0002:0000d930       $chain$13$?convexHullCrop@physx@@YAPEAVConvexHull@1@AEBV21@AEBVPxPlane@1@M@Z 000000018004e930     ConvexHullUtils.obj
 0002:0000d944       $unwind$?computeOBBFromConvex@physx@@YA_NAEBVPxConvexMeshDesc@1@AEAVPxVec3@1@AEAVPxTransform@1@@Z 000000018004e944     ConvexHullUtils.obj
 0002:0000d964       $chain$6$?computeOBBFromConvex@physx@@YA_NAEBVPxConvexMeshDesc@1@AEAVPxVec3@1@AEAVPxTransform@1@@Z 000000018004e964     ConvexHullUtils.obj
 0002:0000d990       $chain$7$?computeOBBFromConvex@physx@@YA_NAEBVPxConvexMeshDesc@1@AEAVPxVec3@1@AEAVPxTransform@1@@Z 000000018004e990     ConvexHullUtils.obj
 0002:0000d9a0       $unwind$?rotateInv@Box@Gu@physx@@QEBA?AVPxVec3@3@AEBV43@@Z 000000018004e9a0     ConvexHullUtils.obj
 0002:0000d9ac       $unwind$?rotate@Box@Gu@physx@@QEBA?AVPxVec3@3@AEBV43@@Z 000000018004e9ac     ConvexHullUtils.obj
 0002:0000d9ac       $unwind$?transform@Box@Gu@physx@@QEBA?AVPxVec3@3@AEBV43@@Z 000000018004e9ac     ConvexHullUtils.obj
 0002:0000d9c0       $unwind$?computeAABBExtent@Box@Gu@physx@@QEBA?AVPxVec3@3@XZ 000000018004e9c0     ConvexHullUtils.obj
 0002:0000d9cc       $unwind$?computeOBBSIMD@local@@YAXIPEBT__m128@@AEAT2@AEBT2@1@Z 000000018004e9cc     ConvexHullUtils.obj
 0002:0000d9e0       $chain$5$?computeOBBSIMD@local@@YAXIPEBT__m128@@AEAT2@AEBT2@1@Z 000000018004e9e0     ConvexHullUtils.obj
 0002:0000da08       $chain$6$?computeOBBSIMD@local@@YAXIPEBT__m128@@AEAT2@AEBT2@1@Z 000000018004ea08     ConvexHullUtils.obj
 0002:0000da18       $unwind$?build@ConvexMeshBuilder@physx@@QEAA_NAEBVPxConvexMeshDesc@2@I_NPEAVConvexHullLib@2@@Z 000000018004ea18     ConvexMeshBuilder.obj
 0002:0000da30       $chain$3$?build@ConvexMeshBuilder@physx@@QEAA_NAEBVPxConvexMeshDesc@2@I_NPEAVConvexHullLib@2@@Z 000000018004ea30     ConvexMeshBuilder.obj
 0002:0000da50       $chain$4$?build@ConvexMeshBuilder@physx@@QEAA_NAEBVPxConvexMeshDesc@2@I_NPEAVConvexHullLib@2@@Z 000000018004ea50     ConvexMeshBuilder.obj
 0002:0000da60       $unwind$?save@ConvexMeshBuilder@physx@@QEBA_NAEAVPxOutputStream@2@_N@Z 000000018004ea60     ConvexMeshBuilder.obj
 0002:0000da74       $unwind$?copy@ConvexMeshBuilder@physx@@QEAA_NAEAUConvexHullInitData@Gu@2@@Z 000000018004ea74     ConvexMeshBuilder.obj
 0002:0000da84       $unwind$?loadConvexHull@ConvexMeshBuilder@physx@@QEAA_NAEBVPxConvexMeshDesc@2@PEAVConvexHullLib@2@@Z 000000018004ea84     ConvexMeshBuilder.obj
 0002:0000daa4       $unwind$?computeHullPolygons@ConvexMeshBuilder@physx@@QEAA_NAEBIPEBVPxVec3@2@0PEBIAEAVPxAllocatorCallback@2@AEAIAEAPEAV32@4AEAPEAI4AEAPEAUPxHullPolygon@2@@Z 000000018004eaa4     ConvexMeshBuilder.obj
 0002:0000daac       $chain$3$?computeHullPolygons@ConvexMeshBuilder@physx@@QEAA_NAEBIPEBVPxVec3@2@0PEBIAEAVPxAllocatorCallback@2@AEAIAEAPEAV32@4AEAPEAI4AEAPEAUPxHullPolygon@2@@Z 000000018004eaac     ConvexMeshBuilder.obj
 0002:0000dacc       $chain$4$?computeHullPolygons@ConvexMeshBuilder@physx@@QEAA_NAEBIPEBVPxVec3@2@0PEBIAEAVPxAllocatorCallback@2@AEAIAEAPEAV32@4AEAPEAI4AEAPEAUPxHullPolygon@2@@Z 000000018004eacc     ConvexMeshBuilder.obj
 0002:0000dae4       $unwind$?computeGaussMaps@ConvexMeshBuilder@physx@@QEAA_NXZ 000000018004eae4     ConvexMeshBuilder.obj
 0002:0000daf0       $unwind$?computeMassInfo@ConvexMeshBuilder@physx@@QEAAX_N@Z 000000018004eaf0     ConvexMeshBuilder.obj
 0002:0000db00       $chain$1$?computeMassInfo@ConvexMeshBuilder@physx@@QEAAX_N@Z 000000018004eb00     ConvexMeshBuilder.obj
 0002:0000db18       $chain$2$?computeMassInfo@ConvexMeshBuilder@physx@@QEAAX_N@Z 000000018004eb18     ConvexMeshBuilder.obj
 0002:0000db2c       $chain$6$?computeMassInfo@ConvexMeshBuilder@physx@@QEAAX_N@Z 000000018004eb2c     ConvexMeshBuilder.obj
 0002:0000db4c       $chain$7$?computeMassInfo@ConvexMeshBuilder@physx@@QEAAX_N@Z 000000018004eb4c     ConvexMeshBuilder.obj
 0002:0000db5c       $chain$8$?computeMassInfo@ConvexMeshBuilder@physx@@QEAAX_N@Z 000000018004eb5c     ConvexMeshBuilder.obj
 0002:0000db6c       $chain$9$?computeMassInfo@ConvexMeshBuilder@physx@@QEAAX_N@Z 000000018004eb6c     ConvexMeshBuilder.obj
 0002:0000db7c       $unwind$?ComputeInternalExtent@@YAXAEAUConvexHullData@Gu@physx@@PEBUHullPolygonData@23@@Z 000000018004eb7c     ConvexMeshBuilder.obj
 0002:0000dba4       $chain$0$?ComputeInternalExtent@@YAXAEAUConvexHullData@Gu@physx@@PEBUHullPolygonData@23@@Z 000000018004eba4     ConvexMeshBuilder.obj
 0002:0000dbb8       $chain$1$?ComputeInternalExtent@@YAXAEAUConvexHullData@Gu@physx@@PEBUHullPolygonData@23@@Z 000000018004ebb8     ConvexMeshBuilder.obj
 0002:0000dbcc       $chain$2$?ComputeInternalExtent@@YAXAEAUConvexHullData@Gu@physx@@PEBUHullPolygonData@23@@Z 000000018004ebcc     ConvexMeshBuilder.obj
 0002:0000dbdc       $chain$3$?ComputeInternalExtent@@YAXAEAUConvexHullData@Gu@physx@@PEBUHullPolygonData@23@@Z 000000018004ebdc     ConvexMeshBuilder.obj
 0002:0000dbf0       $chain$4$?ComputeInternalExtent@@YAXAEAUConvexHullData@Gu@physx@@PEBUHullPolygonData@23@@Z 000000018004ebf0     ConvexMeshBuilder.obj
 0002:0000dc00       $unwind$?computeHullPolygons@ConvexPolygonsBuilder@physx@@QEAA_NAEBIPEBVPxVec3@2@0PEBI@Z 000000018004ec00     ConvexPolygonsBuilder.obj
 0002:0000dc14       $unwind$?createPolygonData@ConvexPolygonsBuilder@physx@@AEAA_NXZ 000000018004ec14     ConvexPolygonsBuilder.obj
 0002:0000dc24       $chain$6$?createPolygonData@ConvexPolygonsBuilder@physx@@AEAA_NXZ 000000018004ec24     ConvexPolygonsBuilder.obj
 0002:0000dc50       $chain$7$?createPolygonData@ConvexPolygonsBuilder@physx@@AEAA_NXZ 000000018004ec50     ConvexPolygonsBuilder.obj
 0002:0000dc60       $chain$8$?createPolygonData@ConvexPolygonsBuilder@physx@@AEAA_NXZ 000000018004ec60     ConvexPolygonsBuilder.obj
 0002:0000dc8c       $unwind$?createTrianglesFromPolygons@ConvexPolygonsBuilder@physx@@AEAA_NXZ 000000018004ec8c     ConvexPolygonsBuilder.obj
 0002:0000dc98       $chain$1$?createTrianglesFromPolygons@ConvexPolygonsBuilder@physx@@AEAA_NXZ 000000018004ec98     ConvexPolygonsBuilder.obj
 0002:0000dcb0       $chain$7$?createTrianglesFromPolygons@ConvexPolygonsBuilder@physx@@AEAA_NXZ 000000018004ecb0     ConvexPolygonsBuilder.obj
 0002:0000dcd8       $chain$12$?createTrianglesFromPolygons@ConvexPolygonsBuilder@physx@@AEAA_NXZ 000000018004ecd8     ConvexPolygonsBuilder.obj
 0002:0000dcd8       $chain$8$?createTrianglesFromPolygons@ConvexPolygonsBuilder@physx@@AEAA_NXZ 000000018004ecd8     ConvexPolygonsBuilder.obj
 0002:0000dce8       $chain$11$?createTrianglesFromPolygons@ConvexPolygonsBuilder@physx@@AEAA_NXZ 000000018004ece8     ConvexPolygonsBuilder.obj
 0002:0000dd18       $chain$14$?createTrianglesFromPolygons@ConvexPolygonsBuilder@physx@@AEAA_NXZ 000000018004ed18     ConvexPolygonsBuilder.obj
 0002:0000dd50       $chain$19$?createTrianglesFromPolygons@ConvexPolygonsBuilder@physx@@AEAA_NXZ 000000018004ed50     ConvexPolygonsBuilder.obj
 0002:0000dd74       $chain$20$?createTrianglesFromPolygons@ConvexPolygonsBuilder@physx@@AEAA_NXZ 000000018004ed74     ConvexPolygonsBuilder.obj
 0002:0000dd84       $chain$21$?createTrianglesFromPolygons@ConvexPolygonsBuilder@physx@@AEAA_NXZ 000000018004ed84     ConvexPolygonsBuilder.obj
 0002:0000dd94       $unwind$?findLineStrip@@YA_NAEAV?$Array@IV?$ReflectionAllocator@I@shdfnd@physx@@@shdfnd@physx@@AEBV?$Array@VPair@@V?$ReflectionAllocator@VPair@@@shdfnd@physx@@@23@@Z 000000018004ed94     ConvexPolygonsBuilder.obj
 0002:0000dda0       $chain$2$?findLineStrip@@YA_NAEAV?$Array@IV?$ReflectionAllocator@I@shdfnd@physx@@@shdfnd@physx@@AEBV?$Array@VPair@@V?$ReflectionAllocator@VPair@@@shdfnd@physx@@@23@@Z 000000018004eda0     ConvexPolygonsBuilder.obj
 0002:0000ddbc       $chain$5$?findLineStrip@@YA_NAEAV?$Array@IV?$ReflectionAllocator@I@shdfnd@physx@@@shdfnd@physx@@AEBV?$Array@VPair@@V?$ReflectionAllocator@VPair@@@shdfnd@physx@@@23@@Z 000000018004edbc     ConvexPolygonsBuilder.obj
 0002:0000ddd8       $chain$6$?findLineStrip@@YA_NAEAV?$Array@IV?$ReflectionAllocator@I@shdfnd@physx@@@shdfnd@physx@@AEBV?$Array@VPair@@V?$ReflectionAllocator@VPair@@@shdfnd@physx@@@23@@Z 000000018004edd8     ConvexPolygonsBuilder.obj
 0002:0000dde8       $chain$7$?findLineStrip@@YA_NAEAV?$Array@IV?$ReflectionAllocator@I@shdfnd@physx@@@shdfnd@physx@@AEBV?$Array@VPair@@V?$ReflectionAllocator@VPair@@@shdfnd@physx@@@23@@Z 000000018004ede8     ConvexPolygonsBuilder.obj
 0002:0000de10       $chain$0$?allocate@?$ReflectionAllocator@VPair@@@shdfnd@physx@@QEAAPEAX_KPEBDH@Z 000000018004ee10     ConvexPolygonsBuilder.obj
 0002:0000de24       $chain$1$?allocate@?$ReflectionAllocator@VPair@@@shdfnd@physx@@QEAAPEAX_KPEBDH@Z 000000018004ee24     ConvexPolygonsBuilder.obj
 0002:0000de34       $unwind$?TestDuplicateTriangles@@YA_NAEAIPEAU?$TriangleT@I@Gu@physx@@_N@Z 000000018004ee34     ConvexPolygonsBuilder.obj
 0002:0000de50       $unwind$?TestUnifiedNormals@@YA_NIPEBVPxVec3@physx@@IPEAU?$TriangleT@I@Gu@2@_N@Z 000000018004ee50     ConvexPolygonsBuilder.obj
 0002:0000de60       $chain$10$?TestUnifiedNormals@@YA_NIPEBVPxVec3@physx@@IPEAU?$TriangleT@I@Gu@2@_N@Z 000000018004ee60     ConvexPolygonsBuilder.obj
 0002:0000de9c       $chain$12$?TestUnifiedNormals@@YA_NIPEBVPxVec3@physx@@IPEAU?$TriangleT@I@Gu@2@_N@Z 000000018004ee9c     ConvexPolygonsBuilder.obj
 0002:0000deb4       $chain$13$?TestUnifiedNormals@@YA_NIPEBVPxVec3@physx@@IPEAU?$TriangleT@I@Gu@2@_N@Z 000000018004eeb4     ConvexPolygonsBuilder.obj
 0002:0000dec4       $chain$14$?TestUnifiedNormals@@YA_NIPEBVPxVec3@physx@@IPEAU?$TriangleT@I@Gu@2@_N@Z 000000018004eec4     ConvexPolygonsBuilder.obj
 0002:0000ded4       $unwind$?CleanFaces@@YA_NAEAIPEAU?$TriangleT@I@Gu@physx@@0PEAVPxVec3@3@@Z 000000018004eed4     ConvexPolygonsBuilder.obj
 0002:0000deec       $unwind$?computeNewellPlane@@YA_NAEAVPxPlane@physx@@IPEBEPEBVPxVec3@2@@Z 000000018004eeec     ConvexPolygonsBuilder.obj
 0002:0000def4       $chain$7$?computeNewellPlane@@YA_NAEAVPxPlane@physx@@IPEBEPEBVPxVec3@2@@Z 000000018004eef4     ConvexPolygonsBuilder.obj
 0002:0000df24       $chain$10$?computeNewellPlane@@YA_NAEAVPxPlane@physx@@IPEBEPEBVPxVec3@2@@Z 000000018004ef24     ConvexPolygonsBuilder.obj
 0002:0000df40       $chain$11$?computeNewellPlane@@YA_NAEAVPxPlane@physx@@IPEBEPEBVPxVec3@2@@Z 000000018004ef40     ConvexPolygonsBuilder.obj
 0002:0000df50       $chain$12$?computeNewellPlane@@YA_NAEAVPxPlane@physx@@IPEBEPEBVPxVec3@2@@Z 000000018004ef50     ConvexPolygonsBuilder.obj
 0002:0000df78       $chain$13$?computeNewellPlane@@YA_NAEAVPxPlane@physx@@IPEBEPEBVPxVec3@2@@Z 000000018004ef78     ConvexPolygonsBuilder.obj
 0002:0000df88       $unwind$?checkRedundantVertices@@YAXAEAIAEAV?$Array@IV?$ReflectionAllocator@I@shdfnd@physx@@@shdfnd@physx@@AEBVConvexPolygonsBuilder@3@11@Z 000000018004ef88     ConvexPolygonsBuilder.obj
 0002:0000dfa4       $unwind$?extractHullPolygons@@YA_NAEAIAEAV?$Array@IV?$ReflectionAllocator@I@shdfnd@physx@@@shdfnd@physx@@AEBVConvexPolygonsBuilder@3@PEAV123@1@Z 000000018004efa4     ConvexPolygonsBuilder.obj
 0002:0000dfc0       $unwind$?FloodFill@Local@?7??extractHullPolygons@@YA_NAEAIAEAV?$Array@IV?$ReflectionAllocator@I@shdfnd@physx@@@shdfnd@physx@@AEBVConvexPolygonsBuilder@5@PEAV345@1@Z@SAX1PEBVAdjTriangle@5@IPEA_N@Z 000000018004efc0     ConvexPolygonsBuilder.obj
 0002:0000dfd4       $unwind$?GetNeighborFace@Local@?7??extractHullPolygons@@YA_NAEAIAEAV?$Array@IV?$ReflectionAllocator@I@shdfnd@physx@@@shdfnd@physx@@AEBVConvexPolygonsBuilder@5@PEAV345@1@Z@SA_NIIPEBVAdjTriangle@5@PEBI00@Z 000000018004efd4     ConvexPolygonsBuilder.obj
 0002:0000dfec       $unwind$?CheckFloodFillFace@Local@?7??extractHullPolygons@@YA_NAEAIAEAV?$Array@IV?$ReflectionAllocator@I@shdfnd@physx@@@shdfnd@physx@@AEBVConvexPolygonsBuilder@5@PEAV345@1@Z@SA_NIPEBVAdjTriangle@5@PEBI@Z 000000018004efec     ConvexPolygonsBuilder.obj
 0002:0000dff8       $chain$6$?CheckFloodFillFace@Local@?7??extractHullPolygons@@YA_NAEAIAEAV?$Array@IV?$ReflectionAllocator@I@shdfnd@physx@@@shdfnd@physx@@AEBVConvexPolygonsBuilder@5@PEAV345@1@Z@SA_NIPEBVAdjTriangle@5@PEBI@Z 000000018004eff8     ConvexPolygonsBuilder.obj
 0002:0000e024       $chain$8$?CheckFloodFillFace@Local@?7??extractHullPolygons@@YA_NAEAIAEAV?$Array@IV?$ReflectionAllocator@I@shdfnd@physx@@@shdfnd@physx@@AEBVConvexPolygonsBuilder@5@PEAV345@1@Z@SA_NIPEBVAdjTriangle@5@PEBI@Z 000000018004f024     ConvexPolygonsBuilder.obj
 0002:0000e050       $unwind$??$PlaneEquation@U?$TriangleT@I@Gu@physx@@@@YA?AVPxPlane@physx@@AEBU?$TriangleT@I@Gu@1@PEBVPxVec3@1@@Z 000000018004f050     ConvexPolygonsBuilder.obj
 0002:0000e068       $unwind$??0QuickHullConvexHullLib@physx@@QEAA@AEBVPxConvexMeshDesc@1@AEBUPxCookingParams@1@@Z 000000018004f068     QuickHullConvexHullLib.obj
 0002:0000e068       $unwind$??0SubSortQuick@physx@@QEAA@PEAIPEBUPxBounds3V@1@IM@Z 000000018004f068     RTreeCooking.obj
 0002:0000e068       $unwind$?allocateTriangles@TriangleMeshData@Gu@physx@@QEAAPEAXI_NI@Z 000000018004f068     TriangleMeshBuilder.obj
 0002:0000e068       $unwind$?createGRBData@TriangleMeshBuilder@physx@@QEAAXXZ 000000018004f068     TriangleMeshBuilder.obj
 0002:0000e080       $unwind$?createConvexHull@QuickHullConvexHullLib@physx@@UEAA?AW4Enum@PxConvexMeshCookingResult@2@XZ 000000018004f080     QuickHullConvexHullLib.obj
 0002:0000e094       $unwind$?createEdgeList@QuickHullConvexHullLib@physx@@UEAA_NIPEBEPEAPEAEPEAPEAG2@Z 000000018004f094     QuickHullConvexHullLib.obj
 0002:0000e0b8       $unwind$?expandHullOBB@QuickHullConvexHullLib@physx@@IEAA?AW4Enum@PxConvexMeshCookingResult@2@XZ 000000018004f0b8     QuickHullConvexHullLib.obj
 0002:0000e0c4       $chain$4$?expandHullOBB@QuickHullConvexHullLib@physx@@IEAA?AW4Enum@PxConvexMeshCookingResult@2@XZ 000000018004f0c4     QuickHullConvexHullLib.obj
 0002:0000e0e8       $chain$5$?expandHullOBB@QuickHullConvexHullLib@physx@@IEAA?AW4Enum@PxConvexMeshCookingResult@2@XZ 000000018004f0e8     QuickHullConvexHullLib.obj
 0002:0000e0fc       $chain$6$?expandHullOBB@QuickHullConvexHullLib@physx@@IEAA?AW4Enum@PxConvexMeshCookingResult@2@XZ 000000018004f0fc     QuickHullConvexHullLib.obj
 0002:0000e10c       $chain$7$?expandHullOBB@QuickHullConvexHullLib@physx@@IEAA?AW4Enum@PxConvexMeshCookingResult@2@XZ 000000018004f10c     QuickHullConvexHullLib.obj
 0002:0000e11c       $unwind$?expandHull@QuickHullConvexHullLib@physx@@IEAA?AW4Enum@PxConvexMeshCookingResult@2@XZ 000000018004f11c     QuickHullConvexHullLib.obj
 0002:0000e13c       $unwind$?cleanupForSimplex@QuickHullConvexHullLib@physx@@IEAA_NPEAVPxVec3@2@IPEAUQuickHullVertex@local@@1AEAM2@Z 000000018004f13c     QuickHullConvexHullLib.obj
 0002:0000e158       $chain$0$?cleanupForSimplex@QuickHullConvexHullLib@physx@@IEAA_NPEAVPxVec3@2@IPEAUQuickHullVertex@local@@1AEAM2@Z 000000018004f158     QuickHullConvexHullLib.obj
 0002:0000e16c       $chain$8$?cleanupForSimplex@QuickHullConvexHullLib@physx@@IEAA_NPEAVPxVec3@2@IPEAUQuickHullVertex@local@@1AEAM2@Z 000000018004f16c     QuickHullConvexHullLib.obj
 0002:0000e19c       $chain$9$?cleanupForSimplex@QuickHullConvexHullLib@physx@@IEAA_NPEAVPxVec3@2@IPEAUQuickHullVertex@local@@1AEAM2@Z 000000018004f19c     QuickHullConvexHullLib.obj
 0002:0000e1b0       $chain$10$?cleanupForSimplex@QuickHullConvexHullLib@physx@@IEAA_NPEAVPxVec3@2@IPEAUQuickHullVertex@local@@1AEAM2@Z 000000018004f1b0     QuickHullConvexHullLib.obj
 0002:0000e1c0       $chain$11$?cleanupForSimplex@QuickHullConvexHullLib@physx@@IEAA_NPEAVPxVec3@2@IPEAUQuickHullVertex@local@@1AEAM2@Z 000000018004f1c0     QuickHullConvexHullLib.obj
 0002:0000e1d8       $chain$12$?cleanupForSimplex@QuickHullConvexHullLib@physx@@IEAA_NPEAVPxVec3@2@IPEAUQuickHullVertex@local@@1AEAM2@Z 000000018004f1d8     QuickHullConvexHullLib.obj
 0002:0000e1e8       $unwind$?fillConvexMeshDescFromQuickHull@QuickHullConvexHullLib@physx@@IEAAXAEAVPxConvexMeshDesc@2@@Z 000000018004f1e8     QuickHullConvexHullLib.obj
 0002:0000e200       $unwind$?fillConvexMeshDescFromCroppedHull@QuickHullConvexHullLib@physx@@IEAAXAEAVPxConvexMeshDesc@2@@Z 000000018004f200     QuickHullConvexHullLib.obj
 0002:0000e218       $unwind$?mergeAdjacentFace@QuickHullFace@local@@QEAA_NPEAUQuickHullHalfEdge@2@AEAV?$Array@PEAUQuickHullFace@local@@V?$ReflectionAllocator@PEAUQuickHullFace@local@@@shdfnd@physx@@@shdfnd@physx@@@Z 000000018004f218     QuickHullConvexHullLib.obj
 0002:0000e230       $chain$3$?mergeAdjacentFace@QuickHullFace@local@@QEAA_NPEAUQuickHullHalfEdge@2@AEAV?$Array@PEAUQuickHullFace@local@@V?$ReflectionAllocator@PEAUQuickHullFace@local@@@shdfnd@physx@@@shdfnd@physx@@@Z 000000018004f230     QuickHullConvexHullLib.obj
 0002:0000e250       $chain$7$?mergeAdjacentFace@QuickHullFace@local@@QEAA_NPEAUQuickHullHalfEdge@2@AEAV?$Array@PEAUQuickHullFace@local@@V?$ReflectionAllocator@PEAUQuickHullFace@local@@@shdfnd@physx@@@shdfnd@physx@@@Z 000000018004f250     QuickHullConvexHullLib.obj
 0002:0000e250       $chain$4$?mergeAdjacentFace@QuickHullFace@local@@QEAA_NPEAUQuickHullHalfEdge@2@AEAV?$Array@PEAUQuickHullFace@local@@V?$ReflectionAllocator@PEAUQuickHullFace@local@@@shdfnd@physx@@@shdfnd@physx@@@Z 000000018004f250     QuickHullConvexHullLib.obj
 0002:0000e260       $chain$5$?mergeAdjacentFace@QuickHullFace@local@@QEAA_NPEAUQuickHullHalfEdge@2@AEAV?$Array@PEAUQuickHullFace@local@@V?$ReflectionAllocator@PEAUQuickHullFace@local@@@shdfnd@physx@@@shdfnd@physx@@@Z 000000018004f260     QuickHullConvexHullLib.obj
 0002:0000e280       $chain$6$?mergeAdjacentFace@QuickHullFace@local@@QEAA_NPEAUQuickHullHalfEdge@2@AEAV?$Array@PEAUQuickHullFace@local@@V?$ReflectionAllocator@PEAUQuickHullFace@local@@@shdfnd@physx@@@shdfnd@physx@@@Z 000000018004f280     QuickHullConvexHullLib.obj
 0002:0000e294       $chain$4$?connectHalfEdges@QuickHullFace@local@@AEAAPEAU12@PEAUQuickHullHalfEdge@2@0@Z 000000018004f294     QuickHullConvexHullLib.obj
 0002:0000e2b8       $chain$5$?connectHalfEdges@QuickHullFace@local@@AEAAPEAU12@PEAUQuickHullHalfEdge@2@0@Z 000000018004f2b8     QuickHullConvexHullLib.obj
 0002:0000e2d8       $chain$6$?connectHalfEdges@QuickHullFace@local@@AEAAPEAU12@PEAUQuickHullHalfEdge@2@0@Z 000000018004f2d8     QuickHullConvexHullLib.obj
 0002:0000e2ec       $chain$7$?connectHalfEdges@QuickHullFace@local@@AEAAPEAU12@PEAUQuickHullHalfEdge@2@0@Z 000000018004f2ec     QuickHullConvexHullLib.obj
 0002:0000e2fc       $unwind$?parseInputVertices@QuickHull@local@@QEAAXPEBVPxVec3@physx@@I@Z 000000018004f2fc     QuickHullConvexHullLib.obj
 0002:0000e308       $chain$0$?parseInputVertices@QuickHull@local@@QEAAXPEBVPxVec3@physx@@I@Z 000000018004f308     QuickHullConvexHullLib.obj
 0002:0000e31c       $chain$1$?parseInputVertices@QuickHull@local@@QEAAXPEBVPxVec3@physx@@I@Z 000000018004f31c     QuickHullConvexHullLib.obj
 0002:0000e32c       $unwind$?buildHull@QuickHull@local@@QEAA?AW4Enum@QuickHullResult@2@XZ 000000018004f32c     QuickHullConvexHullLib.obj
 0002:0000e32c       $unwind$?deleteFacePoints@QuickHull@local@@IEAAXAEAUQuickHullFace@2@PEAU32@@Z 000000018004f32c     QuickHullConvexHullLib.obj
 0002:0000e33c       $unwind$?computeMinMaxVerts@QuickHull@local@@IEAAXXZ 000000018004f33c     QuickHullConvexHullLib.obj
 0002:0000e348       $unwind$?findSimplex@QuickHull@local@@IEAA_NXZ 000000018004f348     QuickHullConvexHullLib.obj
 0002:0000e358       $chain$7$?findSimplex@QuickHull@local@@IEAA_NXZ 000000018004f358     QuickHullConvexHullLib.obj
 0002:0000e388       $chain$11$?findSimplex@QuickHull@local@@IEAA_NXZ 000000018004f388     QuickHullConvexHullLib.obj
 0002:0000e3a8       $chain$12$?findSimplex@QuickHull@local@@IEAA_NXZ 000000018004f3a8     QuickHullConvexHullLib.obj
 0002:0000e3bc       $chain$13$?findSimplex@QuickHull@local@@IEAA_NXZ 000000018004f3bc     QuickHullConvexHullLib.obj
 0002:0000e3cc       $chain$14$?findSimplex@QuickHull@local@@IEAA_NXZ 000000018004f3cc     QuickHullConvexHullLib.obj
 0002:0000e400       $unwind$?addSimplex@QuickHull@local@@IEAAXPEAUQuickHullVertex@2@_N@Z 000000018004f400     QuickHullConvexHullLib.obj
 0002:0000e410       $chain$2$?addSimplex@QuickHull@local@@IEAAXPEAUQuickHullVertex@2@_N@Z 000000018004f410     QuickHullConvexHullLib.obj
 0002:0000e42c       $chain$4$?addSimplex@QuickHull@local@@IEAAXPEAUQuickHullVertex@2@_N@Z 000000018004f42c     QuickHullConvexHullLib.obj
 0002:0000e440       $chain$3$?addSimplex@QuickHull@local@@IEAAXPEAUQuickHullVertex@2@_N@Z 000000018004f440     QuickHullConvexHullLib.obj
 0002:0000e450       $unwind$?addPointToHull@QuickHull@local@@IEAA_NPEBUQuickHullVertex@2@AEAUQuickHullFace@2@AEA_N@Z 000000018004f450     QuickHullConvexHullLib.obj
 0002:0000e468       $chain$2$?addPointToHull@QuickHull@local@@IEAA_NPEBUQuickHullVertex@2@AEAUQuickHullFace@2@AEA_N@Z 000000018004f468     QuickHullConvexHullLib.obj
 0002:0000e47c       $chain$3$?addPointToHull@QuickHull@local@@IEAA_NPEBUQuickHullVertex@2@AEAUQuickHullFace@2@AEA_N@Z 000000018004f47c     QuickHullConvexHullLib.obj
 0002:0000e490       $chain$4$?addPointToHull@QuickHull@local@@IEAA_NPEBUQuickHullVertex@2@AEAUQuickHullFace@2@AEA_N@Z 000000018004f490     QuickHullConvexHullLib.obj
 0002:0000e4a0       $chain$5$?addPointToHull@QuickHull@local@@IEAA_NPEBUQuickHullVertex@2@AEAUQuickHullFace@2@AEA_N@Z 000000018004f4a0     QuickHullConvexHullLib.obj
 0002:0000e4b0       $unwind$?createTriangle@QuickHull@local@@IEAAPEAUQuickHullFace@2@AEBUQuickHullVertex@2@00@Z 000000018004f4b0     QuickHullConvexHullLib.obj
 0002:0000e4d8       $unwind$?calculateHorizon@QuickHull@local@@IEAAXAEBVPxVec3@physx@@PEAUQuickHullHalfEdge@2@AEAUQuickHullFace@2@AEAV?$Array@PEAUQuickHullHalfEdge@local@@V?$ReflectionAllocator@PEAUQuickHullHalfEdge@local@@@shdfnd@physx@@@shdfnd@4@AEAV?$Array@PEAUQuickHullFace@local@@V?$ReflectionAllocator@PEAUQuickHullFace@local@@@shdfnd@physx@@@84@@Z 000000018004f4d8     QuickHullConvexHullLib.obj
 0002:0000e4e8       $unwind$?addNewFacesFromHorizon@QuickHull@local@@IEAAXPEBUQuickHullVertex@2@AEBV?$Array@PEAUQuickHullHalfEdge@local@@V?$ReflectionAllocator@PEAUQuickHullHalfEdge@local@@@shdfnd@physx@@@shdfnd@physx@@AEAV?$Array@PEAUQuickHullFace@local@@V?$ReflectionAllocator@PEAUQuickHullFace@local@@@shdfnd@physx@@@56@@Z 000000018004f4e8     QuickHullConvexHullLib.obj
 0002:0000e4f8       $chain$2$?addNewFacesFromHorizon@QuickHull@local@@IEAAXPEBUQuickHullVertex@2@AEBV?$Array@PEAUQuickHullHalfEdge@local@@V?$ReflectionAllocator@PEAUQuickHullHalfEdge@local@@@shdfnd@physx@@@shdfnd@physx@@AEAV?$Array@PEAUQuickHullFace@local@@V?$ReflectionAllocator@PEAUQuickHullFace@local@@@shdfnd@physx@@@56@@Z 000000018004f4f8     QuickHullConvexHullLib.obj
 0002:0000e514       $chain$3$?addNewFacesFromHorizon@QuickHull@local@@IEAAXPEBUQuickHullVertex@2@AEBV?$Array@PEAUQuickHullHalfEdge@local@@V?$ReflectionAllocator@PEAUQuickHullHalfEdge@local@@@shdfnd@physx@@@shdfnd@physx@@AEAV?$Array@PEAUQuickHullFace@local@@V?$ReflectionAllocator@PEAUQuickHullFace@local@@@shdfnd@physx@@@56@@Z 000000018004f514     QuickHullConvexHullLib.obj
 0002:0000e524       $unwind$?doAdjacentMerge@QuickHull@local@@IEAA_NAEAUQuickHullFace@2@_NAEA_N@Z 000000018004f524     QuickHullConvexHullLib.obj
 0002:0000e534       $chain$1$?doAdjacentMerge@QuickHull@local@@IEAA_NAEAUQuickHullFace@2@_NAEA_N@Z 000000018004f534     QuickHullConvexHullLib.obj
 0002:0000e54c       $chain$0$?deleteFacePoints@QuickHull@local@@IEAAXAEAUQuickHullFace@2@PEAU32@@Z 000000018004f54c     QuickHullConvexHullLib.obj
 0002:0000e560       $chain$1$?deleteFacePoints@QuickHull@local@@IEAAXAEAUQuickHullFace@2@PEAU32@@Z 000000018004f560     QuickHullConvexHullLib.obj
 0002:0000e570       $unwind$?resolveUnclaimedPoints@QuickHull@local@@IEAAXAEBV?$Array@PEAUQuickHullFace@local@@V?$ReflectionAllocator@PEAUQuickHullFace@local@@@shdfnd@physx@@@shdfnd@physx@@@Z 000000018004f570     QuickHullConvexHullLib.obj
 0002:0000e584       $unwind$?postMergeHull@QuickHull@local@@IEAAXXZ 000000018004f584     QuickHullConvexHullLib.obj
 0002:0000e590       $chain$4$?postMergeHull@QuickHull@local@@IEAAXXZ 000000018004f590     QuickHullConvexHullLib.obj
 0002:0000e5b4       $chain$5$?postMergeHull@QuickHull@local@@IEAAXXZ 000000018004f5b4     QuickHullConvexHullLib.obj
 0002:0000e5c4       $chain$6$?postMergeHull@QuickHull@local@@IEAAXXZ 000000018004f5c4     QuickHullConvexHullLib.obj
 0002:0000e5e8       $unwind$?canMergeFaces@QuickHull@local@@IEAA_NAEBUQuickHullHalfEdge@2@@Z 000000018004f5e8     QuickHullConvexHullLib.obj
 0002:0000e62c       $chain$0$??1?$MemBlock@UQuickHullFace@local@@$00@local@@QEAA@XZ 000000018004f62c     QuickHullConvexHullLib.obj
 0002:0000e62c       $chain$0$??1?$MemBlock@UQuickHullHalfEdge@local@@$0A@@local@@QEAA@XZ 000000018004f62c     QuickHullConvexHullLib.obj
 0002:0000e640       $chain$1$??1?$MemBlock@UQuickHullHalfEdge@local@@$0A@@local@@QEAA@XZ 000000018004f640     QuickHullConvexHullLib.obj
 0002:0000e640       $chain$1$??1?$MemBlock@UQuickHullFace@local@@$00@local@@QEAA@XZ 000000018004f640     QuickHullConvexHullLib.obj
 0002:0000e654       $chain$2$??1?$MemBlock@UQuickHullFace@local@@$00@local@@QEAA@XZ 000000018004f654     QuickHullConvexHullLib.obj
 0002:0000e654       $chain$2$??1?$MemBlock@UQuickHullHalfEdge@local@@$0A@@local@@QEAA@XZ 000000018004f654     QuickHullConvexHullLib.obj
 0002:0000e664       $chain$3$??1?$MemBlock@UQuickHullHalfEdge@local@@$0A@@local@@QEAA@XZ 000000018004f664     QuickHullConvexHullLib.obj
 0002:0000e664       $chain$3$??1?$MemBlock@UQuickHullFace@local@@$00@local@@QEAA@XZ 000000018004f664     QuickHullConvexHullLib.obj
 0002:0000e674       $chain$0$?reset@?$MemBlock@UQuickHullHalfEdge@local@@$0A@@local@@QEAAXXZ 000000018004f674     QuickHullConvexHullLib.obj
 0002:0000e688       $chain$1$?reset@?$MemBlock@UQuickHullHalfEdge@local@@$0A@@local@@QEAAXXZ 000000018004f688     QuickHullConvexHullLib.obj
 0002:0000e698       $unwind$?getFreeItem@?$MemBlock@UQuickHullHalfEdge@local@@$0A@@local@@QEAAPEAUQuickHullHalfEdge@2@XZ 000000018004f698     QuickHullConvexHullLib.obj
 0002:0000e6a4       $chain$0$?allocate@?$ReflectionAllocator@PEAUQuickHullHalfEdge@local@@@shdfnd@physx@@QEAAPEAX_KPEBDH@Z 000000018004f6a4     QuickHullConvexHullLib.obj
 0002:0000e6b8       $chain$1$?allocate@?$ReflectionAllocator@PEAUQuickHullHalfEdge@local@@@shdfnd@physx@@QEAAPEAX_KPEBDH@Z 000000018004f6b8     QuickHullConvexHullLib.obj
 0002:0000e6c8       $unwind$?init@?$MemBlock@UQuickHullFace@local@@$00@local@@QEAAXI@Z 000000018004f6c8     QuickHullConvexHullLib.obj
 0002:0000e6d8       $chain$0$?reset@?$MemBlock@UQuickHullFace@local@@$00@local@@QEAAXXZ 000000018004f6d8     QuickHullConvexHullLib.obj
 0002:0000e6ec       $chain$1$?reset@?$MemBlock@UQuickHullFace@local@@$00@local@@QEAAXXZ 000000018004f6ec     QuickHullConvexHullLib.obj
 0002:0000e6fc       $unwind$?getFreeItem@?$MemBlock@UQuickHullFace@local@@$00@local@@QEAAPEAUQuickHullFace@2@XZ 000000018004f6fc     QuickHullConvexHullLib.obj
 0002:0000e70c       $unwind$?allocate@?$ReflectionAllocator@VPair@@@shdfnd@physx@@QEAAPEAX_KPEBDH@Z 000000018004f70c     ConvexPolygonsBuilder.obj
 0002:0000e70c       $unwind$?allocate@?$ReflectionAllocator@URTreeNodeNQ@physx@@@shdfnd@physx@@QEAAPEAX_KPEBDH@Z 000000018004f70c     RTreeCooking.obj
 0002:0000e70c       $unwind$?allocate@?$ReflectionAllocator@VHalfEdge@ConvexHull@physx@@@shdfnd@physx@@QEAAPEAX_KPEBDH@Z 000000018004f70c     ConvexHullUtils.obj
 0002:0000e70c       $unwind$?allocate@?$ReflectionAllocator@VPxVec3@physx@@@shdfnd@physx@@QEAAPEAX_KPEBDH@Z 000000018004f70c     Quantizer.obj
 0002:0000e70c       $unwind$?allocate@?$ReflectionAllocator@PEAUQuickHullFace@local@@@shdfnd@physx@@QEAAPEAX_KPEBDH@Z 000000018004f70c     QuickHullConvexHullLib.obj
 0002:0000e70c       $unwind$?allocate@?$ReflectionAllocator@USlab@NodeAllocator@Gu@physx@@@shdfnd@physx@@QEAAPEAX_KPEBDH@Z 000000018004f70c     BVHStructureBuilder.obj
 0002:0000e70c       $unwind$?allocate@?$ReflectionAllocator@UExpandPoint@local@@@shdfnd@physx@@QEAAPEAX_KPEBDH@Z 000000018004f70c     QuickHullConvexHullLib.obj
 0002:0000e70c       $unwind$?allocate@?$ReflectionAllocator@UPxDebugLine@physx@@@shdfnd@physx@@QEAAPEAX_KPEBDH@Z 000000018004f70c     Cooking.obj
 0002:0000e70c       $unwind$?allocate@?$ReflectionAllocator@UPxBounds3V@physx@@@shdfnd@physx@@QEAAPEAX_KPEBDH@Z 000000018004f70c     RTreeCooking.obj
 0002:0000e70c       $unwind$?allocate@?$ReflectionAllocator@VPxPlane@physx@@@shdfnd@physx@@QEAAPEAX_KPEBDH@Z 000000018004f70c     ConvexHullUtils.obj
 0002:0000e70c       $unwind$?allocate@?$ReflectionAllocator@PEAUQuickHullHalfEdge@local@@@shdfnd@physx@@QEAAPEAX_KPEBDH@Z 000000018004f70c     QuickHullConvexHullLib.obj
 0002:0000e70c       $unwind$?allocate@?$ReflectionAllocator@PEAUQuickHullVertex@local@@@shdfnd@physx@@QEAAPEAX_KPEBDH@Z 000000018004f70c     QuickHullConvexHullLib.obj
 0002:0000e70c       $unwind$?allocate@?$ReflectionAllocator@I@shdfnd@physx@@QEAAPEAX_KPEBDH@Z 000000018004f70c     RTreeCooking.obj
 0002:0000e70c       $unwind$?allocate@?$ReflectionAllocator@URTreeNodeQ@Gu@physx@@@shdfnd@physx@@QEAAPEAX_KPEBDH@Z 000000018004f70c     RTreeCooking.obj
 0002:0000e71c       $chain$0$?allocate@?$ReflectionAllocator@PEAUQuickHullFace@local@@@shdfnd@physx@@QEAAPEAX_KPEBDH@Z 000000018004f71c     QuickHullConvexHullLib.obj
 0002:0000e730       $chain$1$?allocate@?$ReflectionAllocator@PEAUQuickHullFace@local@@@shdfnd@physx@@QEAAPEAX_KPEBDH@Z 000000018004f730     QuickHullConvexHullLib.obj
 0002:0000e740       $chain$0$?allocate@?$ReflectionAllocator@PEAUQuickHullVertex@local@@@shdfnd@physx@@QEAAPEAX_KPEBDH@Z 000000018004f740     QuickHullConvexHullLib.obj
 0002:0000e754       $chain$1$?allocate@?$ReflectionAllocator@PEAUQuickHullVertex@local@@@shdfnd@physx@@QEAAPEAX_KPEBDH@Z 000000018004f754     QuickHullConvexHullLib.obj
 0002:0000e764       $chain$0$?allocate@?$ReflectionAllocator@UExpandPoint@local@@@shdfnd@physx@@QEAAPEAX_KPEBDH@Z 000000018004f764     QuickHullConvexHullLib.obj
 0002:0000e778       $chain$1$?allocate@?$ReflectionAllocator@UExpandPoint@local@@@shdfnd@physx@@QEAAPEAX_KPEBDH@Z 000000018004f778     QuickHullConvexHullLib.obj
 0002:0000e788       $unwind$?threePlaneIntersection@local@@YA?AVPxVec3@physx@@AEBVPxPlane@3@00@Z 000000018004f788     QuickHullConvexHullLib.obj
 0002:0000e7b0       $unwind$_raise_exc         000000018004f7b0     libucrt:fpexcept.obj
 0002:0000e7b0       $unwind$?computeVolumeIntegralsEberlySIMD@physx@@YA_NAEBVPxConvexMeshDesc@1@MAEAUPxIntegrals@1@AEBVPxVec3@1@@Z 000000018004f7b0     VolumeIntegration.obj
 0002:0000e7b0       $unwind$?computeVolumeIntegralsEberly@physx@@YA_NAEBVPxConvexMeshDesc@1@MAEAUPxIntegrals@1@AEBVPxVec3@1@@Z 000000018004f7b0     VolumeIntegration.obj
 0002:0000e7b0       $unwind$_raise_excf        000000018004f7b0     libucrt:fpexcept.obj
 0002:0000e7b8       $unwind$?computeVolumeIntegralsSIMD@VolumeIntegratorEberly@?A0xabad1410@physx@@QEAA_NAEAUPxIntegrals@3@AEBVPxVec3@3@@Z 000000018004f7b8     VolumeIntegration.obj
 0002:0000e7ec       $chain$0$?computeVolumeIntegralsSIMD@VolumeIntegratorEberly@?A0xabad1410@physx@@QEAA_NAEAUPxIntegrals@3@AEBVPxVec3@3@@Z 000000018004f7ec     VolumeIntegration.obj
 0002:0000e800       $chain$2$?computeVolumeIntegralsSIMD@VolumeIntegratorEberly@?A0xabad1410@physx@@QEAA_NAEAUPxIntegrals@3@AEBVPxVec3@3@@Z 000000018004f800     VolumeIntegration.obj
 0002:0000e818       $chain$3$?computeVolumeIntegralsSIMD@VolumeIntegratorEberly@?A0xabad1410@physx@@QEAA_NAEAUPxIntegrals@3@AEBVPxVec3@3@@Z 000000018004f818     VolumeIntegration.obj
 0002:0000e828       $chain$4$?computeVolumeIntegralsSIMD@VolumeIntegratorEberly@?A0xabad1410@physx@@QEAA_NAEAUPxIntegrals@3@AEBVPxVec3@3@@Z 000000018004f828     VolumeIntegration.obj
 0002:0000e838       $unwind$?computeVolumeIntegrals@VolumeIntegratorEberly@?A0xabad1410@physx@@QEAA_NAEAUPxIntegrals@3@AEBVPxVec3@3@@Z 000000018004f838     VolumeIntegration.obj
 0002:0000e868       $chain$0$?computeVolumeIntegrals@VolumeIntegratorEberly@?A0xabad1410@physx@@QEAA_NAEAUPxIntegrals@3@AEBVPxVec3@3@@Z 000000018004f868     VolumeIntegration.obj
 0002:0000e87c       $chain$6$?computeVolumeIntegrals@VolumeIntegratorEberly@?A0xabad1410@physx@@QEAA_NAEAUPxIntegrals@3@AEBVPxVec3@3@@Z 000000018004f87c     VolumeIntegration.obj
 0002:0000e8a4       $chain$7$?computeVolumeIntegrals@VolumeIntegratorEberly@?A0xabad1410@physx@@QEAA_NAEAUPxIntegrals@3@AEBVPxVec3@3@@Z 000000018004f8a4     VolumeIntegration.obj
 0002:0000e8b4       $chain$8$?computeVolumeIntegrals@VolumeIntegratorEberly@?A0xabad1410@physx@@QEAA_NAEAUPxIntegrals@3@AEBVPxVec3@3@@Z 000000018004f8b4     VolumeIntegration.obj
 0002:0000e8c4       xdata                      000000018004f8c4     PhysXCommon_64:PhysXCommon_64.dll
 0002:0000e8cc       xdata                      000000018004f8cc     PhysXFoundation_64:PhysXFoundation_64.dll
 0002:0000e8d4       $unwind$?getTriangleNormalInternal@HeightField@Gu@physx@@QEBA?AVPxVec3@3@I@Z 000000018004f8d4     Cooking.obj
 0002:0000e8d4       $unwind$?nextPointToAdd@QuickHull@local@@IEAAPEAUQuickHullVertex@2@AEAPEAUQuickHullFace@2@@Z 000000018004f8d4     QuickHullConvexHullLib.obj
 0002:0000e8d4       $unwind$??$median3@I$$CBUSortBoundsPredicate@physx@@@internal@shdfnd@physx@@YAXPEAIHHAEBUSortBoundsPredicate@2@@Z 000000018004f8d4     RTreeCooking.obj
 0002:0000e8d4       $unwind$?DloadObtainSection@@YAPEAXPEAK0@Z 000000018004f8d4     Delayimp:delayhlp.obj
 0002:0000e8e4       $unwind$?DloadProtectSection@@YAXKPEAK@Z 000000018004f8e4     Delayimp:delayhlp.obj
 0002:0000e8f4       $unwind$__delayLoadHelper2 000000018004f8f4     Delayimp:delayhlp.obj
 0002:0000e910       $xdatasym                  000000018004f910     LIBCMT:_chkstk_.obj
 0002:0000e918       $unwind$?dllmain_crt_process_attach@@YAHQEAUHINSTANCE__@@QEAX@Z 000000018004f918     LIBCMT:dll_dllmain.obj
 0002:0000e944       $unwind$?dllmain_crt_process_detach@@YAH_N@Z 000000018004f944     LIBCMT:dll_dllmain.obj
 0002:0000e96c       $unwind$?dllmain_dispatch@@YAHQEAUHINSTANCE__@@KQEAX@Z 000000018004f96c     LIBCMT:dll_dllmain.obj
 0002:0000e994       $unwind$__unDName$fin$0    000000018004f994     libvcruntime:undname.obj
 0002:0000e994       $unwind$?filt$0@?0??dllmain_dispatch@@YAHQEAUHINSTANCE__@@KQEAX@Z@4HA 000000018004f994     LIBCMT:dll_dllmain.obj
 0002:0000e99c       $unwind$__scrt_is_nonwritable_in_current_image 000000018004f99c     LIBCMT:utility.obj
 0002:0000e9bc       $unwind$__scrt_is_nonwritable_in_current_image$filt$0 000000018004f9bc     LIBCMT:utility.obj
 0002:0000e9c4       $unwind$?getScopedName@UnDecorator@@CA?AVDName@@XZ 000000018004f9c4     libvcruntime:undname.obj
 0002:0000e9c4       $unwind$__scrt_initialize_onexit_tables 000000018004f9c4     LIBCMT:utility.obj
 0002:0000e9d0       $unwind$__security_init_cookie 000000018004f9d0     LIBCMT:gs_support.obj
 0002:0000e9dc       $unwind$__scrt_fastfail    000000018004f9dc     LIBCMT:utility_desktop.obj
 0002:0000e9f0       $xdatasym                  000000018004f9f0     LIBCMT:_guard_dispatch_.obj
 0002:0000e9f4       $unwind$__isa_available_init 000000018004f9f4     LIBCMT:_cpu_disp_.obj
 0002:0000ea04       $unwind$__C_specific_handler 000000018004fa04     libvcruntime:_chandler_.obj
 0002:0000ea04       $unwind$__std_type_info_name 000000018004fa04     libvcruntime:std_type_info.obj
 0002:0000ea20       $xdatasym                  000000018004fa20     libvcruntime:memset.obj
 0002:0000ea28       $xdatasym                  000000018004fa28     libvcruntime:memcpy.obj
 0002:0000ea2c       $unwind$strstr             000000018004fa2c     libvcruntime:strstr.obj
 0002:0000ea3c       $unwind$__unDName          000000018004fa3c     libvcruntime:undname.obj
 0002:0000ea6c       $unwind$sprintf_s          000000018004fa6c     libvcruntime:undname.obj
 0002:0000ea7c       $unwind$__vcrt_uninitialize_winapi_thunks 000000018004fa7c     libvcruntime:winapi_downlevel.obj
 0002:0000ea7c       $unwind$??0DName@@QEAA@D@Z 000000018004fa7c     libvcruntime:undname.obj
 0002:0000ea84       $unwind$??0DName@@QEAA@_K@Z 000000018004fa84     libvcruntime:undname.obj
 0002:0000ea84       $unwind$??0DName@@QEAA@_J@Z 000000018004fa84     libvcruntime:undname.obj
 0002:0000ea94       $unwind$?getDecoratedName@UnDecorator@@CA?AVDName@@XZ 000000018004fa94     libvcruntime:undname.obj
 0002:0000eaa4       $unwind$?getZName@UnDecorator@@CA?AVDName@@_N0@Z 000000018004faa4     libvcruntime:undname.obj
 0002:0000eac8       $unwind$?getOperatorName@UnDecorator@@CA?AVDName@@_NPEA_N@Z 000000018004fac8     libvcruntime:undname.obj
 0002:0000eadc       $unwind$?getScope@UnDecorator@@CA?AVDName@@XZ 000000018004fadc     libvcruntime:undname.obj
 0002:0000eaf8       $unwind$?getSignedDimension@UnDecorator@@CA?AVDName@@XZ 000000018004faf8     libvcruntime:undname.obj
 0002:0000eaf8       $unwind$_mbsdec_l          000000018004faf8     libucrt:mbsdec.obj
 0002:0000eaf8       $unwind$isdigit            000000018004faf8     libucrt:_ctype.obj
 0002:0000eb04       $unwind$?getTemplateName@UnDecorator@@CA?AVDName@@_N@Z 000000018004fb04     libvcruntime:undname.obj
 0002:0000eb20       $unwind$?getTemplateArgumentList@UnDecorator@@CA?AVDName@@XZ 000000018004fb20     libvcruntime:undname.obj
 0002:0000eb48       $unwind$?getTemplateConstant@UnDecorator@@CA?AVDName@@XZ 000000018004fb48     libvcruntime:undname.obj
 0002:0000eb6c       $unwind$?composeDeclaration@UnDecorator@@CA?AVDName@@AEBV2@@Z 000000018004fb6c     libvcruntime:undname.obj
 0002:0000eb90       $unwind$?getEnumType@UnDecorator@@CA?AVDName@@XZ 000000018004fb90     libvcruntime:undname.obj
 0002:0000eb9c       $unwind$?getDataType@UnDecorator@@CA?AVDName@@PEAV2@@Z 000000018004fb9c     libvcruntime:undname.obj
 0002:0000eba8       $unwind$?getThrowTypes@UnDecorator@@CA?AVDName@@XZ 000000018004fba8     libvcruntime:undname.obj
 0002:0000eba8       $unwind$?getPtrRefDataType@UnDecorator@@CA?AVDName@@AEBV2@H@Z 000000018004fba8     libvcruntime:undname.obj
 0002:0000eba8       $unwind$?getPrimaryDataType@UnDecorator@@CA?AVDName@@AEBV2@@Z 000000018004fba8     libvcruntime:undname.obj
 0002:0000ebb8       $unwind$?getDataIndirectType@UnDecorator@@CA?AVDName@@AEBV2@PEBD0H@Z 000000018004fbb8     libvcruntime:undname.obj
 0002:0000ebe0       $unwind$?getExtendedDataIndirectType@UnDecorator@@CA?AVDName@@AEAPEBDAEA_NH@Z 000000018004fbe0     libvcruntime:undname.obj
 0002:0000ebf4       $unwind$?getBasicDataType@UnDecorator@@CA?AVDName@@AEBV2@@Z 000000018004fbf4     libvcruntime:undname.obj
 0002:0000ec04       $unwind$?getECSUDataType@UnDecorator@@CA?AVDName@@XZ 000000018004fc04     libvcruntime:undname.obj
 0002:0000ec18       $unwind$?getPtrRefType@UnDecorator@@CA?AVDName@@AEBV2@0PEBD@Z 000000018004fc18     libvcruntime:undname.obj
 0002:0000ec30       $unwind$?getArrayType@UnDecorator@@CA?AVDName@@AEBV2@@Z 000000018004fc30     libvcruntime:undname.obj
 0002:0000ec48       $unwind$?getFunctionIndirectType@UnDecorator@@CA?AVDName@@AEBV2@@Z 000000018004fc48     libvcruntime:undname.obj
 0002:0000ec68       $unwind$?getRestrictionSpec@UnDecorator@@CA?AVDName@@XZ 000000018004fc68     libvcruntime:undname.obj
 0002:0000ec78       $unwind$?getExternalDataType@UnDecorator@@CA?AVDName@@AEBV2@@Z 000000018004fc78     libvcruntime:undname.obj
 0002:0000ec78       $unwind$?getDimension@UnDecorator@@CA?AVDName@@_N@Z 000000018004fc78     libvcruntime:undname.obj
 0002:0000ec8c       $unwind$?getVfTableType@UnDecorator@@CA?AVDName@@AEBV2@@Z 000000018004fc8c     libvcruntime:undname.obj
 0002:0000ec8c       $unwind$??BUnDecorator@@QEAAPEADXZ 000000018004fc8c     libvcruntime:undname.obj
 0002:0000ec9c       $unwind$??1ConvexHullBuilder@physx@@QEAA@XZ 000000018004fc9c     ConvexHullBuilder.obj
 0002:0000ec9c       $unwind$??0DName@@QEAA@PEAV0@@Z 000000018004fc9c     libvcruntime:undname.obj
 0002:0000ec9c       $unwind$__acrt_getptd      000000018004fc9c     libucrt:per_thread_data.obj
 0002:0000ec9c       $unwind$??0DName@@QEAA@AEAPEBDD@Z 000000018004fc9c     libvcruntime:undname.obj
 0002:0000ec9c       $unwind$??$common_lseek_nolock@_J@@YA_JH_JH@Z 000000018004fc9c     libucrt:lseek.obj
 0002:0000ec9c       $unwind$??_GConvexHullLib@physx@@UEAAPEAXI@Z 000000018004fc9c     ConvexHullLib.obj
 0002:0000ec9c       $unwind$?getMemory@_HeapManager@@QEAAPEAX_KH@Z 000000018004fc9c     libvcruntime:undname.obj
 0002:0000ec9c       $unwind$??_GTriangleMeshBuilder@physx@@UEAAPEAXI@Z 000000018004fc9c     TriangleMeshBuilder.obj
 0002:0000ec9c       $unwind$??0pcharNode@@QEAA@PEBDH@Z 000000018004fc9c     libvcruntime:undname.obj
 0002:0000ec9c       $unwind$?reset@AABBTreeBuildParams@Gu@physx@@QEAAXXZ 000000018004fc9c     BVHStructureBuilder.obj
 0002:0000ec9c       $unwind$??1AABBTreeBuildParams@Gu@physx@@QEAA@XZ 000000018004fc9c     BVHStructureBuilder.obj
 0002:0000ec9c       $unwind$__acrt_execute_initializers 000000018004fc9c     libucrt:shared_initialization.obj
 0002:0000ec9c       $unwind$??1QuickHullConvexHullLib@physx@@UEAA@XZ 000000018004fc9c     QuickHullConvexHullLib.obj
 0002:0000ec9c       $unwind$?getLastChar@pairNode@@UEBADXZ 000000018004fc9c     libvcruntime:undname.obj
 0002:0000ec9c       $unwind$?resize@?$Array@VPxPlane@physx@@V?$ReflectionAllocator@VPxPlane@physx@@@shdfnd@2@@shdfnd@physx@@QEAAXIAEBVPxPlane@3@@Z 000000018004fc9c     ConvexHullUtils.obj
 0002:0000ec9c       $unwind$__acrt_stdio_flush_nolock 000000018004fc9c     libucrt:fflush.obj
 0002:0000ec9c       $unwind$??$partition@UEdgeTriLookup@physx@@$$CBU?$Less@UEdgeTriLookup@physx@@@shdfnd@2@@internal@shdfnd@physx@@YAHPEAUEdgeTriLookup@2@HHAEBU?$Less@UEdgeTriLookup@physx@@@12@@Z 000000018004fc9c     TriangleMeshBuilder.obj
 0002:0000ec9c       $unwind$??1BVHStructureBuilder@physx@@QEAA@XZ 000000018004fc9c     BVHStructureBuilder.obj
 0002:0000ec9c       $unwind$memcpy_s           000000018004fc9c     libucrt:cfout.obj
 0002:0000ec9c       $unwind$?resize@?$Array@VPxVec3@physx@@V?$ReflectionAllocator@VPxVec3@physx@@@shdfnd@2@@shdfnd@physx@@QEAAXIAEBVPxVec3@3@@Z 000000018004fc9c     ConvexHullUtils.obj
 0002:0000ec9c       $unwind$?doPchar@DName@@AEAAXPEBDH@Z 000000018004fc9c     libvcruntime:undname.obj
 0002:0000ec9c       $unwind$__acrt_InitializeCriticalSectionEx 000000018004fc9c     libucrt:winapi_thunks.obj
 0002:0000ec9c       $unwind$?type_case_n@?$output_processor@DV?$string_output_adapter@D@__crt_stdio_output@@V?$format_validation_base@DV?$string_output_adapter@D@__crt_stdio_output@@@2@@__crt_stdio_output@@AEAA_NXZ 000000018004fc9c     libucrt:output.obj
 0002:0000ec9c       $unwind$??1EdgeList@Gu@physx@@QEAA@XZ 000000018004fc9c     EdgeList.obj
 0002:0000ec9c       $unwind$_DllMainCRTStartup 000000018004fc9c     LIBCMT:dll_dllmain.obj
 0002:0000ec9c       $unwind$??1MeshCleaner@physx@@QEAA@XZ 000000018004fc9c     MeshCleaner.obj
 0002:0000ec9c       $unwind$__acrt_getptd_noexit 000000018004fc9c     libucrt:per_thread_data.obj
 0002:0000ec9c       $unwind$__vcrt_getptd_noexit 000000018004fc9c     libvcruntime:per_thread_data.obj
 0002:0000ec9c       $unwind$_RTC_Terminate     000000018004fc9c     LIBCMT:_initsect_.obj
 0002:0000ec9c       $unwind$??0_LocaleUpdate@@QEAA@QEAU__crt_locale_pointers@@@Z 000000018004fc9c     libucrt:output.obj
 0002:0000ec9c       $unwind$_RTC_Initialize    000000018004fc9c     LIBCMT:_initsect_.obj
 0002:0000ec9c       $unwind$?resize@?$Array@VHalfEdge@ConvexHull@physx@@V?$ReflectionAllocator@VHalfEdge@ConvexHull@physx@@@shdfnd@3@@shdfnd@physx@@QEAAXIAEBVHalfEdge@ConvexHull@3@@Z 000000018004fc9c     ConvexHullUtils.obj
 0002:0000ec9c       $unwind$__vcrt_FlsSetValue 000000018004fc9c     libvcruntime:winapi_downlevel.obj
 0002:0000ec9c       $unwind$?resize@?$Array@IV?$ReflectionAllocator@I@shdfnd@physx@@@shdfnd@physx@@QEAAXIAEBI@Z 000000018004fc9c     RTreeCooking.obj
 0002:0000ec9c       $unwind$??1MeshDataBase@Gu@physx@@UEAA@XZ 000000018004fc9c     TriangleMeshBuilder.obj
 0002:0000ec9c       $unwind$_exception_enabled 000000018004fc9c     libucrt:libm_error.obj
 0002:0000ec9c       $unwind$??YDName@@QEAAAEAV0@PEBD@Z 000000018004fc9c     libvcruntime:undname.obj
 0002:0000ec9c       $unwind$?free_crt_array_internal@@YAXQEAPEBX_K@Z 000000018004fc9c     libucrt:inittime.obj
 0002:0000ecb0       $xdatasym                  000000018004fcb0     libvcruntime:_jmpuwind_.obj
 0002:0000ecc8       $xdatasym                  000000018004fcc8     libucrt:strcmp.obj
 0002:0000eccc       $unwind$atan2f             000000018004fccc     libucrt:atan2f.obj
 0002:0000ecf0       $xdatasym                  000000018004fcf0     libucrt:powf.obj
 0002:0000ed00       $xdatasym                  000000018004fd00     libucrt:cosf.obj
 0002:0000ed08       $xdatasym                  000000018004fd08     libucrt:sinf.obj
 0002:0000ed10       $unwind$?common_exit@@YAXHW4_crt_exit_cleanup_mode@@W4_crt_exit_return_mode@@@Z 000000018004fd10     libucrt:exit.obj
 0002:0000ed1c       $unwind$??R<lambda_6e4b09c48022b2350581041d5f6b0c4c>@@QEBA@XZ 000000018004fd1c     libucrt:exit.obj
 0002:0000ed3c       $unwind$??$?RV<lambda_d80eeec6fff315bfe5c115232f3240e3>@@AEAV<lambda_6e4b09c48022b2350581041d5f6b0c4c>@@V<lambda_2358e3775559c9db80273638284d5e45>@@@?$__crt_seh_guarded_call@X@@QEAAX$$QEAV<lambda_d80eeec6fff315bfe5c115232f3240e3>@@AEAV<lambda_6e4b09c48022b2350581041d5f6b0c4c>@@$$QEAV<lambda_2358e3775559c9db80273638284d5e45>@@@Z 000000018004fd3c     libucrt:exit.obj
 0002:0000ed60       $unwind$_configure_narrow_argv 000000018004fd60     libucrt:argv_parsing.obj
 0002:0000ed74       $unwind$??$parse_command_line@D@@YAXPEADPEAPEAD0PEA_K2@Z 000000018004fd74     libucrt:argv_parsing.obj
 0002:0000ed90       $unwind$??$free_environment@D@@YAXQEAPEAD@Z 000000018004fd90     libucrt:environment_initialization.obj
 0002:0000ed90       $unwind$??$free_environment@_W@@YAXQEAPEA_W@Z 000000018004fd90     libucrt:environment_initialization.obj
 0002:0000ed9c       $unwind$??$create_environment@D@@YAQEAPEADQEAD@Z 000000018004fd9c     libucrt:environment_initialization.obj
 0002:0000edb4       $unwind$_register_onexit_function 000000018004fdb4     libucrt:onexit.obj
 0002:0000edbc       $unwind$_execute_onexit_table 000000018004fdbc     libucrt:onexit.obj
 0002:0000edc4       $unwind$??R<lambda_22ebabd17bc4fa466a2aca6d8deb888d>@@QEBAHXZ 000000018004fdc4     libucrt:onexit.obj
 0002:0000eddc       $unwind$??$?RV<lambda_638799b9deba96c50f710eeac98168cd>@@AEAV<lambda_22ebabd17bc4fa466a2aca6d8deb888d>@@V<lambda_a6f7d7db0129f75315ebf26d50c089f1>@@@?$__crt_seh_guarded_call@H@@QEAAH$$QEAV<lambda_638799b9deba96c50f710eeac98168cd>@@AEAV<lambda_22ebabd17bc4fa466a2aca6d8deb888d>@@$$QEAV<lambda_a6f7d7db0129f75315ebf26d50c089f1>@@@Z 000000018004fddc     libucrt:onexit.obj
 0002:0000ee00       $unwind$??$?RV<lambda_7777bce6b2f8c936911f934f8298dc43>@@AEAV<lambda_f03950bc5685219e0bcd2087efbe011e>@@V<lambda_3883c3dff614d5e0c5f61bb1ac94921c>@@@?$__crt_seh_guarded_call@H@@QEAAH$$QEAV<lambda_7777bce6b2f8c936911f934f8298dc43>@@AEAV<lambda_f03950bc5685219e0bcd2087efbe011e>@@$$QEAV<lambda_3883c3dff614d5e0c5f61bb1ac94921c>@@@Z 000000018004fe00     libucrt:onexit.obj
 0002:0000ee24       $unwind$terminate          000000018004fe24     libucrt:terminate.obj
 0002:0000ee44       $unwind$?getArgumentTypes@UnDecorator@@CA?AVDName@@XZ 000000018004fe44     libvcruntime:undname.obj
 0002:0000ee44       $unwind$?createQuantizer@physx@@YAPEAVQuantizer@1@XZ 000000018004fe44     Quantizer.obj
 0002:0000ee44       $unwind$?recordTriangleIndices@TriangleMeshBuilder@physx@@QEAAXXZ 000000018004fe44     TriangleMeshBuilder.obj
 0002:0000ee44       $unwind$?__mbrtowc_utf8@__crt_mbstring@@YA_KPEA_WPEBD_KPEAU_Mbstatet@@@Z 000000018004fe44     libucrt:mbrtowc.obj
 0002:0000ee44       $unwind$__stdio_common_vsprintf_s 000000018004fe44     libucrt:output.obj
 0002:0000ee4c       $unwind$?write_string@?$string_output_adapter@D@__crt_stdio_output@@QEBAXQEBDHQEAHAEAV__crt_deferred_errno_cache@@@Z 000000018004fe4c     libucrt:output.obj
 0002:0000ee64       $unwind$??$common_vsprintf@Vformat_validation_base@__crt_stdio_output@@D@@YAH_KQEAD0QEBDQEAU__crt_locale_pointers@@1@Z 000000018004fe64     libucrt:output.obj
 0002:0000ee84       $unwind$??$write_multiple_characters@V?$string_output_adapter@D@__crt_stdio_output@@D@__crt_stdio_output@@YAXAEBV?$string_output_adapter@D@0@DHQEAH@Z 000000018004fe84     libucrt:output.obj
 0002:0000ee90       $unwind$?process@?$output_processor@DV?$string_output_adapter@D@__crt_stdio_output@@V?$format_validation_base@DV?$string_output_adapter@D@__crt_stdio_output@@@2@@__crt_stdio_output@@QEAAHXZ 000000018004fe90     libucrt:output.obj
 0002:0000eea4       $unwind$?parse_int_from_format_string@?$output_processor@DV?$string_output_adapter@D@__crt_stdio_output@@V?$format_validation_base@DV?$string_output_adapter@D@__crt_stdio_output@@@2@@__crt_stdio_output@@AEAA_NQEAH@Z 000000018004fea4     libucrt:output.obj
 0002:0000eeb8       $unwind$?state_case_type@?$output_processor@DV?$string_output_adapter@D@__crt_stdio_output@@V?$format_validation_base@DV?$string_output_adapter@D@__crt_stdio_output@@@2@@__crt_stdio_output@@AEAA_NXZ 000000018004feb8     libucrt:output.obj
 0002:0000eed0       $unwind$?type_case_a@?$output_processor@DV?$string_output_adapter@D@__crt_stdio_output@@V?$format_validation_base@DV?$string_output_adapter@D@__crt_stdio_output@@@2@@__crt_stdio_output@@AEAA_NXZ 000000018004fed0     libucrt:output.obj
 0002:0000eedc       $unwind$?type_case_integer@?$output_processor@DV?$string_output_adapter@D@__crt_stdio_output@@V?$format_validation_base@DV?$string_output_adapter@D@__crt_stdio_output@@@2@@__crt_stdio_output@@AEAA_NI_N@Z 000000018004fedc     libucrt:output.obj
 0002:0000eedc       $unwind$??R<lambda_f03950bc5685219e0bcd2087efbe011e>@@QEBAHXZ 000000018004fedc     libucrt:onexit.obj
 0002:0000eef4       $unwind$?write_stored_string_tchar@?$output_processor@DV?$string_output_adapter@D@__crt_stdio_output@@V?$format_validation_base@DV?$string_output_adapter@D@__crt_stdio_output@@@2@@__crt_stdio_output@@AEAA_ND@Z 000000018004fef4     libucrt:output.obj
 0002:0000ef0c       $unwind$??$type_case_integer_parse_into_buffer@_K@?$output_processor@DV?$string_output_adapter@D@__crt_stdio_output@@V?$format_validation_base@DV?$string_output_adapter@D@__crt_stdio_output@@@2@@__crt_stdio_output@@AEAAX_KI_N@Z 000000018004ff0c     libucrt:output.obj
 0002:0000ef0c       $unwind$??$type_case_integer_parse_into_buffer@I@?$output_processor@DV?$string_output_adapter@D@__crt_stdio_output@@V?$format_validation_base@DV?$string_output_adapter@D@__crt_stdio_output@@@2@@__crt_stdio_output@@AEAAXII_N@Z 000000018004ff0c     libucrt:output.obj
 0002:0000ef14       $unwind$atol               000000018004ff14     libucrt:atox.obj
 0002:0000ef14       $unwind$_log10_special     000000018004ff14     libucrt:log_special.obj
 0002:0000ef14       $unwind$_invalid_parameter_noinfo 000000018004ff14     libucrt:invalid_parameter.obj
 0002:0000ef14       $unwind$wctomb_s           000000018004ff14     libucrt:wctomb.obj
 0002:0000ef14       $unwind$strtol             000000018004ff14     libucrt:strtox.obj
 0002:0000ef14       $unwind$?allocate@?$Array@UInterval@physx@@V?$InlineAllocator@$0CAAA@V?$ReflectionAllocator@UInterval@physx@@@shdfnd@physx@@@shdfnd@2@@shdfnd@physx@@IEAAPEAUInterval@3@I@Z 000000018004ff14     RTreeCooking.obj
 0002:0000ef14       $unwind$?computeBoxPoints@Box@Gu@physx@@QEBAXPEIAVPxVec3@3@@Z 000000018004ff14     ConvexHullUtils.obj
 0002:0000ef1c       $unwind$??$parse_integer@KV?$c_string_character_source@D@__crt_strtox@@@__crt_strtox@@YAKQEAU__crt_locale_pointers@@V?$c_string_character_source@D@0@H_N@Z 000000018004ff1c     libucrt:atox.obj
 0002:0000ef38       $unwind$_ctrlfp            000000018004ff38     libucrt:fpctrl.obj
 0002:0000ef60       $unwind$_call_matherr      000000018004ff60     libucrt:libm_error.obj
 0002:0000ef68       $unwind$_handle_errorf     000000018004ff68     libucrt:libm_error.obj
 0002:0000ef68       $unwind$_handle_error      000000018004ff68     libucrt:libm_error.obj
 0002:0000ef88       $unwind$_powf_special      000000018004ff88     libucrt:pow_special.obj
 0002:0000ef98       $unwind$__acrt_initialize_fma3 000000018004ff98     libucrt:fma3_available.obj
 0002:0000efa0       $xdatasym                  000000018004ffa0     libucrt:remainder_piby2f_forasm.obj
 0002:0000efa8       $xdatasym                  000000018004ffa8     libucrt:remainder_piby2_forfma3.obj
 0002:0000efb4       $unwind$_sincosf_special   000000018004ffb4     libucrt:sincos_special.obj
 0002:0000efc0       $xdatasym                  000000018004ffc0     libucrt:remainder_piby2f_forc.obj
 0002:0000efd0       $unwind$?construct_ptd_array@@YAXQEAU__acrt_ptd@@@Z 000000018004ffd0     libucrt:per_thread_data.obj
 0002:0000efd8       $unwind$?destroy_ptd_array@@YAXQEAU__acrt_ptd@@@Z 000000018004ffd8     libucrt:per_thread_data.obj
 0002:0000efe0       $unwind$??$?RV<lambda_0ae27a3a962d80f24befdcbee591983d>@@AEAV<lambda_8d0ee55de4b1038c4002e0adecdf1839>@@V<lambda_dc504788e8f1664fe9b84e20bfb512f2>@@@?$__crt_seh_guarded_call@X@@QEAAX$$QEAV<lambda_0ae27a3a962d80f24befdcbee591983d>@@AEAV<lambda_8d0ee55de4b1038c4002e0adecdf1839>@@$$QEAV<lambda_dc504788e8f1664fe9b84e20bfb512f2>@@@Z 000000018004ffe0     libucrt:per_thread_data.obj
 0002:0000f004       $unwind$??$?RV<lambda_aa87e3671a710a21b5dc78c0bdf72e11>@@AEAV<lambda_92619d2358a28f41a33ba319515a20b9>@@V<lambda_6992ecaafeb10aed2b74cb1fae11a551>@@@?$__crt_seh_guarded_call@X@@QEAAX$$QEAV<lambda_aa87e3671a710a21b5dc78c0bdf72e11>@@AEAV<lambda_92619d2358a28f41a33ba319515a20b9>@@$$QEAV<lambda_6992ecaafeb10aed2b74cb1fae11a551>@@@Z 0000000180050004     libucrt:per_thread_data.obj
 0002:0000f028       $unwind$??$?RV<lambda_f2e299630e499de9f9a165e60fcd3db5>@@AEAV<lambda_2ae9d31cdba2644fcbeaf08da7c24588>@@V<lambda_40d01ff24d0e7b3814fdbdcee8eab3c7>@@@?$__crt_seh_guarded_call@X@@QEAAX$$QEAV<lambda_f2e299630e499de9f9a165e60fcd3db5>@@AEAV<lambda_2ae9d31cdba2644fcbeaf08da7c24588>@@$$QEAV<lambda_40d01ff24d0e7b3814fdbdcee8eab3c7>@@@Z 0000000180050028     libucrt:per_thread_data.obj
 0002:0000f04c       $unwind$??$?RV<lambda_2d41944a1d46af3157314b8a01080d33>@@AEAV<lambda_8f455de75cd7d7f24b4096f044d8b9e6>@@V<lambda_aa500f224e6afead328df44964fe2772>@@@?$__crt_seh_guarded_call@X@@QEAAX$$QEAV<lambda_2d41944a1d46af3157314b8a01080d33>@@AEAV<lambda_8f455de75cd7d7f24b4096f044d8b9e6>@@$$QEAV<lambda_aa500f224e6afead328df44964fe2772>@@@Z 000000018005004c     libucrt:per_thread_data.obj
 0002:0000f070       $unwind$__acrt_call_reportfault 0000000180050070     libucrt:invalid_parameter.obj
 0002:0000f090       $unwind$??$__acrt_mbs_to_wcs_cp@U__crt_win32_buffer_internal_dynamic_resizing@@@@YAHQEBDAEAV?$__crt_win32_buffer@_WU__crt_win32_buffer_internal_dynamic_resizing@@@@I@Z 0000000180050090     libucrt:argv_wildcards.obj
 0002:0000f0a8       $unwind$??$common_expand_argv_wildcards@D@@YAHQEAPEADQEAPEAPEAD@Z 00000001800500a8     libucrt:argv_wildcards.obj
 0002:0000f0c0       $unwind$??$expand_argument_wildcards@D@@YAHQEAD0AEAV?$argument_list@D@?A0x5f5c8891@@@Z 00000001800500c0     libucrt:argv_wildcards.obj
 0002:0000f0e4       $unwind$__acrt_GetModuleFileNameA 00000001800500e4     libucrt:getmodulefilenamea.obj
 0002:0000f100       $unwind$??$__acrt_wcs_to_mbs_cp@U__crt_win32_buffer_no_resizing@@@@YAHQEB_WAEAV?$__crt_win32_buffer@DU__crt_win32_buffer_no_resizing@@@@I@Z 0000000180050100     libucrt:getmodulefilenamea.obj
 0002:0000f100       $unwind$__dcrt_write_console 0000000180050100     libucrt:initcon.obj
 0002:0000f114       $unwind$__vcrt_uninitialize 0000000180050114     libvcruntime:initialization.obj
 0002:0000f114       $unwind$__doserrno         0000000180050114     libucrt:errno.obj
 0002:0000f114       $unwind$__acrt_uninitialize 0000000180050114     libucrt:initialization.obj
 0002:0000f114       $unwind$__acrt_initialize_heap 0000000180050114     libucrt:heap_handle.obj
 0002:0000f114       $unwind$_set_errno_from_matherr 0000000180050114     libucrt:fpexcept.obj
 0002:0000f114       $unwind$?state_case_normal_tchar@?$output_processor@DV?$string_output_adapter@D@__crt_stdio_output@@V?$format_validation_base@DV?$string_output_adapter@D@__crt_stdio_output@@@2@@__crt_stdio_output@@AEAA_ND@Z 0000000180050114     libucrt:output.obj
 0002:0000f114       $unwind$?release@Cooking@physx@@UEAAXXZ 0000000180050114     Cooking.obj
 0002:0000f114       $unwind$__vcrt_uninitialize_critical 0000000180050114     libvcruntime:initialization.obj
 0002:0000f114       $unwind$?dllmain_crt_dispatch@@YAHQEAUHINSTANCE__@@KQEAX@Z 0000000180050114     LIBCMT:dll_dllmain.obj
 0002:0000f114       $unwind$__acrt_DownlevelLocaleNameToLCID 0000000180050114     libucrt:lcidtoname_downlevel.obj
 0002:0000f114       $unwind$_invoke_watson     0000000180050114     libucrt:invalid_parameter.obj
 0002:0000f114       $unwind$__acrt_uninitialize_critical 0000000180050114     libucrt:initialization.obj
 0002:0000f114       $unwind$_msize_base        0000000180050114     libucrt:msize.obj
 0002:0000f114       $unwind$__acrt_thread_attach 0000000180050114     libucrt:initialization.obj
 0002:0000f114       $unwind$__scrt_initialize_default_local_stdio_options 0000000180050114     LIBCMT:default_local_stdio_options.obj
 0002:0000f114       $unwind$??$uninitialize_environment_internal@_W@@YAXAEAPEAPEA_W@Z 0000000180050114     libucrt:environment_initialization.obj
 0002:0000f114       $unwind$?state_case_size@?$output_processor@DV?$string_output_adapter@D@__crt_stdio_output@@V?$format_validation_base@DV?$string_output_adapter@D@__crt_stdio_output@@@2@@__crt_stdio_output@@AEAA_NXZ 0000000180050114     libucrt:output.obj
 0002:0000f114       $unwind$_isatty            0000000180050114     libucrt:isatty.obj
 0002:0000f114       $unwind$_statfp            0000000180050114     libucrt:fpctrl.obj
 0002:0000f114       $unwind$__scrt_dllmain_crt_thread_attach 0000000180050114     LIBCMT:utility.obj
 0002:0000f114       $unwind$__scrt_dllmain_uninitialize_critical 0000000180050114     LIBCMT:utility.obj
 0002:0000f114       $unwind$__vcrt_thread_attach 0000000180050114     libvcruntime:initialization.obj
 0002:0000f114       $unwind$?getTypeEncoding@UnDecorator@@CAHXZ 0000000180050114     libvcruntime:undname.obj
 0002:0000f114       $unwind$__acrt_release_locale_ref 0000000180050114     libucrt:locale_refcounting.obj
 0002:0000f114       $unwind$__acrt_thread_detach 0000000180050114     libucrt:initialization.obj
 0002:0000f114       $unwind$__acrt_uninitialize_ptd 0000000180050114     libucrt:per_thread_data.obj
 0002:0000f114       $unwind$__pctype_func      0000000180050114     libucrt:ctype.obj
 0002:0000f114       $unwind$__report_rangecheckfailure 0000000180050114     LIBCMT:gs_report.obj
 0002:0000f114       $unwind$__vcrt_initialize  0000000180050114     libvcruntime:initialization.obj
 0002:0000f114       $unwind$__acrt_initialize_ptd 0000000180050114     libucrt:per_thread_data.obj
 0002:0000f114       $unwind$__vcrt_thread_detach 0000000180050114     libvcruntime:initialization.obj
 0002:0000f114       $unwind$_get_osfhandle     0000000180050114     libucrt:osfinfo.obj
 0002:0000f114       $unwind$atexit             0000000180050114     LIBCMT:utility.obj
 0002:0000f114       $unwind$initialize_c       0000000180050114     libucrt:initialization.obj
 0002:0000f114       $unwind$__acrt_initialize_command_line 0000000180050114     libucrt:argv_data.obj
 0002:0000f114       $unwind$__scrt_dllmain_uninitialize_c 0000000180050114     LIBCMT:utility.obj
 0002:0000f114       $unwind$abort              0000000180050114     libucrt:abort.obj
 0002:0000f114       $unwind$?__c32rtomb_utf8@__crt_mbstring@@YA_KPEAD_UPEAU_Mbstatet@@@Z 0000000180050114     libucrt:c32rtomb.obj
 0002:0000f114       $unwind$__scrt_dllmain_after_initialize_c 0000000180050114     LIBCMT:utility.obj
 0002:0000f114       $unwind$__dcrt_uninitialize_environments_nolock 0000000180050114     libucrt:environment_initialization.obj
 0002:0000f114       $unwind$__GSHandlerCheck   0000000180050114     LIBCMT:_gshandler_.obj
 0002:0000f114       $unwind$__acrt_initialize_multibyte 0000000180050114     libucrt:mbctype.obj
 0002:0000f114       $unwind$__scrt_dllmain_before_initialize_c 0000000180050114     LIBCMT:utility.obj
 0002:0000f114       $unwind$__acrt_update_thread_multibyte_data 0000000180050114     libucrt:mbctype.obj
 0002:0000f114       $unwind$??$uninitialize_environment_internal@D@@YAXAEAPEAPEAD@Z 0000000180050114     libucrt:environment_initialization.obj
 0002:0000f114       $unwind$__vcrt_initialize_ptd 0000000180050114     libvcruntime:per_thread_data.obj
 0002:0000f114       $unwind$__scrt_acquire_startup_lock 0000000180050114     LIBCMT:utility.obj
 0002:0000f114       $unwind$tolower            0000000180050114     libucrt:tolower_toupper.obj
 0002:0000f114       $unwind$_fileno            0000000180050114     libucrt:fileno.obj
 0002:0000f114       $unwind$uninitialize_environment 0000000180050114     libucrt:initialization.obj
 0002:0000f114       $unwind$__acrt_AreFileApisANSI 0000000180050114     libucrt:winapi_thunks.obj
 0002:0000f114       $unwind$__scrt_dllmain_crt_thread_detach 0000000180050114     LIBCMT:utility.obj
 0002:0000f114       $unwind$__vcrt_uninitialize_ptd 0000000180050114     libvcruntime:per_thread_data.obj
 0002:0000f114       $unwind$__vcrt_freefls     0000000180050114     libvcruntime:per_thread_data.obj
 0002:0000f114       $unwind$_errno             0000000180050114     libucrt:errno.obj
 0002:0000f114       $unwind$uninitialize_allocated_io_buffers 0000000180050114     libucrt:initialization.obj
 0002:0000f114       $unwind$__dcrt_terminate_console_output 0000000180050114     libucrt:initcon.obj
 0002:0000f114       $unwind$?initialize_multibyte@@YAHXZ 0000000180050114     libucrt:multibyte_initializer.obj
 0002:0000f11c       $unwind$_setmbcp_nolock    000000018005011c     libucrt:mbctype.obj
 0002:0000f13c       $unwind$?update_thread_multibyte_data_internal@@YAPEAU__crt_multibyte_data@@QEAU__acrt_ptd@@QEAPEAU1@@Z 000000018005013c     libucrt:mbctype.obj
 0002:0000f164       $unwind$?setmbcp_internal@@YAHH_NQEAU__acrt_ptd@@QEAPEAU__crt_multibyte_data@@@Z 0000000180050164     libucrt:mbctype.obj
 0002:0000f174       $unwind$?setSBUpLow@@YAXPEAU__crt_multibyte_data@@@Z 0000000180050174     libucrt:mbctype.obj
 0002:0000f190       $unwind$??$?RV<lambda_efdfa57d1f175319df784efa44bb7b81>@@AEAV<lambda_5f0a4c1567f8adc6734073e5d1e1b35c>@@V<lambda_2e8a7d3640ea6ccb4c2413664c2db6fd>@@@?$__crt_seh_guarded_call@X@@QEAAX$$QEAV<lambda_efdfa57d1f175319df784efa44bb7b81>@@AEAV<lambda_5f0a4c1567f8adc6734073e5d1e1b35c>@@$$QEAV<lambda_2e8a7d3640ea6ccb4c2413664c2db6fd>@@@Z 0000000180050190     libucrt:mbctype.obj
 0002:0000f1b4       $unwind$?x_ismbbtype_l@@YAHPEAU__crt_locale_pointers@@IHH@Z 00000001800501b4     libucrt:ismbbyte.obj
 0002:0000f1b4       $unwind$?save@BigConvexDataBuilder@physx@@QEBA_NAEAVPxOutputStream@2@_N@Z 00000001800501b4     BigConvexDataBuilder.obj
 0002:0000f1c4       $unwind$??$__acrt_wcs_to_mbs_cp@U__crt_win32_buffer_internal_dynamic_resizing@@@@YAHQEB_WAEAV?$__crt_win32_buffer@DU__crt_win32_buffer_internal_dynamic_resizing@@@@I@Z 00000001800501c4     libucrt:argv_wildcards.obj
 0002:0000f1c4       $unwind$?fp_format_f_internal@@YAHQEAD_KHQEAU_strflt@@_NQEAU__crt_locale_pointers@@@Z 00000001800501c4     libucrt:cvt.obj
 0002:0000f1c4       $unwind$__dcrt_get_narrow_environment_from_os 00000001800501c4     libucrt:get_environment_from_os.obj
 0002:0000f1dc       $unwind$__acrt_initialize_winapi_thunks 00000001800501dc     libucrt:winapi_thunks.obj
 0002:0000f1e4       $unwind$?try_get_function@@YAPEAXW4function_id@?A0x58e6d967@@QEBDQEBW4module_id@2@2@Z 00000001800501e4     libvcruntime:winapi_downlevel.obj
 0002:0000f1e4       $unwind$?try_get_function@@YAPEAXW4function_id@?A0x391cf84c@@QEBDQEBW4module_id@2@2@Z 00000001800501e4     libucrt:winapi_thunks.obj
 0002:0000f1e4       $unwind$?CheckFloodFill@Local@?7??extractHullPolygons@@YA_NAEAIAEAV?$Array@IV?$ReflectionAllocator@I@shdfnd@physx@@@shdfnd@physx@@AEBVConvexPolygonsBuilder@5@PEAV345@1@Z@SA_N1PEAVAdjTriangle@5@PEA_NPEBI@Z 00000001800501e4     ConvexPolygonsBuilder.obj
 0002:0000f200       $unwind$__acrt_initialize_lowio 0000000180050200     libucrt:ioinit.obj
 0002:0000f220       $unwind$?initialize_inherited_file_handles_nolock@@YAXXZ 0000000180050220     libucrt:ioinit.obj
 0002:0000f23c       $unwind$?getString@pairNode@@UEBAPEADPEAD0@Z 000000018005023c     libvcruntime:undname.obj
 0002:0000f23c       $unwind$?initialize_stdio_handles_nolock@@YAXXZ 000000018005023c     libucrt:ioinit.obj
 0002:0000f23c       $unwind$__acrt_initialize_stdio 000000018005023c     libucrt:_file.obj
 0002:0000f254       $unwind$_query_new_handler 0000000180050254     libucrt:new_handler.obj
 0002:0000f274       $unwind$__acrt_uninitialize_locale 0000000180050274     libucrt:wsetlocale.obj
 0002:0000f274       $unwind$__acrt_get_sigabrt_handler 0000000180050274     libucrt:signal.obj
 0002:0000f27c       $unwind$raise              000000018005027c     libucrt:signal.obj
 0002:0000f2b8       $unwind$??$?RV<lambda_450d765d439847d4c735a33c368b5fc0>@@AEAV<lambda_44731a7d0e6d81c3e6aa82d741081786>@@V<lambda_601a2a7da3b7a96e9554ac7215c4b07c>@@@?$__crt_seh_guarded_call@P6AXH@Z@@QEAAP6AXH@Z$$QEAV<lambda_450d765d439847d4c735a33c368b5fc0>@@AEAV<lambda_44731a7d0e6d81c3e6aa82d741081786>@@$$QEAV<lambda_601a2a7da3b7a96e9554ac7215c4b07c>@@@Z 00000001800502b8     libucrt:signal.obj
 0002:0000f2dc       $unwind$??YDName@@QEAAAEAV0@W4DNameStatus@@@Z 00000001800502dc     libvcruntime:undname.obj
 0002:0000f2dc       $unwind$strcpy_s           00000001800502dc     libucrt:strcpy_s.obj
 0002:0000f2dc       $unwind$??4DName@@QEAAAEAV0@PEBD@Z 00000001800502dc     libvcruntime:undname.obj
 0002:0000f2dc       $unwind$feholdexcept       00000001800502dc     libucrt:feholdexcept.obj
 0002:0000f2dc       $unwind$fesetenv           00000001800502dc     libucrt:fesetenv.obj
 0002:0000f2dc       $unwind$??0DName@@QEAA@PEBD@Z 00000001800502dc     libvcruntime:undname.obj
 0002:0000f2dc       $unwind$??1?$MemBlock@UQuickHullHalfEdge@local@@$0A@@local@@QEAA@XZ 00000001800502dc     QuickHullConvexHullLib.obj
 0002:0000f2dc       $unwind$__acrt_allocate_buffer_for_argv 00000001800502dc     libucrt:argv_parsing.obj
 0002:0000f2dc       $unwind$_purecall          00000001800502dc     libvcruntime:purevirt.obj
 0002:0000f2dc       $unwind$??0BV4TriangleData@Gu@physx@@QEAA@XZ 00000001800502dc     TriangleMeshBuilder.obj
 0002:0000f2dc       $unwind$__acrt_stdio_free_buffer_nolock 00000001800502dc     libucrt:_freebuf.obj
 0002:0000f2dc       $unwind$??4DName@@QEAAAEAV0@W4DNameStatus@@@Z 00000001800502dc     libvcruntime:undname.obj
 0002:0000f2dc       $unwind$__acrt_uninitialize_winapi_thunks 00000001800502dc     libucrt:winapi_thunks.obj
 0002:0000f2dc       $unwind$__acrt_uninitialize_stdio 00000001800502dc     libucrt:_file.obj
 0002:0000f2dc       $unwind$??0BV4TriangleMeshBuilder@physx@@QEAA@AEBUPxCookingParams@1@@Z 00000001800502dc     TriangleMeshBuilder.obj
 0002:0000f2dc       $unwind$fegetenv           00000001800502dc     libucrt:fegetenv.obj
 0002:0000f2dc       $unwind$__acrt_FlsAlloc    00000001800502dc     libucrt:winapi_thunks.obj
 0002:0000f2dc       $unwind$??1?$MemBlock@UQuickHullFace@local@@$00@local@@QEAA@XZ 00000001800502dc     QuickHullConvexHullLib.obj
 0002:0000f2dc       $unwind$__acrt_FlsFree     00000001800502dc     libucrt:winapi_thunks.obj
 0002:0000f2dc       $unwind$?DloadReleaseSectionWriteAccess@@YAXXZ 00000001800502dc     Delayimp:delayhlp.obj
 0002:0000f2dc       $unwind$__acrt_FlsGetValue 00000001800502dc     libucrt:winapi_thunks.obj
 0002:0000f2dc       $unwind$??1Adjacencies@physx@@QEAA@XZ 00000001800502dc     Adjacencies.obj
 0002:0000f2dc       $unwind$??_GQuantizer@physx@@MEAAPEAXI@Z 00000001800502dc     Quantizer.obj
 0002:0000f2dc       $unwind$?getDispatchTarget@UnDecorator@@CA?AVDName@@XZ 00000001800502dc     libvcruntime:undname.obj
 0002:0000f2dc       $unwind$uninitialize_allocated_memory 00000001800502dc     libucrt:initialization.obj
 0002:0000f2dc       $unwind$__vcrt_uninitialize_locks 00000001800502dc     libvcruntime:locks.obj
 0002:0000f2dc       $unwind$_fflush_nolock     00000001800502dc     libucrt:fflush.obj
 0002:0000f2dc       $unwind$??AReplicator@@QEBA?AVDName@@H@Z 00000001800502dc     libvcruntime:undname.obj
 0002:0000f2dc       $unwind$??_EPxFoundation@physx@@MEAAPEAXI@Z 00000001800502dc     Adjacencies.obj
 0002:0000f2dc       $unwind$__vcrt_initialize_locks 00000001800502dc     libvcruntime:locks.obj
 0002:0000f2dc       $unwind$?type_case_s@?$output_processor@DV?$string_output_adapter@D@__crt_stdio_output@@V?$format_validation_base@DV?$string_output_adapter@D@__crt_stdio_output@@@2@@__crt_stdio_output@@AEAA_NXZ 00000001800502dc     libucrt:output.obj
 0002:0000f2dc       $unwind$?type_case_c_tchar@?$output_processor@DV?$string_output_adapter@D@__crt_stdio_output@@V?$format_validation_base@DV?$string_output_adapter@D@__crt_stdio_output@@@2@@__crt_stdio_output@@AEAA_ND@Z 00000001800502dc     libucrt:output.obj
 0002:0000f2dc       $unwind$__acrt_AppPolicyGetProcessTerminationMethodInternal 00000001800502dc     libucrt:winapi_thunks.obj
 0002:0000f2dc       $unwind$?internal_isupper_l@@YA_NHQEAU__crt_locale_pointers@@@Z 00000001800502dc     libucrt:tolower_toupper.obj
 0002:0000f2dc       $unwind$?getSymbolName@UnDecorator@@CA?AVDName@@XZ 00000001800502dc     libvcruntime:undname.obj
 0002:0000f2dc       $unwind$_clearfp           00000001800502dc     libucrt:ieee.obj
 0002:0000f2dc       $unwind$__acrt_freeptd     00000001800502dc     libucrt:per_thread_data.obj
 0002:0000f2dc       $unwind$__raise_securityfailure 00000001800502dc     LIBCMT:gs_report.obj
 0002:0000f2dc       $unwind$??_GRemapCallback@RTreeCooker@physx@@UEAAPEAXI@Z 00000001800502dc     TriangleMeshBuilder.obj
 0002:0000f2dc       $unwind$??_GRTreeCookerRemap@physx@@UEAAPEAXI@Z 00000001800502dc     TriangleMeshBuilder.obj
 0002:0000f2dc       $unwind$?getTriangleNormal@HeightField@Gu@physx@@UEBA?AVPxVec3@3@I@Z 00000001800502dc     Cooking.obj
 0002:0000f2dc       $unwind$_callnewh          00000001800502dc     libucrt:new_handler.obj
 0002:0000f2dc       $unwind$__acrt_getptd_head 00000001800502dc     libucrt:per_thread_data.obj
 0002:0000f2dc       $unwind$__acrt_get_process_end_policy 00000001800502dc     libucrt:win_policies.obj
 0002:0000f2dc       $unwind$?isKindOf@PxHeightField@physx@@MEBA_NPEBD@Z 00000001800502dc     Cooking.obj
 0002:0000f2dc       $unwind$_set_statfp        00000001800502dc     libucrt:fpctrl.obj
 0002:0000f2dc       $unwind$??_Gtype_info@@UEAAPEAXI@Z 00000001800502dc     LIBCMT:std_type_info_static.obj
 0002:0000f2dc       $unwind$??_GPxBase@physx@@MEAAPEAXI@Z 00000001800502dc     Cooking.obj
 0002:0000f2dc       $unwind$_malloc_base       00000001800502dc     libucrt:malloc_base.obj
 0002:0000f2dc       $unwind$?isKindOf@PxConvexMesh@physx@@MEBA_NPEBD@Z 00000001800502dc     Cooking.obj
 0002:0000f2dc       $unwind$__std_type_info_destroy_list 00000001800502dc     libvcruntime:std_type_info.obj
 0002:0000f2dc       $unwind$??_GPxCooking@physx@@MEAAPEAXI@Z 00000001800502dc     Cooking.obj
 0002:0000f2dc       $unwind$??0ConvexMeshBuilder@physx@@QEAA@_N@Z 00000001800502dc     ConvexMeshBuilder.obj
 0002:0000f2dc       $unwind$?state_case_normal@?$output_processor@DV?$string_output_adapter@D@__crt_stdio_output@@V?$format_validation_base@DV?$string_output_adapter@D@__crt_stdio_output@@@2@@__crt_stdio_output@@AEAA_NXZ 00000001800502dc     libucrt:output.obj
 0002:0000f2dc       $unwind$_calloc_base       00000001800502dc     libucrt:calloc_base.obj
 0002:0000f2dc       $unwind$?isFinite@PxVec3@physx@@QEBA_NXZ 00000001800502dc     ConvexMeshBuilder.obj
 0002:0000f2dc       $unwind$?try_cor_exit_process@@YAXI@Z 00000001800502dc     libucrt:exit.obj
 0002:0000f2dc       $unwind$?exit_or_terminate_process@@YAXI@Z 00000001800502dc     libucrt:exit.obj
 0002:0000f2dc       $unwind$?getReturnType@UnDecorator@@CA?AVDName@@PEAV2@@Z 00000001800502dc     libvcruntime:undname.obj
 0002:0000f2dc       $unwind$_clrfp             00000001800502dc     libucrt:fpctrl.obj
 0002:0000f2dc       $unwind$??0ConvexPolygonsBuilder@physx@@QEAA@PEAUConvexHullData@Gu@1@_N@Z 00000001800502dc     ConvexPolygonsBuilder.obj
 0002:0000f2dc       $unwind$__acrt_uninitialize_locks 00000001800502dc     libucrt:locks.obj
 0002:0000f2dc       $unwind$_onexit            00000001800502dc     LIBCMT:utility.obj
 0002:0000f2dc       $unwind$__acrt_initialize_locks 00000001800502dc     libucrt:locks.obj
 0002:0000f2dc       $unwind$__acrt_update_locale_info 00000001800502dc     libucrt:locale_update.obj
 0002:0000f2dc       $unwind$__acrt_update_multibyte_info 00000001800502dc     libucrt:locale_update.obj
 0002:0000f2dc       $unwind$initialize_pointers 00000001800502dc     libucrt:initialization.obj
 0002:0000f2dc       $unwind$??_GCooking@physx@@UEAAPEAXI@Z 00000001800502dc     Cooking.obj
 0002:0000f2dc       $unwind$__scrt_release_startup_lock 00000001800502dc     LIBCMT:utility.obj
 0002:0000f2dc       $unwind$__vcrt_freeptd     00000001800502dc     libvcruntime:per_thread_data.obj
 0002:0000f2dc       $unwind$__scrt_initialize_crt 00000001800502dc     LIBCMT:utility.obj
 0002:0000f2dc       $unwind$??YDName@@QEAAAEAV0@AEBV0@@Z 00000001800502dc     libvcruntime:undname.obj
 0002:0000f2dc       $unwind$__scrt_uninitialize_crt 00000001800502dc     LIBCMT:utility.obj
 0002:0000f2e4       $unwind$?common_flush_all@@YAH_N@Z 00000001800502e4     libucrt:fflush.obj
 0002:0000f2ec       $unwind$??$?RV<lambda_842d9ff0dc9ef11c61343bbaebe7f885>@@AEAV<lambda_c5860995281e5c4ce005b3de8f5874ee>@@V<lambda_d90129c13df834fdcbf8d2b88dafcf2d>@@@?$__crt_seh_guarded_call@X@@QEAAX$$QEAV<lambda_842d9ff0dc9ef11c61343bbaebe7f885>@@AEAV<lambda_c5860995281e5c4ce005b3de8f5874ee>@@$$QEAV<lambda_d90129c13df834fdcbf8d2b88dafcf2d>@@@Z 00000001800502ec     libucrt:fflush.obj
 0002:0000f310       $unwind$??$?RV<lambda_886d6c58226a84441f68b9f2b8217b83>@@AEAV<lambda_ab61a845afdef5b7c387490eaf3616ee>@@V<lambda_f7f22ab5edc0698d5f6905b0d3f44752>@@@?$__crt_seh_guarded_call@X@@QEAAX$$QEAV<lambda_886d6c58226a84441f68b9f2b8217b83>@@AEAV<lambda_ab61a845afdef5b7c387490eaf3616ee>@@$$QEAV<lambda_f7f22ab5edc0698d5f6905b0d3f44752>@@@Z 0000000180050310     libucrt:fflush.obj
 0002:0000f338       $unwind$_tolower_l         0000000180050338     libucrt:tolower_toupper.obj
 0002:0000f348       $unwind$_wctomb_s_l        0000000180050348     libucrt:wctomb.obj
 0002:0000f358       $unwind$__acrt_fp_format   0000000180050358     libucrt:cvt.obj
 0002:0000f36c       $unwind$?fp_format_nan_or_infinity@@YAHW4__acrt_fp_class@@_NPEAD_K1@Z 000000018005036c     libucrt:cvt.obj
 0002:0000f380       $unwind$?fp_format_e_internal@@YAHQEAD_KH_NIQEAU_strflt@@2QEAU__crt_locale_pointers@@@Z 0000000180050380     libucrt:cvt.obj
 0002:0000f398       $unwind$?fp_format_e@@YAHQEBNQEAD_K12H_NIQEAU__crt_locale_pointers@@@Z 0000000180050398     libucrt:cvt.obj
 0002:0000f398       $unwind$_mbtowc_l          0000000180050398     libucrt:mbtowc.obj
 0002:0000f398       $unwind$__acrt_LCMapStringEx 0000000180050398     libucrt:winapi_thunks.obj
 0002:0000f3ac       $unwind$?fp_format_a@@YAHQEBNPEAD_KQEAD2H_NIQEAU__crt_locale_pointers@@@Z 00000001800503ac     libucrt:cvt.obj
 0002:0000f3c8       $unwind$?fp_format_g@@YAHQEBNQEAD_K12H_NIQEAU__crt_locale_pointers@@@Z 00000001800503c8     libucrt:cvt.obj
 0002:0000f3dc       $unwind$??$?RV<lambda_410d79af7f07d98d83a3f525b3859a53>@@AEAV<lambda_3e16ef9562a7dcce91392c22ab16ea36>@@V<lambda_38119f0e861e05405d8a144b9b982f0a>@@@?$__crt_seh_guarded_call@X@@QEAAX$$QEAV<lambda_410d79af7f07d98d83a3f525b3859a53>@@AEAV<lambda_3e16ef9562a7dcce91392c22ab16ea36>@@$$QEAV<lambda_38119f0e861e05405d8a144b9b982f0a>@@@Z 00000001800503dc     libucrt:wsetlocale.obj
 0002:0000f404       $unwind$_isctype_l         0000000180050404     libucrt:isctype.obj
 0002:0000f420       $xdatasym                  0000000180050420     libucrt:fpsr.obj
 0002:0000f428       $unwind$_raise_exc_ex      0000000180050428     libucrt:fpexcept.obj
 0002:0000f43c       $unwind$__acrt_update_thread_locale_data 000000018005043c     libucrt:locale_refcounting.obj
 0002:0000f460       $unwind$qsort              0000000180050460     libucrt:qsort.obj
 0002:0000f478       $chain$4$qsort             0000000180050478     libucrt:qsort.obj
 0002:0000f49c       $chain$5$qsort             000000018005049c     libucrt:qsort.obj
 0002:0000f4ac       $unwind$_fclose_nolock     00000001800504ac     libucrt:fclose.obj
 0002:0000f4ac       $unwind$??$copy@V?$ReflectionAllocator@USlab@NodeAllocator@Gu@physx@@@shdfnd@physx@@@?$Array@USlab@NodeAllocator@Gu@physx@@V?$ReflectionAllocator@USlab@NodeAllocator@Gu@physx@@@shdfnd@4@@shdfnd@physx@@IEAAXAEBV012@@Z 00000001800504ac     BVHStructureBuilder.obj
 0002:0000f4ac       $unwind$_close_nolock      00000001800504ac     libucrt:close.obj
 0002:0000f4ac       $unwind$?reserveSegments@RenderOutput@Cm@physx@@QEAAPEAUPxDebugLine@3@I@Z 00000001800504ac     Cooking.obj
 0002:0000f4ac       $unwind$?resizeUninitialized@?$Array@URTreeNodeNQ@physx@@V?$ReflectionAllocator@URTreeNodeNQ@physx@@@shdfnd@2@@shdfnd@physx@@QEAAXI@Z 00000001800504ac     RTreeCooking.obj
 0002:0000f4ac       $unwind$??4NodeAllocator@Gu@physx@@QEAAAEAV012@AEBV012@@Z 00000001800504ac     BVHStructureBuilder.obj
 0002:0000f4ac       $unwind$__acrt_fp_strflt_to_string 00000001800504ac     libucrt:_fptostr.obj
 0002:0000f4ac       $unwind$??_GQuickHullConvexHullLib@physx@@UEAAPEAXI@Z 00000001800504ac     QuickHullConvexHullLib.obj
 0002:0000f4ac       $unwind$??$?4V?$ReflectionAllocator@USlab@NodeAllocator@Gu@physx@@@shdfnd@physx@@@?$Array@USlab@NodeAllocator@Gu@physx@@V?$ReflectionAllocator@USlab@NodeAllocator@Gu@physx@@@shdfnd@4@@shdfnd@physx@@QEAAAEAV012@AEBV012@@Z 00000001800504ac     BVHStructureBuilder.obj
 0002:0000f4ac       $unwind$??_GRTreeTriangleMeshBuilder@physx@@UEAAPEAXI@Z 00000001800504ac     TriangleMeshBuilder.obj
 0002:0000f4ac       $unwind$?fillConvexMeshDesc@QuickHullConvexHullLib@physx@@UEAAXAEAVPxConvexMeshDesc@2@@Z 00000001800504ac     QuickHullConvexHullLib.obj
 0002:0000f4ac       $unwind$?append@DName@@AEAAXPEAVDNameNode@@@Z 00000001800504ac     libvcruntime:undname.obj
 0002:0000f4ac       $unwind$??0DName@@QEAA@W4DNameStatus@@@Z 00000001800504ac     libvcruntime:undname.obj
 0002:0000f4ac       $unwind$??1QuickHull@local@@QEAA@XZ 00000001800504ac     QuickHullConvexHullLib.obj
 0002:0000f4ac       $unwind$??YReplicator@@QEAAAEAV0@AEBVDName@@@Z 00000001800504ac     libvcruntime:undname.obj
 0002:0000f4ac       $unwind$?DloadGetSRWLockFunctionPointers@@YAEXZ 00000001800504ac     Delayimp:delayhlp.obj
 0002:0000f4ac       $unwind$_updatetlocinfoEx_nolock 00000001800504ac     libucrt:locale_refcounting.obj
 0002:0000f4ac       $unwind$??1BV4TriangleMeshBuilder@physx@@UEAA@XZ 00000001800504ac     TriangleMeshBuilder.obj
 0002:0000f4ac       $unwind$?force_decimal_point@__crt_stdio_output@@YAXPEADQEAU__crt_locale_pointers@@@Z 00000001800504ac     libucrt:output.obj
 0002:0000f4ac       $unwind$??$copy@V?$ReflectionAllocator@VPair@@@shdfnd@physx@@@?$Array@VPair@@V?$ReflectionAllocator@VPair@@@shdfnd@physx@@@shdfnd@physx@@IEAAXAEBV012@@Z 00000001800504ac     ConvexPolygonsBuilder.obj
 0002:0000f4ac       $unwind$__acrt_uninitialize_lowio 00000001800504ac     libucrt:ioinit.obj
 0002:0000f4ac       $unwind$__vcrt_FlsGetValue 00000001800504ac     libvcruntime:winapi_downlevel.obj
 0002:0000f4ac       $unwind$?DloadAcquireSectionWriteAccess@@YAXXZ 00000001800504ac     Delayimp:delayhlp.obj
 0002:0000f4ac       $unwind$__vcrt_FlsFree     00000001800504ac     libvcruntime:winapi_downlevel.obj
 0002:0000f4ac       $unwind$??1ConvexMeshBuilder@physx@@QEAA@XZ 00000001800504ac     ConvexMeshBuilder.obj
 0002:0000f4ac       $unwind$__vcrt_FlsAlloc    00000001800504ac     libvcruntime:winapi_downlevel.obj
 0002:0000f4ac       $unwind$__acrt_FlsSetValue 00000001800504ac     libucrt:winapi_thunks.obj
 0002:0000f4ac       $unwind$??1ConvexHullLib@physx@@UEAA@XZ 00000001800504ac     ConvexHullLib.obj
 0002:0000f4ac       $unwind$__acrt_execute_uninitializers 00000001800504ac     libucrt:shared_initialization.obj
 0002:0000f4ac       $unwind$??_GBV4TriangleMeshBuilder@physx@@UEAAPEAXI@Z 00000001800504ac     TriangleMeshBuilder.obj
 0002:0000f4ac       $unwind$??1ReducedVertexCloud@physx@@QEAA@XZ 00000001800504ac     CookingUtils.obj
 0002:0000f4ac       $unwind$??1ConvexHull@physx@@QEAA@XZ 00000001800504ac     QuickHullConvexHullLib.obj
 0002:0000f4ac       $unwind$??$common_initialize_environment_nolock@D@@YAHXZ 00000001800504ac     libucrt:environment_initialization.obj
 0002:0000f4ac       $unwind$??0NodeAllocator@Gu@physx@@QEAA@AEBV012@@Z 00000001800504ac     BVHStructureBuilder.obj
 0002:0000f4ac       $unwind$??1QuantizerImpl@@EEAA@XZ 00000001800504ac     Quantizer.obj
 0002:0000f4ac       $unwind$_realloc_base      00000001800504ac     libucrt:realloc_base.obj
 0002:0000f4ac       $unwind$_initterm_e        00000001800504ac     libucrt:initterm.obj
 0002:0000f4ac       $unwind$??1ConvexPolygonsBuilder@physx@@QEAA@XZ 00000001800504ac     ConvexPolygonsBuilder.obj
 0002:0000f4ac       $unwind$__acrt_LocaleNameToLCID 00000001800504ac     libucrt:winapi_thunks.obj
 0002:0000f4ac       $unwind$??_GQuantizerImpl@@EEAAPEAXI@Z 00000001800504ac     Quantizer.obj
 0002:0000f4ac       $unwind$??1TriangleMeshData@Gu@physx@@UEAA@XZ 00000001800504ac     TriangleMeshBuilder.obj
 0002:0000f4ac       $unwind$?physXCommonDliNotePreLoadLibrary@Cm@physx@@YAP6A_JXZPEBDPEBVPxDelayLoadHook@2@@Z 00000001800504ac     WindowsCookingDelayLoadHook.obj
 0002:0000f4ac       $unwind$__acrt_errno_map_os_error 00000001800504ac     libucrt:errno.obj
 0002:0000f4ac       $unwind$??_GTriangleMeshData@Gu@physx@@UEAAPEAXI@Z 00000001800504ac     TriangleMeshBuilder.obj
 0002:0000f4ac       $unwind$??_GBV4TriangleData@Gu@physx@@UEAAPEAXI@Z 00000001800504ac     TriangleMeshBuilder.obj
 0002:0000f4ac       $unwind$strncpy_s          00000001800504ac     libucrt:strncpy_s.obj
 0002:0000f4ac       $unwind$?getLastChar@pDNameNode@@UEBADXZ 00000001800504ac     libvcruntime:undname.obj
 0002:0000f4ac       $unwind$?length@pDNameNode@@UEBAHXZ 00000001800504ac     libvcruntime:undname.obj
 0002:0000f4ac       $unwind$??_GMeshDataBase@Gu@physx@@UEAAPEAXI@Z 00000001800504ac     TriangleMeshBuilder.obj
 0002:0000f4ac       $unwind$?replace_current_thread_locale_nolock@@YAXQEAU__acrt_ptd@@QEAU__crt_locale_data@@@Z 00000001800504ac     libucrt:per_thread_data.obj
 0002:0000f4b8       $unwind$strpbrk            00000001800504b8     libucrt:strpbrk.obj
 0002:0000f4b8       $unwind$?preallocate@QuickHull@local@@QEAAXI@Z 00000001800504b8     QuickHullConvexHullLib.obj
 0002:0000f4b8       $unwind$?allocateVertices@MeshDataBase@Gu@physx@@QEAAPEAVPxVec3@3@I@Z 00000001800504b8     TriangleMeshBuilder.obj
 0002:0000f4c8       $unwind$fallbackMethod     00000001800504c8     libucrt:strpbrk.obj
 0002:0000f4d8       $unwind$__acrt_GetStringTypeA 00000001800504d8     libucrt:getstringtypea.obj
 0002:0000f500       $unwind$__acrt_LCMapStringA 0000000180050500     libucrt:lcmapstringa.obj
 0002:0000f510       $unwind$?__acrt_LCMapStringA_stat@@YAHPEAU__crt_locale_pointers@@PEB_WKPEBDHPEADHHH@Z 0000000180050510     libucrt:lcmapstringa.obj
 0002:0000f538       $unwind$?GetTableIndexFromLocaleName@@YAHPEB_W@Z 0000000180050538     libucrt:lcidtoname_downlevel.obj
 0002:0000f550       $unwind$?getString@DName@@QEBAPEADPEADH@Z 0000000180050550     libvcruntime:undname.obj
 0002:0000f550       $unwind$_free_osfhnd       0000000180050550     libucrt:osfinfo.obj
 0002:0000f564       $unwind$__acrt_lowio_destroy_handle_array 0000000180050564     libucrt:osfinfo.obj
 0002:0000f574       $unwind$__acrt_lowio_ensure_fh_exists 0000000180050574     libucrt:osfinfo.obj
 0002:0000f5a0       $unwind$??$?RV<lambda_a37b2b86f63e897a80ea819b0eb08c01>@@AEAV<lambda_38ce7e780aa69e748d6df282ebc68efe>@@V<lambda_99fb1378e971ab6e7edea83e3a7a83a2>@@@?$__crt_seh_guarded_call@H@@QEAAH$$QEAV<lambda_a37b2b86f63e897a80ea819b0eb08c01>@@AEAV<lambda_38ce7e780aa69e748d6df282ebc68efe>@@$$QEAV<lambda_99fb1378e971ab6e7edea83e3a7a83a2>@@@Z 00000001800505a0     libucrt:commit.obj
 0002:0000f5c4       $unwind$_write             00000001800505c4     libucrt:write.obj
 0002:0000f5f4       $unwind$_write_nolock      00000001800505f4     libucrt:write.obj
 0002:0000f60c       $unwind$?write_double_translated_ansi_nolock@@YA?AUwrite_result@?A0x17268360@@HQEBDI@Z 000000018005060c     libucrt:write.obj
 0002:0000f630       $unwind$?write_text_ansi_nolock@@YA?AUwrite_result@?A0x17268360@@HQEBDI@Z 0000000180050630     libucrt:write.obj
 0002:0000f630       $unwind$?write_text_utf16le_nolock@@YA?AUwrite_result@?A0x17268360@@HQEBDI@Z 0000000180050630     libucrt:write.obj
 0002:0000f650       $unwind$?write_text_utf8_nolock@@YA?AUwrite_result@?A0x17268360@@HQEBDI@Z 0000000180050650     libucrt:write.obj
 0002:0000f674       $unwind$_fcloseall         0000000180050674     libucrt:closeall.obj
 0002:0000f698       $unwind$?fin$0@?0???$?RV<lambda_842d9ff0dc9ef11c61343bbaebe7f885>@@AEAV<lambda_c5860995281e5c4ce005b3de8f5874ee>@@V<lambda_d90129c13df834fdcbf8d2b88dafcf2d>@@@?$__crt_seh_guarded_call@X@@QEAAX$$QEAV<lambda_842d9ff0dc9ef11c61343bbaebe7f885>@@AEAV<lambda_c5860995281e5c4ce005b3de8f5874ee>@@$$QEAV<lambda_d90129c13df834fdcbf8d2b88dafcf2d>@@@Z@4HA 0000000180050698     libucrt:fflush.obj
 0002:0000f698       $unwind$?fin$0@?0???$?RV<lambda_410d79af7f07d98d83a3f525b3859a53>@@AEAV<lambda_3e16ef9562a7dcce91392c22ab16ea36>@@V<lambda_38119f0e861e05405d8a144b9b982f0a>@@@?$__crt_seh_guarded_call@X@@QEAAX$$QEAV<lambda_410d79af7f07d98d83a3f525b3859a53>@@AEAV<lambda_3e16ef9562a7dcce91392c22ab16ea36>@@$$QEAV<lambda_38119f0e861e05405d8a144b9b982f0a>@@@Z@4HA 0000000180050698     libucrt:wsetlocale.obj
 0002:0000f698       $unwind$?fin$0@?0???$?RV<lambda_aa87e3671a710a21b5dc78c0bdf72e11>@@AEAV<lambda_92619d2358a28f41a33ba319515a20b9>@@V<lambda_6992ecaafeb10aed2b74cb1fae11a551>@@@?$__crt_seh_guarded_call@X@@QEAAX$$QEAV<lambda_aa87e3671a710a21b5dc78c0bdf72e11>@@AEAV<lambda_92619d2358a28f41a33ba319515a20b9>@@$$QEAV<lambda_6992ecaafeb10aed2b74cb1fae11a551>@@@Z@4HA 0000000180050698     libucrt:per_thread_data.obj
 0002:0000f698       $unwind$_IsNonwritableInCurrentImage$filt$0 0000000180050698     LIBCMT:pesect.obj
 0002:0000f698       $unwind$?fin$0@?0???$?RV<lambda_a37b2b86f63e897a80ea819b0eb08c01>@@AEAV<lambda_38ce7e780aa69e748d6df282ebc68efe>@@V<lambda_99fb1378e971ab6e7edea83e3a7a83a2>@@@?$__crt_seh_guarded_call@H@@QEAAH$$QEAV<lambda_a37b2b86f63e897a80ea819b0eb08c01>@@AEAV<lambda_38ce7e780aa69e748d6df282ebc68efe>@@$$QEAV<lambda_99fb1378e971ab6e7edea83e3a7a83a2>@@@Z@4HA 0000000180050698     libucrt:commit.obj
 0002:0000f698       $unwind$?fin$0@?0???$?RV<lambda_0ae27a3a962d80f24befdcbee591983d>@@AEAV<lambda_8d0ee55de4b1038c4002e0adecdf1839>@@V<lambda_dc504788e8f1664fe9b84e20bfb512f2>@@@?$__crt_seh_guarded_call@X@@QEAAX$$QEAV<lambda_0ae27a3a962d80f24befdcbee591983d>@@AEAV<lambda_8d0ee55de4b1038c4002e0adecdf1839>@@$$QEAV<lambda_dc504788e8f1664fe9b84e20bfb512f2>@@@Z@4HA 0000000180050698     libucrt:per_thread_data.obj
 0002:0000f698       $unwind$__acrt_update_thread_locale_data$fin$0 0000000180050698     libucrt:locale_refcounting.obj
 0002:0000f698       $unwind$?fin$0@?0???$?RV<lambda_2d41944a1d46af3157314b8a01080d33>@@AEAV<lambda_8f455de75cd7d7f24b4096f044d8b9e6>@@V<lambda_aa500f224e6afead328df44964fe2772>@@@?$__crt_seh_guarded_call@X@@QEAAX$$QEAV<lambda_2d41944a1d46af3157314b8a01080d33>@@AEAV<lambda_8f455de75cd7d7f24b4096f044d8b9e6>@@$$QEAV<lambda_aa500f224e6afead328df44964fe2772>@@@Z@4HA 0000000180050698     libucrt:per_thread_data.obj
 0002:0000f698       $unwind$fclose$fin$0       0000000180050698     libucrt:fclose.obj
 0002:0000f698       $unwind$__acrt_initialize_lowio$fin$0 0000000180050698     libucrt:ioinit.obj
 0002:0000f698       $unwind$?fin$0@?0???$?RV<lambda_450d765d439847d4c735a33c368b5fc0>@@AEAV<lambda_44731a7d0e6d81c3e6aa82d741081786>@@V<lambda_601a2a7da3b7a96e9554ac7215c4b07c>@@@?$__crt_seh_guarded_call@P6AXH@Z@@QEAAP6AXH@Z$$QEAV<lambda_450d765d439847d4c735a33c368b5fc0>@@AEAV<lambda_44731a7d0e6d81c3e6aa82d741081786>@@$$QEAV<lambda_601a2a7da3b7a96e9554ac7215c4b07c>@@@Z@4HA 0000000180050698     libucrt:signal.obj
 0002:0000f698       $unwind$?fin$0@?0???$?RV<lambda_886d6c58226a84441f68b9f2b8217b83>@@AEAV<lambda_ab61a845afdef5b7c387490eaf3616ee>@@V<lambda_f7f22ab5edc0698d5f6905b0d3f44752>@@@?$__crt_seh_guarded_call@X@@QEAAX$$QEAV<lambda_886d6c58226a84441f68b9f2b8217b83>@@AEAV<lambda_ab61a845afdef5b7c387490eaf3616ee>@@$$QEAV<lambda_f7f22ab5edc0698d5f6905b0d3f44752>@@@Z@4HA 0000000180050698     libucrt:fflush.obj
 0002:0000f698       $unwind$_fcloseall$fin$0   0000000180050698     libucrt:closeall.obj
 0002:0000f698       $unwind$?fin$0@?0??dllmain_crt_process_detach@@YAH_N@Z@4HA 0000000180050698     LIBCMT:dll_dllmain.obj
 0002:0000f698       $unwind$?fin$0@?0??update_thread_multibyte_data_internal@@YAPEAU__crt_multibyte_data@@QEAU__acrt_ptd@@QEAPEAU1@@Z@4HA 0000000180050698     libucrt:mbctype.obj
 0002:0000f698       $unwind$?fin$0@?0???$?RV<lambda_efdfa57d1f175319df784efa44bb7b81>@@AEAV<lambda_5f0a4c1567f8adc6734073e5d1e1b35c>@@V<lambda_2e8a7d3640ea6ccb4c2413664c2db6fd>@@@?$__crt_seh_guarded_call@X@@QEAAX$$QEAV<lambda_efdfa57d1f175319df784efa44bb7b81>@@AEAV<lambda_5f0a4c1567f8adc6734073e5d1e1b35c>@@$$QEAV<lambda_2e8a7d3640ea6ccb4c2413664c2db6fd>@@@Z@4HA 0000000180050698     libucrt:mbctype.obj
 0002:0000f698       $unwind$raise$fin$0        0000000180050698     libucrt:signal.obj
 0002:0000f698       $unwind$?fin$0@?0??dllmain_crt_process_attach@@YAHQEAUHINSTANCE__@@QEAX@Z@4HA 0000000180050698     LIBCMT:dll_dllmain.obj
 0002:0000f698       $unwind$?fin$0@?0???$?RV<lambda_751a882b2c74d4b022dec766aa51a29a>@@AEAV<lambda_628dfdc04ba53c8bfc02c9951375f3f5>@@V<lambda_f6c7be5f7998530c34de24c7437d6b54>@@@?$__crt_seh_guarded_call@H@@QEAAH$$QEAV<lambda_751a882b2c74d4b022dec766aa51a29a>@@AEAV<lambda_628dfdc04ba53c8bfc02c9951375f3f5>@@$$QEAV<lambda_f6c7be5f7998530c34de24c7437d6b54>@@@Z@4HA 0000000180050698     libucrt:close.obj
 0002:0000f698       $unwind$_query_new_handler$fin$0 0000000180050698     libucrt:new_handler.obj
 0002:0000f698       $unwind$?filt$0@?0???R<lambda_6e4b09c48022b2350581041d5f6b0c4c>@@QEBA@XZ@4HA 0000000180050698     libucrt:exit.obj
 0002:0000f698       $unwind$__acrt_lowio_ensure_fh_exists$fin$0 0000000180050698     libucrt:osfinfo.obj
 0002:0000f698       $unwind$?fin$0@?0???$?RV<lambda_d80eeec6fff315bfe5c115232f3240e3>@@AEAV<lambda_6e4b09c48022b2350581041d5f6b0c4c>@@V<lambda_2358e3775559c9db80273638284d5e45>@@@?$__crt_seh_guarded_call@X@@QEAAX$$QEAV<lambda_d80eeec6fff315bfe5c115232f3240e3>@@AEAV<lambda_6e4b09c48022b2350581041d5f6b0c4c>@@$$QEAV<lambda_2358e3775559c9db80273638284d5e45>@@@Z@4HA 0000000180050698     libucrt:exit.obj
 0002:0000f698       $unwind$?fin$0@?0???$?RV<lambda_f2e299630e499de9f9a165e60fcd3db5>@@AEAV<lambda_2ae9d31cdba2644fcbeaf08da7c24588>@@V<lambda_40d01ff24d0e7b3814fdbdcee8eab3c7>@@@?$__crt_seh_guarded_call@X@@QEAAX$$QEAV<lambda_f2e299630e499de9f9a165e60fcd3db5>@@AEAV<lambda_2ae9d31cdba2644fcbeaf08da7c24588>@@$$QEAV<lambda_40d01ff24d0e7b3814fdbdcee8eab3c7>@@@Z@4HA 0000000180050698     libucrt:per_thread_data.obj
 0002:0000f698       $unwind$_write$fin$0       0000000180050698     libucrt:write.obj
 0002:0000f698       $unwind$?fin$0@?0???$?RV<lambda_638799b9deba96c50f710eeac98168cd>@@AEAV<lambda_22ebabd17bc4fa466a2aca6d8deb888d>@@V<lambda_a6f7d7db0129f75315ebf26d50c089f1>@@@?$__crt_seh_guarded_call@H@@QEAAH$$QEAV<lambda_638799b9deba96c50f710eeac98168cd>@@AEAV<lambda_22ebabd17bc4fa466a2aca6d8deb888d>@@$$QEAV<lambda_a6f7d7db0129f75315ebf26d50c089f1>@@@Z@4HA 0000000180050698     libucrt:onexit.obj
 0002:0000f698       $unwind$_ctrlfp$filt$0     0000000180050698     libucrt:fpctrl.obj
 0002:0000f698       $unwind$?fin$0@?0???$?RV<lambda_7777bce6b2f8c936911f934f8298dc43>@@AEAV<lambda_f03950bc5685219e0bcd2087efbe011e>@@V<lambda_3883c3dff614d5e0c5f61bb1ac94921c>@@@?$__crt_seh_guarded_call@H@@QEAAH$$QEAV<lambda_7777bce6b2f8c936911f934f8298dc43>@@AEAV<lambda_f03950bc5685219e0bcd2087efbe011e>@@$$QEAV<lambda_3883c3dff614d5e0c5f61bb1ac94921c>@@@Z@4HA 0000000180050698     libucrt:onexit.obj
 0002:0000f6a0       $unwind$?getBasedType@UnDecorator@@CA?AVDName@@XZ 00000001800506a0     libvcruntime:undname.obj
 0002:0000f6a0       $unwind$?getSystemCP@@YAHH@Z 00000001800506a0     libucrt:mbctype.obj
 0002:0000f6a0       $unwind$?connectHalfEdges@QuickHullFace@local@@AEAAPEAU12@PEAUQuickHullHalfEdge@2@0@Z 00000001800506a0     QuickHullConvexHullLib.obj
 0002:0000f6a0       $unwind$?getHeight@HeightField@Gu@physx@@UEBAMMM@Z 00000001800506a0     Cooking.obj
 0002:0000f6a0       $unwind$__dcrt_lowio_ensure_console_output_initialized 00000001800506a0     libucrt:initcon.obj
 0002:0000f6a0       $unwind$?getStringEncoding@UnDecorator@@CA?AVDName@@PEADH@Z 00000001800506a0     libvcruntime:undname.obj
 0002:0000f6a0       $unwind$_isleadbyte_l      00000001800506a0     libucrt:_wctype.obj
 0002:0000f6a8       $unwind$?__mbsrtowcs_utf8@__crt_mbstring@@YA_KPEA_WPEAPEBD_KPEAU_Mbstatet@@@Z 00000001800506a8     libucrt:mbrtowc.obj
 0002:0000f6c0       $unwind$__acrt_fltout      00000001800506c0     libucrt:cfout.obj
 0002:0000f6e0       $unwind$?divide@__crt_strtox@@YA_KAEAUbig_integer@1@AEBU21@@Z 00000001800506e0     libucrt:cfout.obj
 0002:0000f6f8       $chain$0$?divide@__crt_strtox@@YA_KAEAUbig_integer@1@AEBU21@@Z 00000001800506f8     libucrt:cfout.obj
 0002:0000f70c       $chain$1$?divide@__crt_strtox@@YA_KAEAUbig_integer@1@AEBU21@@Z 000000018005070c     libucrt:cfout.obj
 0002:0000f71c       $unwind$__acrt_locale_free_monetary 000000018005071c     libucrt:initmon.obj
 0002:0000f724       $unwind$?destroy_fls@@YAXPEAX@Z 0000000180050724     libucrt:per_thread_data.obj
 0002:0000f724       $unwind$__acrt_locale_free_numeric 0000000180050724     libucrt:initnum.obj
 0002:0000f724       $unwind$_free_base         0000000180050724     libucrt:free_base.obj
 0002:0000f724       $unwind$__acrt_locale_free_lc_time_if_unreferenced 0000000180050724     libucrt:locale_refcounting.obj
 0002:0000f72c       $unwind$__acrt_locale_free_time 000000018005072c     libucrt:inittime.obj
 0002:0000f73c       $unwind$_putwch_nolock     000000018005073c     libucrt:putwch.obj
 0002:0000f744       $unwind$fclose             0000000180050744     libucrt:fclose.obj
 0002:0000f768       $unwind$?__mbrtoc32_utf8@__crt_mbstring@@YA_KPEA_UPEBD_KPEAU_Mbstatet@@@Z 0000000180050768     libucrt:mbrtoc32.obj
 0002:0000f788       $xdatasym                  0000000180050788     libucrt:log10.obj
 0002:0000f794       $unwind$__acrt_fenv_set_control 0000000180050794     libucrt:_fenvutils.obj
 0002:0000f7a4       $unwind$_commit            00000001800507a4     libucrt:commit.obj
 0002:0000f7a4       $unwind$_close             00000001800507a4     libucrt:close.obj
 0002:0000f7ac       $unwind$??$?RV<lambda_751a882b2c74d4b022dec766aa51a29a>@@AEAV<lambda_628dfdc04ba53c8bfc02c9951375f3f5>@@V<lambda_f6c7be5f7998530c34de24c7437d6b54>@@@?$__crt_seh_guarded_call@H@@QEAAH$$QEAV<lambda_751a882b2c74d4b022dec766aa51a29a>@@AEAV<lambda_628dfdc04ba53c8bfc02c9951375f3f5>@@$$QEAV<lambda_f6c7be5f7998530c34de24c7437d6b54>@@@Z 00000001800507ac     libucrt:close.obj
 0002:0000f7d0       $unwind$_log_special_common 00000001800507d0     libucrt:log_special.obj
 0002:0000f7dc       $unwind$_IsNonwritableInCurrentImage 00000001800507dc     LIBCMT:pesect.obj
 0002:0000f800       $xdatasym                  0000000180050800     LIBCMT:_amdsecgs_.obj
 0002:0000f804       $unwind$__report_securityfailure 0000000180050804     LIBCMT:gs_report.obj
 0002:0000f80c       $unwind$__report_gsfailure 000000018005080c     LIBCMT:gs_report.obj
 0002:0000f814       $unwind$capture_current_context 0000000180050814     LIBCMT:gs_report.obj
 0002:0000f820       $unwind$capture_previous_context 0000000180050820     LIBCMT:gs_report.obj
 0002:0000f82c       $unwind$strrchr            000000018005082c     libvcruntime:strrchr.obj
 0002:0000f838       $xdatasym                  0000000180050838     libvcruntime:memcmp.obj
 0002:00010500       .edata                     0000000180051500     PhysXCooking_64.exp
 0002:00010528       rgpv                       0000000180051528     PhysXCooking_64.exp
 0002:00010710       rgszName                   0000000180051710     PhysXCooking_64.exp
 0002:000108f8       rgwOrd                     00000001800518f8     PhysXCooking_64.exp
 0002:000109ec       szName                     00000001800519ec     PhysXCooking_64.exp
 0002:00010a00       $N00001                    0000000180051a00     PhysXCooking_64.exp
 0002:00010a2f       $N00002                    0000000180051a2f     PhysXCooking_64.exp
 0002:00010a56       $N00003                    0000000180051a56     PhysXCooking_64.exp
 0002:00010a91       $N00004                    0000000180051a91     PhysXCooking_64.exp
 0002:00010ab8       $N00005                    0000000180051ab8     PhysXCooking_64.exp
 0002:00010ae4       $N00006                    0000000180051ae4     PhysXCooking_64.exp
 0002:00010b05       $N00007                    0000000180051b05     PhysXCooking_64.exp
 0002:00010b3a       $N00008                    0000000180051b3a     PhysXCooking_64.exp
 0002:00010b53       $N00009                    0000000180051b53     PhysXCooking_64.exp
 0002:00010b73       $N00010                    0000000180051b73     PhysXCooking_64.exp
 0002:00010b9c       $N00011                    0000000180051b9c     PhysXCooking_64.exp
 0002:00010bc3       $N00012                    0000000180051bc3     PhysXCooking_64.exp
 0002:00010bf2       $N00013                    0000000180051bf2     PhysXCooking_64.exp
 0002:00010c1f       $N00014                    0000000180051c1f     PhysXCooking_64.exp
 0002:00010c50       $N00015                    0000000180051c50     PhysXCooking_64.exp
 0002:00010c75       $N00016                    0000000180051c75     PhysXCooking_64.exp
 0002:00010ca0       $N00017                    0000000180051ca0     PhysXCooking_64.exp
 0002:00010cc6       $N00018                    0000000180051cc6     PhysXCooking_64.exp
 0002:00010ce5       $N00019                    0000000180051ce5     PhysXCooking_64.exp
 0002:00010d1b       $N00020                    0000000180051d1b     PhysXCooking_64.exp
 0002:00010d45       $N00021                    0000000180051d45     PhysXCooking_64.exp
 0002:00010d6c       $N00022                    0000000180051d6c     PhysXCooking_64.exp
 0002:00010d95       $N00023                    0000000180051d95     PhysXCooking_64.exp
 0002:00010dae       $N00024                    0000000180051dae     PhysXCooking_64.exp
 0002:00010dd3       $N00025                    0000000180051dd3     PhysXCooking_64.exp
 0002:00010df2       $N00026                    0000000180051df2     PhysXCooking_64.exp
 0002:00010e11       $N00027                    0000000180051e11     PhysXCooking_64.exp
 0002:00010e31       $N00028                    0000000180051e31     PhysXCooking_64.exp
 0002:00010e67       $N00029                    0000000180051e67     PhysXCooking_64.exp
 0002:00010e9f       $N00030                    0000000180051e9f     PhysXCooking_64.exp
 0002:00010ed3       $N00031                    0000000180051ed3     PhysXCooking_64.exp
 0002:00010f05       $N00032                    0000000180051f05     PhysXCooking_64.exp
 0002:00010f32       $N00033                    0000000180051f32     PhysXCooking_64.exp
 0002:00010f5a       $N00034                    0000000180051f5a     PhysXCooking_64.exp
 0002:00010f8b       $N00035                    0000000180051f8b     PhysXCooking_64.exp
 0002:00010fba       $N00036                    0000000180051fba     PhysXCooking_64.exp
 0002:00010fea       $N00037                    0000000180051fea     PhysXCooking_64.exp
 0002:00011018       $N00038                    0000000180052018     PhysXCooking_64.exp
 0002:00011049       $N00039                    0000000180052049     PhysXCooking_64.exp
 0002:0001107f       $N00040                    000000018005207f     PhysXCooking_64.exp
 0002:000110b3       $N00041                    00000001800520b3     PhysXCooking_64.exp
 0002:000110e5       $N00042                    00000001800520e5     PhysXCooking_64.exp
 0002:00011117       $N00043                    0000000180052117     PhysXCooking_64.exp
 0002:00011143       $N00044                    0000000180052143     PhysXCooking_64.exp
 0002:0001115f       $N00045                    000000018005215f     PhysXCooking_64.exp
 0002:00011189       $N00046                    0000000180052189     PhysXCooking_64.exp
 0002:000111ad       $N00047                    00000001800521ad     PhysXCooking_64.exp
 0002:000111df       $N00048                    00000001800521df     PhysXCooking_64.exp
 0002:00011206       $N00049                    0000000180052206     PhysXCooking_64.exp
 0002:00011234       $N00050                    0000000180052234     PhysXCooking_64.exp
 0002:0001125f       $N00051                    000000018005225f     PhysXCooking_64.exp
 0002:0001128c       $N00052                    000000018005228c     PhysXCooking_64.exp
 0002:000112b5       $N00053                    00000001800522b5     PhysXCooking_64.exp
 0002:000112e4       $N00054                    00000001800522e4     PhysXCooking_64.exp
 0002:0001130d       $N00055                    000000018005230d     PhysXCooking_64.exp
 0002:00011336       $N00056                    0000000180052336     PhysXCooking_64.exp
 0002:00011364       $N00057                    0000000180052364     PhysXCooking_64.exp
 0002:0001138c       $N00058                    000000018005238c     PhysXCooking_64.exp
 0002:000113c7       $N00059                    00000001800523c7     PhysXCooking_64.exp
 0002:000113f1       $N00060                    00000001800523f1     PhysXCooking_64.exp
 0002:00011425       $N00061                    0000000180052425     PhysXCooking_64.exp
 0002:0001145b       $N00062                    000000018005245b     PhysXCooking_64.exp
 0002:00011497       $N00063                    0000000180052497     PhysXCooking_64.exp
 0002:000114df       $N00064                    00000001800524df     PhysXCooking_64.exp
 0002:0001152f       $N00065                    000000018005252f     PhysXCooking_64.exp
 0002:00011563       $N00066                    0000000180052563     PhysXCooking_64.exp
 0002:00011598       $N00067                    0000000180052598     PhysXCooking_64.exp
 0002:000115ce       $N00068                    00000001800525ce     PhysXCooking_64.exp
 0002:000115f5       $N00069                    00000001800525f5     PhysXCooking_64.exp
 0002:0001163d       $N00070                    000000018005263d     PhysXCooking_64.exp
 0002:00011683       $N00071                    0000000180052683     PhysXCooking_64.exp
 0002:000116db       $N00072                    00000001800526db     PhysXCooking_64.exp
 0002:00011722       $N00073                    0000000180052722     PhysXCooking_64.exp
 0002:0001174d       $N00074                    000000018005274d     PhysXCooking_64.exp
 0002:0001177d       $N00075                    000000018005277d     PhysXCooking_64.exp
 0002:000117cd       $N00076                    00000001800527cd     PhysXCooking_64.exp
 0002:0001187c       $N00077                    000000018005287c     PhysXCooking_64.exp
 0002:000118da       $N00078                    00000001800528da     PhysXCooking_64.exp
 0002:00011906       $N00079                    0000000180052906     PhysXCooking_64.exp
 0002:00011932       $N00080                    0000000180052932     PhysXCooking_64.exp
 0002:00011967       $N00081                    0000000180052967     PhysXCooking_64.exp
 0002:00011990       $N00082                    0000000180052990     PhysXCooking_64.exp
 0002:000119cc       $N00083                    00000001800529cc     PhysXCooking_64.exp
 0002:000119f8       $N00084                    00000001800529f8     PhysXCooking_64.exp
 0002:00011a2b       $N00085                    0000000180052a2b     PhysXCooking_64.exp
 0002:00011a78       $N00086                    0000000180052a78     PhysXCooking_64.exp
 0002:00011aab       $N00087                    0000000180052aab     PhysXCooking_64.exp
 0002:00011ae5       $N00088                    0000000180052ae5     PhysXCooking_64.exp
 0002:00011b1f       $N00089                    0000000180052b1f     PhysXCooking_64.exp
 0002:00011b5b       $N00090                    0000000180052b5b     PhysXCooking_64.exp
 0002:00011b9f       $N00091                    0000000180052b9f     PhysXCooking_64.exp
 0002:00011bce       $N00092                    0000000180052bce     PhysXCooking_64.exp
 0002:00011c48       $N00093                    0000000180052c48     PhysXCooking_64.exp
 0002:00011ca5       $N00094                    0000000180052ca5     PhysXCooking_64.exp
 0002:00011cd1       $N00095                    0000000180052cd1     PhysXCooking_64.exp
 0002:00011d05       $N00096                    0000000180052d05     PhysXCooking_64.exp
 0002:00011d3e       $N00097                    0000000180052d3e     PhysXCooking_64.exp
 0002:00011d7b       $N00098                    0000000180052d7b     PhysXCooking_64.exp
 0002:00011db1       $N00099                    0000000180052db1     PhysXCooking_64.exp
 0002:00011dde       $N00100                    0000000180052dde     PhysXCooking_64.exp
 0002:00011e0b       $N00101                    0000000180052e0b     PhysXCooking_64.exp
 0002:00011e36       $N00102                    0000000180052e36     PhysXCooking_64.exp
 0002:00011e62       $N00103                    0000000180052e62     PhysXCooking_64.exp
 0002:00011e8f       $N00104                    0000000180052e8f     PhysXCooking_64.exp
 0002:00011eaf       $N00105                    0000000180052eaf     PhysXCooking_64.exp
 0002:00011eeb       $N00106                    0000000180052eeb     PhysXCooking_64.exp
 0002:00011f1c       $N00107                    0000000180052f1c     PhysXCooking_64.exp
 0002:00011f4e       $N00108                    0000000180052f4e     PhysXCooking_64.exp
 0002:00011f90       $N00109                    0000000180052f90     PhysXCooking_64.exp
 0002:00011fbd       $N00110                    0000000180052fbd     PhysXCooking_64.exp
 0002:00011fe1       $N00111                    0000000180052fe1     PhysXCooking_64.exp
 0002:00012011       $N00112                    0000000180053011     PhysXCooking_64.exp
 0002:00012044       $N00113                    0000000180053044     PhysXCooking_64.exp
 0002:00012069       $N00114                    0000000180053069     PhysXCooking_64.exp
 0002:00012097       $N00115                    0000000180053097     PhysXCooking_64.exp
 0002:000120bf       $N00116                    00000001800530bf     PhysXCooking_64.exp
 0002:000120df       $N00117                    00000001800530df     PhysXCooking_64.exp
 0002:00012124       $N00118                    0000000180053124     PhysXCooking_64.exp
 0002:00012161       $N00119                    0000000180053161     PhysXCooking_64.exp
 0002:0001219e       $N00120                    000000018005319e     PhysXCooking_64.exp
 0002:000121d1       $N00121                    00000001800531d1     PhysXCooking_64.exp
 0002:000121e1       $N00122                    00000001800531e1     PhysXCooking_64.exp
 0002:00012480       .idata$6                   0000000180053480     kernel32:KERNEL32.dll
 0003:00000000       ?MAXDOT_MINANG@local@@3MB  0000000180054000     ConvexHullUtils.obj
 0003:00000004       ?MAXDOT_MINANG@local@@3MB  0000000180054004     QuickHullConvexHullLib.obj
 0003:00000050       ?__vcrt_flsindex@@3KA      0000000180054050     libvcruntime:per_thread_data.obj
 0003:00000064       ?dazSupported@?1??_ctrlfp@@9@9 0000000180054064     libucrt:fpctrl.obj
 0003:00000070       ?__acrt_flsindex@@3KA      0000000180054070     libucrt:per_thread_data.obj
 0003:00000074       ?errno_no_memory@@3HA      0000000180054074     libucrt:errno.obj
 0003:00000078       ?doserrno_no_memory@@3KA   0000000180054078     libucrt:errno.obj
 0003:00000080       _mbctypes                  0000000180054080     libucrt:mbctype.obj
 0003:00000190       _mbcasemaps                0000000180054190     libucrt:mbctype.obj
 0003:00000290       ?__rgctypeflag@@3PADA      0000000180054290     libucrt:mbctype.obj
 0003:000002a0       ?__rgcode_page_info@@3PAUcode_page_info@@A 00000001800542a0     libucrt:mbctype.obj
 0003:000009f0       ?__dcrt_lowio_console_output_handle@@3PEAXEA 00000001800549f0     libucrt:initcon.obj
 0003:00001210       ?maxV3Error@_VecMathTests@aos@shdfnd@physx@@3T__m128@@B 0000000180055210     Cooking.obj
 0003:00001220       ?minFError@_VecMathTests@aos@shdfnd@physx@@3T__m128@@B 0000000180055220     Cooking.obj
 0003:00001230       ?maxV4Error@_VecMathTests@aos@shdfnd@physx@@3T__m128@@B 0000000180055230     Cooking.obj
 0003:00001240       ?minV4Error@_VecMathTests@aos@shdfnd@physx@@3T__m128@@B 0000000180055240     Cooking.obj
 0003:00001250       ?minV3Error@_VecMathTests@aos@shdfnd@physx@@3T__m128@@B 0000000180055250     Cooking.obj
 0003:00001260       ?maxFError@_VecMathTests@aos@shdfnd@physx@@3T__m128@@B 0000000180055260     Cooking.obj
 0003:00001270       ?maxV3Error@_VecMathTests@aos@shdfnd@physx@@3T__m128@@B 0000000180055270     BVHStructureBuilder.obj
 0003:00001280       ?minFError@_VecMathTests@aos@shdfnd@physx@@3T__m128@@B 0000000180055280     BVHStructureBuilder.obj
 0003:00001290       ?maxV4Error@_VecMathTests@aos@shdfnd@physx@@3T__m128@@B 0000000180055290     BVHStructureBuilder.obj
 0003:000012a0       ?minV4Error@_VecMathTests@aos@shdfnd@physx@@3T__m128@@B 00000001800552a0     BVHStructureBuilder.obj
 0003:000012b0       ?minV3Error@_VecMathTests@aos@shdfnd@physx@@3T__m128@@B 00000001800552b0     BVHStructureBuilder.obj
 0003:000012c0       ?maxFError@_VecMathTests@aos@shdfnd@physx@@3T__m128@@B 00000001800552c0     BVHStructureBuilder.obj
 0003:000012d0       ?maxV3Error@_VecMathTests@aos@shdfnd@physx@@3T__m128@@B 00000001800552d0     RTreeCooking.obj
 0003:000012e0       ?minFError@_VecMathTests@aos@shdfnd@physx@@3T__m128@@B 00000001800552e0     RTreeCooking.obj
 0003:000012f0       ?maxV4Error@_VecMathTests@aos@shdfnd@physx@@3T__m128@@B 00000001800552f0     RTreeCooking.obj
 0003:00001300       ?minV4Error@_VecMathTests@aos@shdfnd@physx@@3T__m128@@B 0000000180055300     RTreeCooking.obj
 0003:00001310       ?minV3Error@_VecMathTests@aos@shdfnd@physx@@3T__m128@@B 0000000180055310     RTreeCooking.obj
 0003:00001320       ?maxFError@_VecMathTests@aos@shdfnd@physx@@3T__m128@@B 0000000180055320     RTreeCooking.obj
 0003:00001330       ?maxV3Error@_VecMathTests@aos@shdfnd@physx@@3T__m128@@B 0000000180055330     MeshBuilder.obj
 0003:00001340       ?minFError@_VecMathTests@aos@shdfnd@physx@@3T__m128@@B 0000000180055340     MeshBuilder.obj
 0003:00001350       ?maxV4Error@_VecMathTests@aos@shdfnd@physx@@3T__m128@@B 0000000180055350     MeshBuilder.obj
 0003:00001360       ?minV4Error@_VecMathTests@aos@shdfnd@physx@@3T__m128@@B 0000000180055360     MeshBuilder.obj
 0003:00001370       ?minV3Error@_VecMathTests@aos@shdfnd@physx@@3T__m128@@B 0000000180055370     MeshBuilder.obj
 0003:00001380       ?maxFError@_VecMathTests@aos@shdfnd@physx@@3T__m128@@B 0000000180055380     MeshBuilder.obj
 0003:00001390       ?maxV3Error@_VecMathTests@aos@shdfnd@physx@@3T__m128@@B 0000000180055390     TriangleMeshBuilder.obj
 0003:000013a0       ?minFError@_VecMathTests@aos@shdfnd@physx@@3T__m128@@B 00000001800553a0     TriangleMeshBuilder.obj
 0003:000013b0       ?maxV4Error@_VecMathTests@aos@shdfnd@physx@@3T__m128@@B 00000001800553b0     TriangleMeshBuilder.obj
 0003:000013c0       ?minV4Error@_VecMathTests@aos@shdfnd@physx@@3T__m128@@B 00000001800553c0     TriangleMeshBuilder.obj
 0003:000013d0       ?minV3Error@_VecMathTests@aos@shdfnd@physx@@3T__m128@@B 00000001800553d0     TriangleMeshBuilder.obj
 0003:000013e0       ?maxFError@_VecMathTests@aos@shdfnd@physx@@3T__m128@@B 00000001800553e0     TriangleMeshBuilder.obj
 0003:000013f0       ?maxV3Error@_VecMathTests@aos@shdfnd@physx@@3T__m128@@B 00000001800553f0     BigConvexDataBuilder.obj
 0003:00001400       ?minFError@_VecMathTests@aos@shdfnd@physx@@3T__m128@@B 0000000180055400     BigConvexDataBuilder.obj
 0003:00001410       ?maxV4Error@_VecMathTests@aos@shdfnd@physx@@3T__m128@@B 0000000180055410     BigConvexDataBuilder.obj
 0003:00001420       ?minV4Error@_VecMathTests@aos@shdfnd@physx@@3T__m128@@B 0000000180055420     BigConvexDataBuilder.obj
 0003:00001430       ?minV3Error@_VecMathTests@aos@shdfnd@physx@@3T__m128@@B 0000000180055430     BigConvexDataBuilder.obj
 0003:00001440       ?maxFError@_VecMathTests@aos@shdfnd@physx@@3T__m128@@B 0000000180055440     BigConvexDataBuilder.obj
 0003:00001450       ?maxV3Error@_VecMathTests@aos@shdfnd@physx@@3T__m128@@B 0000000180055450     ConvexHullBuilder.obj
 0003:00001460       ?minFError@_VecMathTests@aos@shdfnd@physx@@3T__m128@@B 0000000180055460     ConvexHullBuilder.obj
 0003:00001470       ?maxV4Error@_VecMathTests@aos@shdfnd@physx@@3T__m128@@B 0000000180055470     ConvexHullBuilder.obj
 0003:00001480       ?minV4Error@_VecMathTests@aos@shdfnd@physx@@3T__m128@@B 0000000180055480     ConvexHullBuilder.obj
 0003:00001490       ?minV3Error@_VecMathTests@aos@shdfnd@physx@@3T__m128@@B 0000000180055490     ConvexHullBuilder.obj
 0003:000014a0       ?maxFError@_VecMathTests@aos@shdfnd@physx@@3T__m128@@B 00000001800554a0     ConvexHullBuilder.obj
 0003:000014b0       ?maxV3Error@_VecMathTests@aos@shdfnd@physx@@3T__m128@@B 00000001800554b0     ConvexHullUtils.obj
 0003:000014c0       ?minFError@_VecMathTests@aos@shdfnd@physx@@3T__m128@@B 00000001800554c0     ConvexHullUtils.obj
 0003:000014d0       ?maxV4Error@_VecMathTests@aos@shdfnd@physx@@3T__m128@@B 00000001800554d0     ConvexHullUtils.obj
 0003:000014e0       ?minV4Error@_VecMathTests@aos@shdfnd@physx@@3T__m128@@B 00000001800554e0     ConvexHullUtils.obj
 0003:000014f0       ?minV3Error@_VecMathTests@aos@shdfnd@physx@@3T__m128@@B 00000001800554f0     ConvexHullUtils.obj
 0003:00001500       ?maxFError@_VecMathTests@aos@shdfnd@physx@@3T__m128@@B 0000000180055500     ConvexHullUtils.obj
 0003:00001510       ?maxV3Error@_VecMathTests@aos@shdfnd@physx@@3T__m128@@B 0000000180055510     ConvexMeshBuilder.obj
 0003:00001520       ?minFError@_VecMathTests@aos@shdfnd@physx@@3T__m128@@B 0000000180055520     ConvexMeshBuilder.obj
 0003:00001530       ?maxV4Error@_VecMathTests@aos@shdfnd@physx@@3T__m128@@B 0000000180055530     ConvexMeshBuilder.obj
 0003:00001540       ?minV4Error@_VecMathTests@aos@shdfnd@physx@@3T__m128@@B 0000000180055540     ConvexMeshBuilder.obj
 0003:00001550       ?minV3Error@_VecMathTests@aos@shdfnd@physx@@3T__m128@@B 0000000180055550     ConvexMeshBuilder.obj
 0003:00001560       ?maxFError@_VecMathTests@aos@shdfnd@physx@@3T__m128@@B 0000000180055560     ConvexMeshBuilder.obj
 0003:00001570       ?maxV3Error@_VecMathTests@aos@shdfnd@physx@@3T__m128@@B 0000000180055570     VolumeIntegration.obj
 0003:00001580       ?minFError@_VecMathTests@aos@shdfnd@physx@@3T__m128@@B 0000000180055580     VolumeIntegration.obj
 0003:00001590       ?maxV4Error@_VecMathTests@aos@shdfnd@physx@@3T__m128@@B 0000000180055590     VolumeIntegration.obj
 0003:000015a0       ?minV4Error@_VecMathTests@aos@shdfnd@physx@@3T__m128@@B 00000001800555a0     VolumeIntegration.obj
 0003:000015b0       ?minV3Error@_VecMathTests@aos@shdfnd@physx@@3T__m128@@B 00000001800555b0     VolumeIntegration.obj
 0003:000015c0       ?maxFError@_VecMathTests@aos@shdfnd@physx@@3T__m128@@B 00000001800555c0     VolumeIntegration.obj
 0003:000015d0       ?gCookingDelayLoadHook@@3PEBVPxDelayLoadHook@physx@@EB 00000001800555d0     WindowsCookingDelayLoadHook.obj
 0003:00001630       ?__proc_attached@@3HA      0000000180055630     LIBCMT:dll_dllmain.obj
 0003:00001648       ?module_local_atexit_table@@3U_onexit_table_t@@A 0000000180055648     LIBCMT:utility.obj
 0003:00001660       ?module_local_at_quick_exit_table@@3U_onexit_table_t@@A 0000000180055660     LIBCMT:utility.obj
 0003:00001678       ?is_initialized_as_dll@@3_NA 0000000180055678     LIBCMT:utility.obj
 0003:000016e8       ?heap@@3V_HeapManager@@A   00000001800556e8     libvcruntime:undname.obj
 0003:00001760       ?__vcrt_startup_thread_ptd@@3U__vcrt_ptd@@A 0000000180055760     libvcruntime:per_thread_data.obj
 0003:000017d8       __vcrt_lock_table          00000001800557d8     libvcruntime:locks.obj
 0003:00001800       __vcrt_locks_initialized   0000000180055800     libvcruntime:locks.obj
 0003:00001810       ?module_handles@@3PAPEAUHINSTANCE__@@A 0000000180055810     libvcruntime:winapi_downlevel.obj
 0003:00001830       ?encoded_function_pointers@@3PAPEAXA 0000000180055830     libvcruntime:winapi_downlevel.obj
 0003:00001878       ?c_termination_complete@@3JA 0000000180055878     libucrt:exit.obj
 0003:00001880       ?thread_local_exit_callback_func@@3P6AXPEAXK0@ZEA 0000000180055880     libucrt:exit.obj
 0003:00001890       ?program_name@?1???$common_configure_argv@D@@YAHW4_crt_argv_mode@@@Z@4PADA 0000000180055890     libucrt:argv_parsing.obj
 0003:000019f0       ?__acrt_lock_table@@3PAU_RTL_CRITICAL_SECTION@@A 00000001800559f0     libucrt:locks.obj
 0003:00001c20       ?__acrt_locks_initialized@@3IA 0000000180055c20     libucrt:locks.obj
 0003:00001c28       ?__acrt_invalid_parameter_handler@@3V?$dual_state_global@P6AXPEB_W00I_K@Z@__crt_state_management@@A 0000000180055c28     libucrt:invalid_parameter.obj
 0003:00001c48       ?fSystemSet@@3HA           0000000180055c48     libucrt:mbctype.obj
 0003:00001c4c       ?initialized@?1??__acrt_initialize_multibyte@@9@4_NA 0000000180055c4c     libucrt:mbctype.obj
 0003:00001c80       ?module_handles@@3PAPEAUHINSTANCE__@@A 0000000180055c80     libucrt:winapi_thunks.obj
 0003:00001d20       ?encoded_function_pointers@@3PAPEAXA 0000000180055d20     libucrt:winapi_thunks.obj
 0003:00002248       ?__acrt_new_handler@@3V?$dual_state_global@P6AH_K@Z@__crt_state_management@@A 0000000180056248     libucrt:new_handler.obj
 0003:00002250       ?ctrlc_action@@3V?$dual_state_global@P6AXH@Z@__crt_state_management@@A 0000000180056250     libucrt:signal.obj
 0003:00002258       ?ctrlbreak_action@@3V?$dual_state_global@P6AXH@Z@__crt_state_management@@A 0000000180056258     libucrt:signal.obj
 0003:00002260       ?abort_action@@3V?$dual_state_global@P6AXH@Z@__crt_state_management@@A 0000000180056260     libucrt:signal.obj
 0003:00002268       ?term_action@@3V?$dual_state_global@P6AXH@Z@__crt_state_management@@A 0000000180056268     libucrt:signal.obj
 0003:00002270       ?user_matherr@@3V?$dual_state_global@P6AHPEAU_exception@@@Z@__crt_state_management@@A 0000000180056270     libucrt:matherr.obj
 0003:000022a0       ?__acrt_global_new_mode@@3V?$dual_state_global@J@__crt_state_management@@A 00000001800562a0     libucrt:new_mode.obj
 0003:000022a8       ?internal_state@?1??_mbtowc_l@@9@4U_Mbstatet@@A 00000001800562a8     libucrt:mbtowc.obj
 0003:000022b0       ?enable_percent_n@@3_KA    00000001800562b0     libucrt:printf_count_output.obj
 0003:000022c4       ?__acrt_app_type@@3W4_crt_app_type@@A 00000001800562c4     libucrt:report_runtime_error.obj
 0003:000022c8       ?internal_pst@?1??__mbrtoc32_utf8@__crt_mbstring@@YA_KPEA_UPEBD_KPEAU_Mbstatet@@@Z@4U3@A 00000001800562c8     libucrt:mbrtoc32.obj
 0003:000022d0       GS_ExceptionRecord         00000001800562d0     LIBCMT:gs_report.obj
 0003:00002370       GS_ContextRecord           0000000180056370     LIBCMT:gs_report.obj
 0004:00000000       $pdata$??1Adjacencies@physx@@QEAA@XZ 0000000180057000     Adjacencies.obj
 0004:0000000c       $pdata$0$??1Adjacencies@physx@@QEAA@XZ 000000018005700c     Adjacencies.obj
 0004:00000018       $pdata$2$??1Adjacencies@physx@@QEAA@XZ 0000000180057018     Adjacencies.obj
 0004:00000024       $pdata$3$??1Adjacencies@physx@@QEAA@XZ 0000000180057024     Adjacencies.obj
 0004:00000030       $pdata$??_EPxFoundation@physx@@MEAAPEAXI@Z 0000000180057030     Adjacencies.obj
 0004:0000003c       $pdata$0$??_EPxFoundation@physx@@MEAAPEAXI@Z 000000018005703c     Adjacencies.obj
 0004:00000048       $pdata$1$??_EPxFoundation@physx@@MEAAPEAXI@Z 0000000180057048     Adjacencies.obj
 0004:00000054       $pdata$?AddTriangle@@YAXIIIIPEAVAdjTriangle@physx@@AEAIPEAVAdjEdge@@@Z 0000000180057054     Adjacencies.obj
 0004:00000060       $pdata$?CreateDatabase@@YA_NPEAVAdjTriangle@physx@@IPEBVAdjEdge@@AEBUADJACENCIESCREATE@2@@Z 0000000180057060     Adjacencies.obj
 0004:0000006c       $pdata$?Init@AdjacenciesBuilder@physx@@QEAA_NAEBUADJACENCIESCREATE@2@@Z 000000018005706c     Adjacencies.obj
 0004:00000078       $pdata$1$?Init@AdjacenciesBuilder@physx@@QEAA_NAEBUADJACENCIESCREATE@2@@Z 0000000180057078     Adjacencies.obj
 0004:00000084       $pdata$2$?Init@AdjacenciesBuilder@physx@@QEAA_NAEBUADJACENCIESCREATE@2@@Z 0000000180057084     Adjacencies.obj
 0004:00000090       $pdata$5$?Init@AdjacenciesBuilder@physx@@QEAA_NAEBUADJACENCIESCREATE@2@@Z 0000000180057090     Adjacencies.obj
 0004:0000009c       $pdata$6$?Init@AdjacenciesBuilder@physx@@QEAA_NAEBUADJACENCIESCREATE@2@@Z 000000018005709c     Adjacencies.obj
 0004:000000a8       $pdata$7$?Init@AdjacenciesBuilder@physx@@QEAA_NAEBUADJACENCIESCREATE@2@@Z 00000001800570a8     Adjacencies.obj
 0004:000000b4       $pdata$8$?Init@AdjacenciesBuilder@physx@@QEAA_NAEBUADJACENCIESCREATE@2@@Z 00000001800570b4     Adjacencies.obj
 0004:000000c0       $pdata$?UpdateLink@@YA_NIIIIPEAVAdjTriangle@physx@@AEBUADJACENCIESCREATE@2@@Z 00000001800570c0     Adjacencies.obj
 0004:000000cc       $pdata$3$?UpdateLink@@YA_NIIIIPEAVAdjTriangle@physx@@AEBUADJACENCIESCREATE@2@@Z 00000001800570cc     Adjacencies.obj
 0004:000000d8       $pdata$5$?UpdateLink@@YA_NIIIIPEAVAdjTriangle@physx@@AEBUADJACENCIESCREATE@2@@Z 00000001800570d8     Adjacencies.obj
 0004:000000e4       $pdata$6$?UpdateLink@@YA_NIIIIPEAVAdjTriangle@physx@@AEBUADJACENCIESCREATE@2@@Z 00000001800570e4     Adjacencies.obj
 0004:000000f0       $pdata$7$?UpdateLink@@YA_NIIIIPEAVAdjTriangle@physx@@AEBUADJACENCIESCREATE@2@@Z 00000001800570f0     Adjacencies.obj
 0004:000000fc       $pdata$8$?UpdateLink@@YA_NIIIIPEAVAdjTriangle@physx@@AEBUADJACENCIESCREATE@2@@Z 00000001800570fc     Adjacencies.obj
 0004:00000108       $pdata$??_GCooking@physx@@UEAAPEAXI@Z 0000000180057108     Cooking.obj
 0004:00000114       $pdata$??_GPxBase@physx@@MEAAPEAXI@Z 0000000180057114     Cooking.obj
 0004:00000120       $pdata$??_GPxCooking@physx@@MEAAPEAXI@Z 0000000180057120     Cooking.obj
 0004:0000012c       $pdata$?allocate@?$ReflectionAllocator@UPxDebugLine@physx@@@shdfnd@physx@@QEAAPEAX_KPEBDH@Z 000000018005712c     Cooking.obj
 0004:00000138       $pdata$0$?allocate@?$ReflectionAllocator@UPxDebugLine@physx@@@shdfnd@physx@@QEAAPEAX_KPEBDH@Z 0000000180057138     Cooking.obj
 0004:00000144       $pdata$1$?allocate@?$ReflectionAllocator@UPxDebugLine@physx@@@shdfnd@physx@@QEAAPEAX_KPEBDH@Z 0000000180057144     Cooking.obj
 0004:00000150       $pdata$?computeHullPolygons@Cooking@physx@@UEBA_NAEBVPxSimpleTriangleMesh@2@AEAVPxAllocatorCallback@2@AEAIAEAPEAVPxVec3@2@2AEAPEAI2AEAPEAUPxHullPolygon@2@@Z 0000000180057150     Cooking.obj
 0004:0000015c       $pdata$?cookBVHStructure@Cooking@physx@@UEBA_NAEBVPxBVHStructureDesc@2@AEAVPxOutputStream@2@@Z 000000018005715c     Cooking.obj
 0004:00000168       $pdata$?cookConvexMesh@Cooking@physx@@UEBA_NAEBVPxConvexMeshDesc@2@AEAVPxOutputStream@2@PEAW4Enum@PxConvexMeshCookingResult@2@@Z 0000000180057168     Cooking.obj
 0004:00000174       $pdata$?cookConvexMeshInternal@Cooking@physx@@AEBA_NAEBVPxConvexMeshDesc@2@AEAVConvexMeshBuilder@2@PEAVConvexHullLib@2@PEAW4Enum@PxConvexMeshCookingResult@2@@Z 0000000180057174     Cooking.obj
 0004:00000180       $pdata$?cookHeightField@Cooking@physx@@UEBA_NAEBVPxHeightFieldDesc@2@AEAVPxOutputStream@2@@Z 0000000180057180     Cooking.obj
 0004:0000018c       $pdata$?cookTriangleMesh@Cooking@physx@@UEBA_NAEBVPxTriangleMeshDesc@2@AEAVPxOutputStream@2@PEAW4Enum@PxTriangleMeshCookingResult@2@@Z 000000018005718c     Cooking.obj
 0004:00000198       $pdata$?copy@?$Array@UPxDebugLine@physx@@V?$ReflectionAllocator@UPxDebugLine@physx@@@shdfnd@2@@shdfnd@physx@@KAXPEAUPxDebugLine@3@0PEBU43@@Z 0000000180057198     Cooking.obj
 0004:000001a4       $pdata$0$?copy@?$Array@UPxDebugLine@physx@@V?$ReflectionAllocator@UPxDebugLine@physx@@@shdfnd@2@@shdfnd@physx@@KAXPEAUPxDebugLine@3@0PEBU43@@Z 00000001800571a4     Cooking.obj
 0004:000001b0       $pdata$1$?copy@?$Array@UPxDebugLine@physx@@V?$ReflectionAllocator@UPxDebugLine@physx@@@shdfnd@2@@shdfnd@physx@@KAXPEAUPxDebugLine@3@0PEBU43@@Z 00000001800571b0     Cooking.obj
 0004:000001bc       $pdata$?createBVHStructure@Cooking@physx@@UEBAPEAVPxBVHStructure@2@AEBVPxBVHStructureDesc@2@AEAVPxPhysicsInsertionCallback@2@@Z 00000001800571bc     Cooking.obj
 0004:000001c8       $pdata$?createConvexMesh@Cooking@physx@@UEBAPEAVPxConvexMesh@2@AEBVPxConvexMeshDesc@2@AEAVPxPhysicsInsertionCallback@2@PEAW4Enum@PxConvexMeshCookingResult@2@@Z 00000001800571c8     Cooking.obj
 0004:000001d4       $pdata$?createHeightField@Cooking@physx@@UEBAPEAVPxHeightField@2@AEBVPxHeightFieldDesc@2@AEAVPxPhysicsInsertionCallback@2@@Z 00000001800571d4     Cooking.obj
 0004:000001e0       $pdata$?createTriangleMesh@Cooking@physx@@UEBAPEAVPxTriangleMesh@2@AEBVPxTriangleMeshDesc@2@AEAVPxPhysicsInsertionCallback@2@PEAW4Enum@PxTriangleMeshCookingResult@2@@Z 00000001800571e0     Cooking.obj
 0004:000001ec       $pdata$?getHeight@HeightField@Gu@physx@@UEBAMMM@Z 00000001800571ec     Cooking.obj
 0004:000001f8       $pdata$?getHeightInternal2@HeightField@Gu@physx@@QEBAMIMM@Z 00000001800571f8     Cooking.obj
 0004:00000204       $pdata$0$?getHeightInternal2@HeightField@Gu@physx@@QEBAMIMM@Z 0000000180057204     Cooking.obj
 0004:00000210       $pdata$2$?getHeightInternal2@HeightField@Gu@physx@@QEBAMIMM@Z 0000000180057210     Cooking.obj
 0004:0000021c       $pdata$?getTriangleNormal@HeightField@Gu@physx@@UEBA?AVPxVec3@3@I@Z 000000018005721c     Cooking.obj
 0004:00000228       $pdata$?getTriangleNormalInternal@HeightField@Gu@physx@@QEBA?AVPxVec3@3@I@Z 0000000180057228     Cooking.obj
 0004:00000234       $pdata$?isKindOf@PxConvexMesh@physx@@MEBA_NPEBD@Z 0000000180057234     Cooking.obj
 0004:00000240       $pdata$?isKindOf@PxHeightField@physx@@MEBA_NPEBD@Z 0000000180057240     Cooking.obj
 0004:0000024c       $pdata$?outputSegment@RenderOutput@Cm@physx@@QEAAXAEBVPxVec3@3@0@Z 000000018005724c     Cooking.obj
 0004:00000258       $pdata$?recreate@?$Array@UPxDebugLine@physx@@V?$ReflectionAllocator@UPxDebugLine@physx@@@shdfnd@2@@shdfnd@physx@@IEAAXI@Z 0000000180057258     Cooking.obj
 0004:00000264       $pdata$?release@Cooking@physx@@UEAAXXZ 0000000180057264     Cooking.obj
 0004:00000270       $pdata$?reserveSegments@RenderOutput@Cm@physx@@QEAAPEAUPxDebugLine@3@I@Z 0000000180057270     Cooking.obj
 0004:0000027c       $pdata$?validateConvexMesh@Cooking@physx@@UEBA_NAEBVPxConvexMeshDesc@2@@Z 000000018005727c     Cooking.obj
 0004:00000288       $pdata$?validateTriangleMesh@Cooking@physx@@UEBA_NAEBVPxTriangleMeshDesc@2@@Z 0000000180057288     Cooking.obj
 0004:00000294       $pdata$PxCreateCooking     0000000180057294     Cooking.obj
 0004:000002a0       $pdata$??1ReducedVertexCloud@physx@@QEAA@XZ 00000001800572a0     CookingUtils.obj
 0004:000002ac       $pdata$?Reduce@ReducedVertexCloud@physx@@QEAA_NPEAUREDUCEDCLOUD@2@@Z 00000001800572ac     CookingUtils.obj
 0004:000002b8       $pdata$??1EdgeList@Gu@physx@@QEAA@XZ 00000001800572b8     EdgeList.obj
 0004:000002c4       $pdata$?computeActiveEdges@EdgeListBuilder@Gu@physx@@AEAA_NIPEBIPEBGPEBVPxVec3@3@M@Z 00000001800572c4     EdgeList.obj
 0004:000002d0       $pdata$1$?computeActiveEdges@EdgeListBuilder@Gu@physx@@AEAA_NIPEBIPEBGPEBVPxVec3@3@M@Z 00000001800572d0     EdgeList.obj
 0004:000002dc       $pdata$14$?computeActiveEdges@EdgeListBuilder@Gu@physx@@AEAA_NIPEBIPEBGPEBVPxVec3@3@M@Z 00000001800572dc     EdgeList.obj
 0004:000002e8       $pdata$15$?computeActiveEdges@EdgeListBuilder@Gu@physx@@AEAA_NIPEBIPEBGPEBVPxVec3@3@M@Z 00000001800572e8     EdgeList.obj
 0004:000002f4       $pdata$16$?computeActiveEdges@EdgeListBuilder@Gu@physx@@AEAA_NIPEBIPEBGPEBVPxVec3@3@M@Z 00000001800572f4     EdgeList.obj
 0004:00000300       $pdata$17$?computeActiveEdges@EdgeListBuilder@Gu@physx@@AEAA_NIPEBIPEBGPEBVPxVec3@3@M@Z 0000000180057300     EdgeList.obj
 0004:0000030c       $pdata$18$?computeActiveEdges@EdgeListBuilder@Gu@physx@@AEAA_NIPEBIPEBGPEBVPxVec3@3@M@Z 000000018005730c     EdgeList.obj
 0004:00000318       $pdata$?createEdgesToFaces@EdgeListBuilder@Gu@physx@@AEAA_NIPEBIPEBG@Z 0000000180057318     EdgeList.obj
 0004:00000324       $pdata$1$?createEdgesToFaces@EdgeListBuilder@Gu@physx@@AEAA_NIPEBIPEBG@Z 0000000180057324     EdgeList.obj
 0004:00000330       $pdata$2$?createEdgesToFaces@EdgeListBuilder@Gu@physx@@AEAA_NIPEBIPEBG@Z 0000000180057330     EdgeList.obj
 0004:0000033c       $pdata$?createFacesToEdges@EdgeListBuilder@Gu@physx@@AEAA_NIPEBIPEBG@Z 000000018005733c     EdgeList.obj
 0004:00000348       $pdata$0$?createFacesToEdges@EdgeListBuilder@Gu@physx@@AEAA_NIPEBIPEBG@Z 0000000180057348     EdgeList.obj
 0004:00000354       $pdata$1$?createFacesToEdges@EdgeListBuilder@Gu@physx@@AEAA_NIPEBIPEBG@Z 0000000180057354     EdgeList.obj
 0004:00000360       $pdata$2$?createFacesToEdges@EdgeListBuilder@Gu@physx@@AEAA_NIPEBIPEBG@Z 0000000180057360     EdgeList.obj
 0004:0000036c       $pdata$3$?createFacesToEdges@EdgeListBuilder@Gu@physx@@AEAA_NIPEBIPEBG@Z 000000018005736c     EdgeList.obj
 0004:00000378       $pdata$4$?createFacesToEdges@EdgeListBuilder@Gu@physx@@AEAA_NIPEBIPEBG@Z 0000000180057378     EdgeList.obj
 0004:00000384       $pdata$5$?createFacesToEdges@EdgeListBuilder@Gu@physx@@AEAA_NIPEBIPEBG@Z 0000000180057384     EdgeList.obj
 0004:00000390       $pdata$6$?createFacesToEdges@EdgeListBuilder@Gu@physx@@AEAA_NIPEBIPEBG@Z 0000000180057390     EdgeList.obj
 0004:0000039c       $pdata$7$?createFacesToEdges@EdgeListBuilder@Gu@physx@@AEAA_NIPEBIPEBG@Z 000000018005739c     EdgeList.obj
 0004:000003a8       $pdata$?init@EdgeListBuilder@Gu@physx@@QEAA_NAEBUEDGELISTCREATE@23@@Z 00000001800573a8     EdgeList.obj
 0004:000003b4       $pdata$??0MeshCleaner@physx@@QEAA@IPEBVPxVec3@1@IPEBIM@Z 00000001800573b4     MeshCleaner.obj
 0004:000003c0       $pdata$1$??0MeshCleaner@physx@@QEAA@IPEBVPxVec3@1@IPEBIM@Z 00000001800573c0     MeshCleaner.obj
 0004:000003cc       $pdata$5$??0MeshCleaner@physx@@QEAA@IPEBVPxVec3@1@IPEBIM@Z 00000001800573cc     MeshCleaner.obj
 0004:000003d8       $pdata$7$??0MeshCleaner@physx@@QEAA@IPEBVPxVec3@1@IPEBIM@Z 00000001800573d8     MeshCleaner.obj
 0004:000003e4       $pdata$8$??0MeshCleaner@physx@@QEAA@IPEBVPxVec3@1@IPEBIM@Z 00000001800573e4     MeshCleaner.obj
 0004:000003f0       $pdata$9$??0MeshCleaner@physx@@QEAA@IPEBVPxVec3@1@IPEBIM@Z 00000001800573f0     MeshCleaner.obj
 0004:000003fc       $pdata$10$??0MeshCleaner@physx@@QEAA@IPEBVPxVec3@1@IPEBIM@Z 00000001800573fc     MeshCleaner.obj
 0004:00000408       $pdata$11$??0MeshCleaner@physx@@QEAA@IPEBVPxVec3@1@IPEBIM@Z 0000000180057408     MeshCleaner.obj
 0004:00000414       $pdata$12$??0MeshCleaner@physx@@QEAA@IPEBVPxVec3@1@IPEBIM@Z 0000000180057414     MeshCleaner.obj
 0004:00000420       $pdata$13$??0MeshCleaner@physx@@QEAA@IPEBVPxVec3@1@IPEBIM@Z 0000000180057420     MeshCleaner.obj
 0004:0000042c       $pdata$14$??0MeshCleaner@physx@@QEAA@IPEBVPxVec3@1@IPEBIM@Z 000000018005742c     MeshCleaner.obj
 0004:00000438       $pdata$15$??0MeshCleaner@physx@@QEAA@IPEBVPxVec3@1@IPEBIM@Z 0000000180057438     MeshCleaner.obj
 0004:00000444       $pdata$??1MeshCleaner@physx@@QEAA@XZ 0000000180057444     MeshCleaner.obj
 0004:00000450       $pdata$??$kmeans_cluster@VPxVec3@physx@@M@@YAIPEBVPxVec3@physx@@IIPEAV01@PEAIMM@Z 0000000180057450     Quantizer.obj
 0004:0000045c       $pdata$4$??$kmeans_cluster@VPxVec3@physx@@M@@YAIPEBVPxVec3@physx@@IIPEAV01@PEAIMM@Z 000000018005745c     Quantizer.obj
 0004:00000468       $pdata$6$??$kmeans_cluster@VPxVec3@physx@@M@@YAIPEBVPxVec3@physx@@IIPEAV01@PEAIMM@Z 0000000180057468     Quantizer.obj
 0004:00000474       $pdata$9$??$kmeans_cluster@VPxVec3@physx@@M@@YAIPEBVPxVec3@physx@@IIPEAV01@PEAIMM@Z 0000000180057474     Quantizer.obj
 0004:00000480       $pdata$10$??$kmeans_cluster@VPxVec3@physx@@M@@YAIPEBVPxVec3@physx@@IIPEAV01@PEAIMM@Z 0000000180057480     Quantizer.obj
 0004:0000048c       $pdata$11$??$kmeans_cluster@VPxVec3@physx@@M@@YAIPEBVPxVec3@physx@@IIPEAV01@PEAIMM@Z 000000018005748c     Quantizer.obj
 0004:00000498       $pdata$12$??$kmeans_cluster@VPxVec3@physx@@M@@YAIPEBVPxVec3@physx@@IIPEAV01@PEAIMM@Z 0000000180057498     Quantizer.obj
 0004:000004a4       $pdata$??1QuantizerImpl@@EEAA@XZ 00000001800574a4     Quantizer.obj
 0004:000004b0       $pdata$??_GQuantizer@physx@@MEAAPEAXI@Z 00000001800574b0     Quantizer.obj
 0004:000004bc       $pdata$??_GQuantizerImpl@@EEAAPEAXI@Z 00000001800574bc     Quantizer.obj
 0004:000004c8       $pdata$?allocate@?$ReflectionAllocator@VPxVec3@physx@@@shdfnd@physx@@QEAAPEAX_KPEBDH@Z 00000001800574c8     Quantizer.obj
 0004:000004d4       $pdata$0$?allocate@?$ReflectionAllocator@VPxVec3@physx@@@shdfnd@physx@@QEAAPEAX_KPEBDH@Z 00000001800574d4     Quantizer.obj
 0004:000004e0       $pdata$1$?allocate@?$ReflectionAllocator@VPxVec3@physx@@@shdfnd@physx@@QEAAPEAX_KPEBDH@Z 00000001800574e0     Quantizer.obj
 0004:000004ec       $pdata$?createQuantizer@physx@@YAPEAVQuantizer@1@XZ 00000001800574ec     Quantizer.obj
 0004:000004f8       $pdata$?growAndPushBack@?$Array@VPxVec3@physx@@V?$ReflectionAllocator@VPxVec3@physx@@@shdfnd@2@@shdfnd@physx@@IEAAAEAVPxVec3@3@AEBV43@@Z 00000001800574f8     Quantizer.obj
 0004:00000504       $pdata$?kmeansQuantize3D@QuantizerImpl@@UEAAPEBVPxVec3@physx@@IPEBV23@I_NIAEAI@Z 0000000180057504     Quantizer.obj
 0004:00000510       $pdata$1$?kmeansQuantize3D@QuantizerImpl@@UEAAPEBVPxVec3@physx@@IPEBV23@I_NIAEAI@Z 0000000180057510     Quantizer.obj
 0004:0000051c       $pdata$2$?kmeansQuantize3D@QuantizerImpl@@UEAAPEBVPxVec3@physx@@IPEBV23@I_NIAEAI@Z 000000018005751c     Quantizer.obj
 0004:00000528       $pdata$3$?kmeansQuantize3D@QuantizerImpl@@UEAAPEBVPxVec3@physx@@IPEBV23@I_NIAEAI@Z 0000000180057528     Quantizer.obj
 0004:00000534       $pdata$?normalizeInput@QuantizerImpl@@AEAAXIPEBVPxVec3@physx@@I@Z 0000000180057534     Quantizer.obj
 0004:00000540       $pdata$0$?normalizeInput@QuantizerImpl@@AEAAXIPEBVPxVec3@physx@@I@Z 0000000180057540     Quantizer.obj
 0004:0000054c       $pdata$3$?normalizeInput@QuantizerImpl@@AEAAXIPEBVPxVec3@physx@@I@Z 000000018005754c     Quantizer.obj
 0004:00000558       $pdata$4$?normalizeInput@QuantizerImpl@@AEAAXIPEBVPxVec3@physx@@I@Z 0000000180057558     Quantizer.obj
 0004:00000564       $pdata$5$?normalizeInput@QuantizerImpl@@AEAAXIPEBVPxVec3@physx@@I@Z 0000000180057564     Quantizer.obj
 0004:00000570       $pdata$7$?normalizeInput@QuantizerImpl@@AEAAXIPEBVPxVec3@physx@@I@Z 0000000180057570     Quantizer.obj
 0004:0000057c       $pdata$8$?normalizeInput@QuantizerImpl@@AEAAXIPEBVPxVec3@physx@@I@Z 000000018005757c     Quantizer.obj
 0004:00000588       $pdata$??$?4V?$ReflectionAllocator@USlab@NodeAllocator@Gu@physx@@@shdfnd@physx@@@?$Array@USlab@NodeAllocator@Gu@physx@@V?$ReflectionAllocator@USlab@NodeAllocator@Gu@physx@@@shdfnd@4@@shdfnd@physx@@QEAAAEAV012@AEBV012@@Z 0000000180057588     BVHStructureBuilder.obj
 0004:00000594       $pdata$??$copy@V?$ReflectionAllocator@USlab@NodeAllocator@Gu@physx@@@shdfnd@physx@@@?$Array@USlab@NodeAllocator@Gu@physx@@V?$ReflectionAllocator@USlab@NodeAllocator@Gu@physx@@@shdfnd@4@@shdfnd@physx@@IEAAXAEBV012@@Z 0000000180057594     BVHStructureBuilder.obj
 0004:000005a0       $pdata$??0NodeAllocator@Gu@physx@@QEAA@AEBV012@@Z 00000001800575a0     BVHStructureBuilder.obj
 0004:000005ac       $pdata$?reset@AABBTreeBuildParams@Gu@physx@@QEAAXXZ 00000001800575ac     BVHStructureBuilder.obj
 0004:000005ac       $pdata$??1AABBTreeBuildParams@Gu@physx@@QEAA@XZ 00000001800575ac     BVHStructureBuilder.obj
 0004:000005b8       $pdata$??1BVHStructureBuilder@physx@@QEAA@XZ 00000001800575b8     BVHStructureBuilder.obj
 0004:000005c4       $pdata$??4NodeAllocator@Gu@physx@@QEAAAEAV012@AEBV012@@Z 00000001800575c4     BVHStructureBuilder.obj
 0004:000005d0       $pdata$?allocate@?$ReflectionAllocator@USlab@NodeAllocator@Gu@physx@@@shdfnd@physx@@QEAAPEAX_KPEBDH@Z 00000001800575d0     BVHStructureBuilder.obj
 0004:000005dc       $pdata$0$?allocate@?$ReflectionAllocator@USlab@NodeAllocator@Gu@physx@@@shdfnd@physx@@QEAAPEAX_KPEBDH@Z 00000001800575dc     BVHStructureBuilder.obj
 0004:000005e8       $pdata$1$?allocate@?$ReflectionAllocator@USlab@NodeAllocator@Gu@physx@@@shdfnd@physx@@QEAAPEAX_KPEBDH@Z 00000001800575e8     BVHStructureBuilder.obj
 0004:000005f4       $pdata$?flatten@@YAXAEBVNodeAllocator@Gu@physx@@PEAUBVHNode@23@@Z 00000001800575f4     BVHStructureBuilder.obj
 0004:00000600       $pdata$4$?flatten@@YAXAEBVNodeAllocator@Gu@physx@@PEAUBVHNode@23@@Z 0000000180057600     BVHStructureBuilder.obj
 0004:0000060c       $pdata$5$?flatten@@YAXAEBVNodeAllocator@Gu@physx@@PEAUBVHNode@23@@Z 000000018005760c     BVHStructureBuilder.obj
 0004:00000618       $pdata$?loadFromDesc@BVHStructureBuilder@physx@@QEAA_NAEBVPxBVHStructureDesc@2@@Z 0000000180057618     BVHStructureBuilder.obj
 0004:00000624       $pdata$?recreate@?$Array@USlab@NodeAllocator@Gu@physx@@V?$ReflectionAllocator@USlab@NodeAllocator@Gu@physx@@@shdfnd@4@@shdfnd@physx@@IEAAXI@Z 0000000180057624     BVHStructureBuilder.obj
 0004:00000630       $pdata$?save@BVHStructureBuilder@physx@@QEBA_NAEAVPxOutputStream@2@_N@Z 0000000180057630     BVHStructureBuilder.obj
 0004:0000063c       $pdata$2$?save@BVHStructureBuilder@physx@@QEBA_NAEAVPxOutputStream@2@_N@Z 000000018005763c     BVHStructureBuilder.obj
 0004:00000648       $pdata$3$?save@BVHStructureBuilder@physx@@QEBA_NAEAVPxOutputStream@2@_N@Z 0000000180057648     BVHStructureBuilder.obj
 0004:00000654       $pdata$?saveHeightField@physx@@YA_NAEBVHeightField@Gu@1@AEAVPxOutputStream@1@_N@Z 0000000180057654     HeightFieldCooking.obj
 0004:00000660       $pdata$2$?saveHeightField@physx@@YA_NAEBVHeightField@Gu@1@AEAVPxOutputStream@1@_N@Z 0000000180057660     HeightFieldCooking.obj
 0004:0000066c       $pdata$3$?saveHeightField@physx@@YA_NAEBVHeightField@Gu@1@AEAVPxOutputStream@1@_N@Z 000000018005766c     HeightFieldCooking.obj
 0004:00000678       $pdata$??$median3@I$$CBUSortBoundsPredicate@physx@@@internal@shdfnd@physx@@YAXPEAIHHAEBUSortBoundsPredicate@2@@Z 0000000180057678     RTreeCooking.obj
 0004:00000684       $pdata$??$partition@I$$CBU?$Less@I@shdfnd@physx@@@internal@shdfnd@physx@@YAHPEAIHHAEBU?$Less@I@12@@Z 0000000180057684     RTreeCooking.obj
 0004:00000690       $pdata$??$partition@I$$CBUSortBoundsPredicate@physx@@@internal@shdfnd@physx@@YAHPEAIHHAEBUSortBoundsPredicate@2@@Z 0000000180057690     RTreeCooking.obj
 0004:0000069c       $pdata$??$quickSelectFirstK@UBoundsLTE@physx@@@quickSelect@physx@@YAXPEIAIIIIAEBUBoundsLTE@1@@Z 000000018005769c     RTreeCooking.obj
 0004:000006a8       $pdata$??$smallSort@I$$CBU?$Less@I@shdfnd@physx@@@internal@shdfnd@physx@@YAXPEAIHHAEBU?$Less@I@12@@Z 00000001800576a8     RTreeCooking.obj
 0004:000006b4       $pdata$5$??$smallSort@I$$CBU?$Less@I@shdfnd@physx@@@internal@shdfnd@physx@@YAXPEAIHHAEBU?$Less@I@12@@Z 00000001800576b4     RTreeCooking.obj
 0004:000006c0       $pdata$6$??$smallSort@I$$CBU?$Less@I@shdfnd@physx@@@internal@shdfnd@physx@@YAXPEAIHHAEBU?$Less@I@12@@Z 00000001800576c0     RTreeCooking.obj
 0004:000006cc       $pdata$??$smallSort@I$$CBUSortBoundsPredicate@physx@@@internal@shdfnd@physx@@YAXPEAIHHAEBUSortBoundsPredicate@2@@Z 00000001800576cc     RTreeCooking.obj
 0004:000006d8       $pdata$4$??$smallSort@I$$CBUSortBoundsPredicate@physx@@@internal@shdfnd@physx@@YAXPEAIHHAEBUSortBoundsPredicate@2@@Z 00000001800576d8     RTreeCooking.obj
 0004:000006e4       $pdata$5$??$smallSort@I$$CBUSortBoundsPredicate@physx@@@internal@shdfnd@physx@@YAXPEAIHHAEBUSortBoundsPredicate@2@@Z 00000001800576e4     RTreeCooking.obj
 0004:000006f0       $pdata$??$sort@IU?$Less@I@shdfnd@physx@@V?$ReflectionAllocator@I@23@@shdfnd@physx@@YAXPEAIIAEBU?$Less@I@01@AEBV?$ReflectionAllocator@I@01@I@Z 00000001800576f0     RTreeCooking.obj
 0004:000006fc       $pdata$??$sort@IUSortBoundsPredicate@physx@@V?$ReflectionAllocator@I@shdfnd@2@@shdfnd@physx@@YAXPEAIIAEBUSortBoundsPredicate@1@AEBV?$ReflectionAllocator@I@01@I@Z 00000001800576fc     RTreeCooking.obj
 0004:00000708       $pdata$??0SubSortQuick@physx@@QEAA@PEAIPEBUPxBounds3V@1@IM@Z 0000000180057708     RTreeCooking.obj
 0004:00000714       $pdata$??0SubSortSAH@physx@@QEAA@PEAIPEBUPxBounds3V@1@IPEBI22222M@Z 0000000180057714     RTreeCooking.obj
 0004:00000720       $pdata$?allocate@?$Array@UInterval@physx@@V?$InlineAllocator@$0CAAA@V?$ReflectionAllocator@UInterval@physx@@@shdfnd@physx@@@shdfnd@2@@shdfnd@physx@@IEAAPEAUInterval@3@I@Z 0000000180057720     RTreeCooking.obj
 0004:0000072c       $pdata$1$?allocate@?$Array@UInterval@physx@@V?$InlineAllocator@$0CAAA@V?$ReflectionAllocator@UInterval@physx@@@shdfnd@physx@@@shdfnd@2@@shdfnd@physx@@IEAAPEAUInterval@3@I@Z 000000018005772c     RTreeCooking.obj
 0004:00000738       $pdata$3$?allocate@?$Array@UInterval@physx@@V?$InlineAllocator@$0CAAA@V?$ReflectionAllocator@UInterval@physx@@@shdfnd@physx@@@shdfnd@2@@shdfnd@physx@@IEAAPEAUInterval@3@I@Z 0000000180057738     RTreeCooking.obj
 0004:00000744       $pdata$4$?allocate@?$Array@UInterval@physx@@V?$InlineAllocator@$0CAAA@V?$ReflectionAllocator@UInterval@physx@@@shdfnd@physx@@@shdfnd@2@@shdfnd@physx@@IEAAPEAUInterval@3@I@Z 0000000180057744     RTreeCooking.obj
 0004:00000750       $pdata$?allocate@?$ReflectionAllocator@I@shdfnd@physx@@QEAAPEAX_KPEBDH@Z 0000000180057750     RTreeCooking.obj
 0004:0000075c       $pdata$0$?allocate@?$ReflectionAllocator@I@shdfnd@physx@@QEAAPEAX_KPEBDH@Z 000000018005775c     RTreeCooking.obj
 0004:00000768       $pdata$1$?allocate@?$ReflectionAllocator@I@shdfnd@physx@@QEAAPEAX_KPEBDH@Z 0000000180057768     RTreeCooking.obj
 0004:00000774       $pdata$?allocate@?$ReflectionAllocator@UPxBounds3V@physx@@@shdfnd@physx@@QEAAPEAX_KPEBDH@Z 0000000180057774     RTreeCooking.obj
 0004:00000780       $pdata$0$?allocate@?$ReflectionAllocator@UPxBounds3V@physx@@@shdfnd@physx@@QEAAPEAX_KPEBDH@Z 0000000180057780     RTreeCooking.obj
 0004:0000078c       $pdata$1$?allocate@?$ReflectionAllocator@UPxBounds3V@physx@@@shdfnd@physx@@QEAAPEAX_KPEBDH@Z 000000018005778c     RTreeCooking.obj
 0004:00000798       $pdata$?allocate@?$ReflectionAllocator@URTreeNodeNQ@physx@@@shdfnd@physx@@QEAAPEAX_KPEBDH@Z 0000000180057798     RTreeCooking.obj
 0004:000007a4       $pdata$0$?allocate@?$ReflectionAllocator@URTreeNodeNQ@physx@@@shdfnd@physx@@QEAAPEAX_KPEBDH@Z 00000001800577a4     RTreeCooking.obj
 0004:000007b0       $pdata$1$?allocate@?$ReflectionAllocator@URTreeNodeNQ@physx@@@shdfnd@physx@@QEAAPEAX_KPEBDH@Z 00000001800577b0     RTreeCooking.obj
 0004:000007bc       $pdata$?allocate@?$ReflectionAllocator@URTreeNodeQ@Gu@physx@@@shdfnd@physx@@QEAAPEAX_KPEBDH@Z 00000001800577bc     RTreeCooking.obj
 0004:000007c8       $pdata$0$?allocate@?$ReflectionAllocator@URTreeNodeQ@Gu@physx@@@shdfnd@physx@@QEAAPEAX_KPEBDH@Z 00000001800577c8     RTreeCooking.obj
 0004:000007d4       $pdata$1$?allocate@?$ReflectionAllocator@URTreeNodeQ@Gu@physx@@@shdfnd@physx@@QEAAPEAX_KPEBDH@Z 00000001800577d4     RTreeCooking.obj
 0004:000007e0       $pdata$?buildFromBounds@physx@@YAXAEAURTree@Gu@1@PEBUPxBounds3V@1@IAEAV?$Array@IV?$ReflectionAllocator@I@shdfnd@physx@@@shdfnd@1@PEAURemapCallback@RTreeCooker@1@AEAT__m128@@4MW4Enum@PxMeshCookingHint@1@@Z 00000001800577e0     RTreeCooking.obj
 0004:000007ec       $pdata$?buildFromTriangles@RTreeCooker@physx@@SAXAEAURTree@Gu@2@PEBVPxVec3@2@IPEBGPEBIIAEAV?$Array@IV?$ReflectionAllocator@I@shdfnd@physx@@@shdfnd@2@PEAURemapCallback@12@MW4Enum@PxMeshCookingHint@2@@Z 00000001800577ec     RTreeCooking.obj
 0004:000007f8       $pdata$6$?buildFromTriangles@RTreeCooker@physx@@SAXAEAURTree@Gu@2@PEBVPxVec3@2@IPEBGPEBIIAEAV?$Array@IV?$ReflectionAllocator@I@shdfnd@physx@@@shdfnd@2@PEAURemapCallback@12@MW4Enum@PxMeshCookingHint@2@@Z 00000001800577f8     RTreeCooking.obj
 0004:00000804       $pdata$7$?buildFromTriangles@RTreeCooker@physx@@SAXAEAURTree@Gu@2@PEBVPxVec3@2@IPEBGPEBIIAEAV?$Array@IV?$ReflectionAllocator@I@shdfnd@physx@@@shdfnd@2@PEAURemapCallback@12@MW4Enum@PxMeshCookingHint@2@@Z 0000000180057804     RTreeCooking.obj
 0004:00000810       $pdata$8$?buildFromTriangles@RTreeCooker@physx@@SAXAEAURTree@Gu@2@PEBVPxVec3@2@IPEBGPEBIIAEAV?$Array@IV?$ReflectionAllocator@I@shdfnd@physx@@@shdfnd@2@PEAURemapCallback@12@MW4Enum@PxMeshCookingHint@2@@Z 0000000180057810     RTreeCooking.obj
 0004:0000081c       $pdata$9$?buildFromTriangles@RTreeCooker@physx@@SAXAEAURTree@Gu@2@PEBVPxVec3@2@IPEBGPEBIIAEAV?$Array@IV?$ReflectionAllocator@I@shdfnd@physx@@@shdfnd@2@PEAURemapCallback@12@MW4Enum@PxMeshCookingHint@2@@Z 000000018005781c     RTreeCooking.obj
 0004:00000828       $pdata$?copy@?$Array@URTreeNodeNQ@physx@@V?$ReflectionAllocator@URTreeNodeNQ@physx@@@shdfnd@2@@shdfnd@physx@@KAXPEAURTreeNodeNQ@3@0PEBU43@@Z 0000000180057828     RTreeCooking.obj
 0004:00000834       $pdata$0$?copy@?$Array@URTreeNodeNQ@physx@@V?$ReflectionAllocator@URTreeNodeNQ@physx@@@shdfnd@2@@shdfnd@physx@@KAXPEAURTreeNodeNQ@3@0PEBU43@@Z 0000000180057834     RTreeCooking.obj
 0004:00000840       $pdata$1$?copy@?$Array@URTreeNodeNQ@physx@@V?$ReflectionAllocator@URTreeNodeNQ@physx@@@shdfnd@2@@shdfnd@physx@@KAXPEAURTreeNodeNQ@3@0PEBU43@@Z 0000000180057840     RTreeCooking.obj
 0004:0000084c       $pdata$?growAndPushBack@?$Array@IV?$ReflectionAllocator@I@shdfnd@physx@@@shdfnd@physx@@IEAAAEAIAEBI@Z 000000018005784c     RTreeCooking.obj
 0004:00000858       $pdata$?growAndPushBack@?$Array@UInterval@physx@@V?$InlineAllocator@$0CAAA@V?$ReflectionAllocator@UInterval@physx@@@shdfnd@physx@@@shdfnd@2@@shdfnd@physx@@IEAAAEAUInterval@3@AEBU43@@Z 0000000180057858     RTreeCooking.obj
 0004:00000864       $pdata$?growAndPushBack@?$Array@UPxBounds3V@physx@@V?$ReflectionAllocator@UPxBounds3V@physx@@@shdfnd@2@@shdfnd@physx@@IEAAAEAUPxBounds3V@3@AEBU43@@Z 0000000180057864     RTreeCooking.obj
 0004:00000870       $pdata$?growAndPushBack@?$Array@URTreeNodeNQ@physx@@V?$ReflectionAllocator@URTreeNodeNQ@physx@@@shdfnd@2@@shdfnd@physx@@IEAAAEAURTreeNodeNQ@3@AEBU43@@Z 0000000180057870     RTreeCooking.obj
 0004:0000087c       $pdata$?growAndPushBack@?$Array@URTreeNodeQ@Gu@physx@@V?$ReflectionAllocator@URTreeNodeQ@Gu@physx@@@shdfnd@3@@shdfnd@physx@@IEAAAEAURTreeNodeQ@Gu@3@AEBU453@@Z 000000018005787c     RTreeCooking.obj
 0004:00000888       $pdata$?recreate@?$Array@IV?$ReflectionAllocator@I@shdfnd@physx@@@shdfnd@physx@@IEAAXI@Z 0000000180057888     RTreeCooking.obj
 0004:00000894       $pdata$?recreate@?$Array@UPxBounds3V@physx@@V?$ReflectionAllocator@UPxBounds3V@physx@@@shdfnd@2@@shdfnd@physx@@IEAAXI@Z 0000000180057894     RTreeCooking.obj
 0004:000008a0       $pdata$?recreate@?$Array@URTreeNodeNQ@physx@@V?$ReflectionAllocator@URTreeNodeNQ@physx@@@shdfnd@2@@shdfnd@physx@@IEAAXI@Z 00000001800578a0     RTreeCooking.obj
 0004:000008ac       $pdata$?recreate@?$Array@URTreeNodeQ@Gu@physx@@V?$ReflectionAllocator@URTreeNodeQ@Gu@physx@@@shdfnd@3@@shdfnd@physx@@IEAAXI@Z 00000001800578ac     RTreeCooking.obj
 0004:000008b8       $pdata$?recreate@?$Array@VPxVec3@physx@@V?$ReflectionAllocator@VPxVec3@physx@@@shdfnd@2@@shdfnd@physx@@IEAAXI@Z 00000001800578b8     RTreeCooking.obj
 0004:000008c4       $pdata$?resize@?$Array@IV?$ReflectionAllocator@I@shdfnd@physx@@@shdfnd@physx@@QEAAXIAEBI@Z 00000001800578c4     RTreeCooking.obj
 0004:000008d0       $pdata$?resizeUninitialized@?$Array@URTreeNodeNQ@physx@@V?$ReflectionAllocator@URTreeNodeNQ@physx@@@shdfnd@2@@shdfnd@physx@@QEAAXI@Z 00000001800578d0     RTreeCooking.obj
 0004:000008dc       $pdata$?sort4@SubSortQuick@physx@@QEAAXPEIAIIAEAV?$Array@URTreeNodeNQ@physx@@V?$ReflectionAllocator@URTreeNodeNQ@physx@@@shdfnd@2@@shdfnd@2@AEAIAEAUPxBounds3V@2@I@Z 00000001800578dc     RTreeCooking.obj
 0004:000008e8       $pdata$?sort4@SubSortSAH@physx@@QEAAXPEAIIAEAV?$Array@URTreeNodeNQ@physx@@V?$ReflectionAllocator@URTreeNodeNQ@physx@@@shdfnd@2@@shdfnd@2@AEAIIPEAURTreeNodeNQ@2@@Z 00000001800578e8     RTreeCooking.obj
 0004:000008f4       $pdata$2$?sort4@SubSortSAH@physx@@QEAAXPEAIIAEAV?$Array@URTreeNodeNQ@physx@@V?$ReflectionAllocator@URTreeNodeNQ@physx@@@shdfnd@2@@shdfnd@2@AEAIIPEAURTreeNodeNQ@2@@Z 00000001800578f4     RTreeCooking.obj
 0004:00000900       $pdata$4$?sort4@SubSortSAH@physx@@QEAAXPEAIIAEAV?$Array@URTreeNodeNQ@physx@@V?$ReflectionAllocator@URTreeNodeNQ@physx@@@shdfnd@2@@shdfnd@2@AEAIIPEAURTreeNodeNQ@2@@Z 0000000180057900     RTreeCooking.obj
 0004:0000090c       $pdata$5$?sort4@SubSortSAH@physx@@QEAAXPEAIIAEAV?$Array@URTreeNodeNQ@physx@@V?$ReflectionAllocator@URTreeNodeNQ@physx@@@shdfnd@2@@shdfnd@2@AEAIIPEAURTreeNodeNQ@2@@Z 000000018005790c     RTreeCooking.obj
 0004:00000918       $pdata$6$?sort4@SubSortSAH@physx@@QEAAXPEAIIAEAV?$Array@URTreeNodeNQ@physx@@V?$ReflectionAllocator@URTreeNodeNQ@physx@@@shdfnd@2@@shdfnd@2@AEAIIPEAURTreeNodeNQ@2@@Z 0000000180057918     RTreeCooking.obj
 0004:00000924       $pdata$7$?sort4@SubSortSAH@physx@@QEAAXPEAIIAEAV?$Array@URTreeNodeNQ@physx@@V?$ReflectionAllocator@URTreeNodeNQ@physx@@@shdfnd@2@@shdfnd@2@AEAIIPEAURTreeNodeNQ@2@@Z 0000000180057924     RTreeCooking.obj
 0004:00000930       $pdata$?split@SubSortSAH@physx@@QEAAIPEAII@Z 0000000180057930     RTreeCooking.obj
 0004:0000093c       $pdata$2$?split@SubSortSAH@physx@@QEAAIPEAII@Z 000000018005793c     RTreeCooking.obj
 0004:00000948       $pdata$6$?split@SubSortSAH@physx@@QEAAIPEAII@Z 0000000180057948     RTreeCooking.obj
 0004:00000954       $pdata$7$?split@SubSortSAH@physx@@QEAAIPEAII@Z 0000000180057954     RTreeCooking.obj
 0004:00000960       $pdata$8$?split@SubSortSAH@physx@@QEAAIPEAII@Z 0000000180057960     RTreeCooking.obj
 0004:0000096c       $pdata$?computeLocalBounds@MeshBulider@physx@@IEAAXAEAVMeshDataBase@Gu@2@@Z 000000018005796c     MeshBuilder.obj
 0004:00000978       $pdata$??$partition@UEdgeTriLookup@physx@@$$CBU?$Less@UEdgeTriLookup@physx@@@shdfnd@2@@internal@shdfnd@physx@@YAHPEAUEdgeTriLookup@2@HHAEBU?$Less@UEdgeTriLookup@physx@@@12@@Z 0000000180057978     TriangleMeshBuilder.obj
 0004:00000984       $pdata$??$smallSort@UEdgeTriLookup@physx@@$$CBU?$Less@UEdgeTriLookup@physx@@@shdfnd@2@@internal@shdfnd@physx@@YAXPEAUEdgeTriLookup@2@HHAEBU?$Less@UEdgeTriLookup@physx@@@12@@Z 0000000180057984     TriangleMeshBuilder.obj
 0004:00000990       $pdata$5$??$smallSort@UEdgeTriLookup@physx@@$$CBU?$Less@UEdgeTriLookup@physx@@@shdfnd@2@@internal@shdfnd@physx@@YAXPEAUEdgeTriLookup@2@HHAEBU?$Less@UEdgeTriLookup@physx@@@12@@Z 0000000180057990     TriangleMeshBuilder.obj
 0004:0000099c       $pdata$6$??$smallSort@UEdgeTriLookup@physx@@$$CBU?$Less@UEdgeTriLookup@physx@@@shdfnd@2@@internal@shdfnd@physx@@YAXPEAUEdgeTriLookup@2@HHAEBU?$Less@UEdgeTriLookup@physx@@@12@@Z 000000018005799c     TriangleMeshBuilder.obj
 0004:000009a8       $pdata$??$sort@UEdgeTriLookup@physx@@U?$Less@UEdgeTriLookup@physx@@@shdfnd@2@V?$ReflectionAllocator@UEdgeTriLookup@physx@@@42@@shdfnd@physx@@YAXPEAUEdgeTriLookup@1@IAEBU?$Less@UEdgeTriLookup@physx@@@01@AEBV?$ReflectionAllocator@UEdgeTriLookup@physx@@@01@I@Z 00000001800579a8     TriangleMeshBuilder.obj
 0004:000009b4       $pdata$??0BV4TriangleData@Gu@physx@@QEAA@XZ 00000001800579b4     TriangleMeshBuilder.obj
 0004:000009c0       $pdata$??0BV4TriangleMeshBuilder@physx@@QEAA@AEBUPxCookingParams@1@@Z 00000001800579c0     TriangleMeshBuilder.obj
 0004:000009cc       $pdata$??1BV4TriangleMeshBuilder@physx@@UEAA@XZ 00000001800579cc     TriangleMeshBuilder.obj
 0004:000009d8       $pdata$??1MeshDataBase@Gu@physx@@UEAA@XZ 00000001800579d8     TriangleMeshBuilder.obj
 0004:000009e4       $pdata$??1RTreeTriangleMeshBuilder@physx@@UEAA@XZ 00000001800579e4     TriangleMeshBuilder.obj
 0004:000009f0       $pdata$0$??1RTreeTriangleMeshBuilder@physx@@UEAA@XZ 00000001800579f0     TriangleMeshBuilder.obj
 0004:000009fc       $pdata$1$??1RTreeTriangleMeshBuilder@physx@@UEAA@XZ 00000001800579fc     TriangleMeshBuilder.obj
 0004:00000a08       $pdata$??1TriangleMeshData@Gu@physx@@UEAA@XZ 0000000180057a08     TriangleMeshBuilder.obj
 0004:00000a14       $pdata$??_GBV4TriangleData@Gu@physx@@UEAAPEAXI@Z 0000000180057a14     TriangleMeshBuilder.obj
 0004:00000a20       $pdata$??_GBV4TriangleMeshBuilder@physx@@UEAAPEAXI@Z 0000000180057a20     TriangleMeshBuilder.obj
 0004:00000a2c       $pdata$??_GMeshDataBase@Gu@physx@@UEAAPEAXI@Z 0000000180057a2c     TriangleMeshBuilder.obj
 0004:00000a38       $pdata$??_GRTreeCookerRemap@physx@@UEAAPEAXI@Z 0000000180057a38     TriangleMeshBuilder.obj
 0004:00000a44       $pdata$??_GRTreeTriangleData@Gu@physx@@UEAAPEAXI@Z 0000000180057a44     TriangleMeshBuilder.obj
 0004:00000a50       $pdata$0$??_GRTreeTriangleData@Gu@physx@@UEAAPEAXI@Z 0000000180057a50     TriangleMeshBuilder.obj
 0004:00000a5c       $pdata$1$??_GRTreeTriangleData@Gu@physx@@UEAAPEAXI@Z 0000000180057a5c     TriangleMeshBuilder.obj
 0004:00000a68       $pdata$??_GRTreeTriangleMeshBuilder@physx@@UEAAPEAXI@Z 0000000180057a68     TriangleMeshBuilder.obj
 0004:00000a74       $pdata$??_GRemapCallback@RTreeCooker@physx@@UEAAPEAXI@Z 0000000180057a74     TriangleMeshBuilder.obj
 0004:00000a80       $pdata$??_GTriangleMeshBuilder@physx@@UEAAPEAXI@Z 0000000180057a80     TriangleMeshBuilder.obj
 0004:00000a8c       $pdata$??_GTriangleMeshData@Gu@physx@@UEAAPEAXI@Z 0000000180057a8c     TriangleMeshBuilder.obj
 0004:00000a98       $pdata$?allocateMaterials@TriangleMeshData@Gu@physx@@QEAAPEAGXZ 0000000180057a98     TriangleMeshBuilder.obj
 0004:00000aa4       $pdata$0$?allocateMaterials@TriangleMeshData@Gu@physx@@QEAAPEAGXZ 0000000180057aa4     TriangleMeshBuilder.obj
 0004:00000ab0       $pdata$1$?allocateMaterials@TriangleMeshData@Gu@physx@@QEAAPEAGXZ 0000000180057ab0     TriangleMeshBuilder.obj
 0004:00000abc       $pdata$?allocateTriangles@TriangleMeshData@Gu@physx@@QEAAPEAXI_NI@Z 0000000180057abc     TriangleMeshBuilder.obj
 0004:00000ac8       $pdata$?allocateVertices@MeshDataBase@Gu@physx@@QEAAPEAVPxVec3@3@I@Z 0000000180057ac8     TriangleMeshBuilder.obj
 0004:00000ad4       $pdata$?buildAdjacencies@physx@@YAXPEAUuint4@1@PEAVPxVec3@1@PEBV31@PEBUuint3@1@I@Z 0000000180057ad4     TriangleMeshBuilder.obj
 0004:00000ae0       $pdata$7$?buildAdjacencies@physx@@YAXPEAUuint4@1@PEAVPxVec3@1@PEBV31@PEBUuint3@1@I@Z 0000000180057ae0     TriangleMeshBuilder.obj
 0004:00000aec       $pdata$10$?buildAdjacencies@physx@@YAXPEAUuint4@1@PEAVPxVec3@1@PEBV31@PEBUuint3@1@I@Z 0000000180057aec     TriangleMeshBuilder.obj
 0004:00000af8       $pdata$11$?buildAdjacencies@physx@@YAXPEAUuint4@1@PEAVPxVec3@1@PEBV31@PEBUuint3@1@I@Z 0000000180057af8     TriangleMeshBuilder.obj
 0004:00000b04       $pdata$12$?buildAdjacencies@physx@@YAXPEAUuint4@1@PEAVPxVec3@1@PEBV31@PEBUuint3@1@I@Z 0000000180057b04     TriangleMeshBuilder.obj
 0004:00000b10       $pdata$?checkMeshIndicesSize@TriangleMeshBuilder@physx@@QEAAXXZ 0000000180057b10     TriangleMeshBuilder.obj
 0004:00000b1c       $pdata$1$?checkMeshIndicesSize@TriangleMeshBuilder@physx@@QEAAXXZ 0000000180057b1c     TriangleMeshBuilder.obj
 0004:00000b28       $pdata$2$?checkMeshIndicesSize@TriangleMeshBuilder@physx@@QEAAXXZ 0000000180057b28     TriangleMeshBuilder.obj
 0004:00000b34       $pdata$3$?checkMeshIndicesSize@TriangleMeshBuilder@physx@@QEAAXXZ 0000000180057b34     TriangleMeshBuilder.obj
 0004:00000b40       $pdata$4$?checkMeshIndicesSize@TriangleMeshBuilder@physx@@QEAAXXZ 0000000180057b40     TriangleMeshBuilder.obj
 0004:00000b4c       $pdata$?cleanMesh@TriangleMeshBuilder@physx@@QEAA_N_NPEAW4Enum@PxTriangleMeshCookingResult@2@@Z 0000000180057b4c     TriangleMeshBuilder.obj
 0004:00000b58       $pdata$0$?cleanMesh@TriangleMeshBuilder@physx@@QEAA_N_NPEAW4Enum@PxTriangleMeshCookingResult@2@@Z 0000000180057b58     TriangleMeshBuilder.obj
 0004:00000b64       $pdata$1$?cleanMesh@TriangleMeshBuilder@physx@@QEAA_N_NPEAW4Enum@PxTriangleMeshCookingResult@2@@Z 0000000180057b64     TriangleMeshBuilder.obj
 0004:00000b70       $pdata$2$?cleanMesh@TriangleMeshBuilder@physx@@QEAA_N_NPEAW4Enum@PxTriangleMeshCookingResult@2@@Z 0000000180057b70     TriangleMeshBuilder.obj
 0004:00000b7c       $pdata$3$?cleanMesh@TriangleMeshBuilder@physx@@QEAA_N_NPEAW4Enum@PxTriangleMeshCookingResult@2@@Z 0000000180057b7c     TriangleMeshBuilder.obj
 0004:00000b88       $pdata$4$?cleanMesh@TriangleMeshBuilder@physx@@QEAA_N_NPEAW4Enum@PxTriangleMeshCookingResult@2@@Z 0000000180057b88     TriangleMeshBuilder.obj
 0004:00000b94       $pdata$5$?cleanMesh@TriangleMeshBuilder@physx@@QEAA_N_NPEAW4Enum@PxTriangleMeshCookingResult@2@@Z 0000000180057b94     TriangleMeshBuilder.obj
 0004:00000ba0       $pdata$6$?cleanMesh@TriangleMeshBuilder@physx@@QEAA_N_NPEAW4Enum@PxTriangleMeshCookingResult@2@@Z 0000000180057ba0     TriangleMeshBuilder.obj
 0004:00000bac       $pdata$7$?cleanMesh@TriangleMeshBuilder@physx@@QEAA_N_NPEAW4Enum@PxTriangleMeshCookingResult@2@@Z 0000000180057bac     TriangleMeshBuilder.obj
 0004:00000bb8       $pdata$8$?cleanMesh@TriangleMeshBuilder@physx@@QEAA_N_NPEAW4Enum@PxTriangleMeshCookingResult@2@@Z 0000000180057bb8     TriangleMeshBuilder.obj
 0004:00000bc4       $pdata$9$?cleanMesh@TriangleMeshBuilder@physx@@QEAA_N_NPEAW4Enum@PxTriangleMeshCookingResult@2@@Z 0000000180057bc4     TriangleMeshBuilder.obj
 0004:00000bd0       $pdata$?createEdgeList@TriangleMeshBuilder@physx@@IEAAXXZ 0000000180057bd0     TriangleMeshBuilder.obj
 0004:00000bdc       $pdata$?createGRBData@TriangleMeshBuilder@physx@@QEAAXXZ 0000000180057bdc     TriangleMeshBuilder.obj
 0004:00000be8       $pdata$?createGRBMidPhaseAndData@TriangleMeshBuilder@physx@@QEAAXI@Z 0000000180057be8     TriangleMeshBuilder.obj
 0004:00000bf4       $pdata$1$?createGRBMidPhaseAndData@TriangleMeshBuilder@physx@@QEAAXI@Z 0000000180057bf4     TriangleMeshBuilder.obj
 0004:00000c00       $pdata$2$?createGRBMidPhaseAndData@TriangleMeshBuilder@physx@@QEAAXI@Z 0000000180057c00     TriangleMeshBuilder.obj
 0004:00000c0c       $pdata$3$?createGRBMidPhaseAndData@TriangleMeshBuilder@physx@@QEAAXI@Z 0000000180057c0c     TriangleMeshBuilder.obj
 0004:00000c18       $pdata$4$?createGRBMidPhaseAndData@TriangleMeshBuilder@physx@@QEAAXI@Z 0000000180057c18     TriangleMeshBuilder.obj
 0004:00000c24       $pdata$5$?createGRBMidPhaseAndData@TriangleMeshBuilder@physx@@QEAAXI@Z 0000000180057c24     TriangleMeshBuilder.obj
 0004:00000c30       $pdata$?createMidPhaseStructure@BV32TriangleMeshBuilder@physx@@SAXAEBUPxCookingParams@2@AEAVTriangleMeshData@Gu@2@AEAVBV32Tree@52@@Z 0000000180057c30     TriangleMeshBuilder.obj
 0004:00000c3c       $pdata$0$?createMidPhaseStructure@BV32TriangleMeshBuilder@physx@@SAXAEBUPxCookingParams@2@AEAVTriangleMeshData@Gu@2@AEAVBV32Tree@52@@Z 0000000180057c3c     TriangleMeshBuilder.obj
 0004:00000c48       $pdata$1$?createMidPhaseStructure@BV32TriangleMeshBuilder@physx@@SAXAEBUPxCookingParams@2@AEAVTriangleMeshData@Gu@2@AEAVBV32Tree@52@@Z 0000000180057c48     TriangleMeshBuilder.obj
 0004:00000c54       $pdata$?createMidPhaseStructure@BV4TriangleMeshBuilder@physx@@UEAAXXZ 0000000180057c54     TriangleMeshBuilder.obj
 0004:00000c60       $pdata$3$?createMidPhaseStructure@BV4TriangleMeshBuilder@physx@@UEAAXXZ 0000000180057c60     TriangleMeshBuilder.obj
 0004:00000c6c       $pdata$4$?createMidPhaseStructure@BV4TriangleMeshBuilder@physx@@UEAAXXZ 0000000180057c6c     TriangleMeshBuilder.obj
 0004:00000c78       $pdata$5$?createMidPhaseStructure@BV4TriangleMeshBuilder@physx@@UEAAXXZ 0000000180057c78     TriangleMeshBuilder.obj
 0004:00000c84       $pdata$6$?createMidPhaseStructure@BV4TriangleMeshBuilder@physx@@UEAAXXZ 0000000180057c84     TriangleMeshBuilder.obj
 0004:00000c90       $pdata$?createMidPhaseStructure@RTreeTriangleMeshBuilder@physx@@UEAAXXZ 0000000180057c90     TriangleMeshBuilder.obj
 0004:00000c9c       $pdata$?createSharedEdgeData@TriangleMeshBuilder@physx@@QEAAX_N0@Z 0000000180057c9c     TriangleMeshBuilder.obj
 0004:00000ca8       $pdata$4$?createSharedEdgeData@TriangleMeshBuilder@physx@@QEAAX_N0@Z 0000000180057ca8     TriangleMeshBuilder.obj
 0004:00000cb4       $pdata$5$?createSharedEdgeData@TriangleMeshBuilder@physx@@QEAAX_N0@Z 0000000180057cb4     TriangleMeshBuilder.obj
 0004:00000cc0       $pdata$?findAdjacent@physx@@YAIPEBVPxVec3@1@0PEBUuint3@1@IIIAEBVPxPlane@1@PEAUEdgeTriLookup@1@I@Z 0000000180057cc0     TriangleMeshBuilder.obj
 0004:00000ccc       $pdata$?importMesh@TriangleMeshBuilder@physx@@IEAA_NAEBVPxTriangleMeshDesc@2@AEBUPxCookingParams@2@PEAW4Enum@PxTriangleMeshCookingResult@2@_N@Z 0000000180057ccc     TriangleMeshBuilder.obj
 0004:00000cd8       $pdata$?loadFromDesc@TriangleMeshBuilder@physx@@QEAA_NAEBVPxTriangleMeshDesc@2@PEAW4Enum@PxTriangleMeshCookingResult@2@_N@Z 0000000180057cd8     TriangleMeshBuilder.obj
 0004:00000ce4       $pdata$0$?loadFromDesc@TriangleMeshBuilder@physx@@QEAA_NAEBVPxTriangleMeshDesc@2@PEAW4Enum@PxTriangleMeshCookingResult@2@_N@Z 0000000180057ce4     TriangleMeshBuilder.obj
 0004:00000cf0       $pdata$1$?loadFromDesc@TriangleMeshBuilder@physx@@QEAA_NAEBVPxTriangleMeshDesc@2@PEAW4Enum@PxTriangleMeshCookingResult@2@_N@Z 0000000180057cf0     TriangleMeshBuilder.obj
 0004:00000cfc       $pdata$2$?loadFromDesc@TriangleMeshBuilder@physx@@QEAA_NAEBVPxTriangleMeshDesc@2@PEAW4Enum@PxTriangleMeshCookingResult@2@_N@Z 0000000180057cfc     TriangleMeshBuilder.obj
 0004:00000d08       $pdata$3$?loadFromDesc@TriangleMeshBuilder@physx@@QEAA_NAEBVPxTriangleMeshDesc@2@PEAW4Enum@PxTriangleMeshCookingResult@2@_N@Z 0000000180057d08     TriangleMeshBuilder.obj
 0004:00000d14       $pdata$4$?loadFromDesc@TriangleMeshBuilder@physx@@QEAA_NAEBVPxTriangleMeshDesc@2@PEAW4Enum@PxTriangleMeshCookingResult@2@_N@Z 0000000180057d14     TriangleMeshBuilder.obj
 0004:00000d20       $pdata$6$?loadFromDesc@TriangleMeshBuilder@physx@@QEAA_NAEBVPxTriangleMeshDesc@2@PEAW4Enum@PxTriangleMeshCookingResult@2@_N@Z 0000000180057d20     TriangleMeshBuilder.obj
 0004:00000d2c       $pdata$7$?loadFromDesc@TriangleMeshBuilder@physx@@QEAA_NAEBVPxTriangleMeshDesc@2@PEAW4Enum@PxTriangleMeshCookingResult@2@_N@Z 0000000180057d2c     TriangleMeshBuilder.obj
 0004:00000d38       $pdata$?recordTriangleIndices@TriangleMeshBuilder@physx@@QEAAXXZ 0000000180057d38     TriangleMeshBuilder.obj
 0004:00000d44       $pdata$0$?recordTriangleIndices@TriangleMeshBuilder@physx@@QEAAXXZ 0000000180057d44     TriangleMeshBuilder.obj
 0004:00000d50       $pdata$1$?recordTriangleIndices@TriangleMeshBuilder@physx@@QEAAXXZ 0000000180057d50     TriangleMeshBuilder.obj
 0004:00000d5c       $pdata$2$?recordTriangleIndices@TriangleMeshBuilder@physx@@QEAAXXZ 0000000180057d5c     TriangleMeshBuilder.obj
 0004:00000d68       $pdata$3$?recordTriangleIndices@TriangleMeshBuilder@physx@@QEAAXXZ 0000000180057d68     TriangleMeshBuilder.obj
 0004:00000d74       $pdata$?remapTopology@TriangleMeshBuilder@physx@@QEAAXPEBI@Z 0000000180057d74     TriangleMeshBuilder.obj
 0004:00000d80       $pdata$4$?remapTopology@TriangleMeshBuilder@physx@@QEAAXPEBI@Z 0000000180057d80     TriangleMeshBuilder.obj
 0004:00000d8c       $pdata$5$?remapTopology@TriangleMeshBuilder@physx@@QEAAXPEBI@Z 0000000180057d8c     TriangleMeshBuilder.obj
 0004:00000d98       $pdata$6$?remapTopology@TriangleMeshBuilder@physx@@QEAAXPEBI@Z 0000000180057d98     TriangleMeshBuilder.obj
 0004:00000da4       $pdata$?save@TriangleMeshBuilder@physx@@QEBA_NAEAVPxOutputStream@2@_NAEBUPxCookingParams@2@@Z 0000000180057da4     TriangleMeshBuilder.obj
 0004:00000db0       $pdata$3$?save@TriangleMeshBuilder@physx@@QEBA_NAEAVPxOutputStream@2@_NAEBUPxCookingParams@2@@Z 0000000180057db0     TriangleMeshBuilder.obj
 0004:00000dbc       $pdata$4$?save@TriangleMeshBuilder@physx@@QEBA_NAEAVPxOutputStream@2@_NAEBUPxCookingParams@2@@Z 0000000180057dbc     TriangleMeshBuilder.obj
 0004:00000dc8       $pdata$?saveMidPhaseStructure@BV32TriangleMeshBuilder@physx@@SAXPEAVBV32Tree@Gu@2@AEAVPxOutputStream@2@_N@Z 0000000180057dc8     TriangleMeshBuilder.obj
 0004:00000dd4       $pdata$1$?saveMidPhaseStructure@BV32TriangleMeshBuilder@physx@@SAXPEAVBV32Tree@Gu@2@AEAVPxOutputStream@2@_N@Z 0000000180057dd4     TriangleMeshBuilder.obj
 0004:00000de0       $pdata$2$?saveMidPhaseStructure@BV32TriangleMeshBuilder@physx@@SAXPEAVBV32Tree@Gu@2@AEAVPxOutputStream@2@_N@Z 0000000180057de0     TriangleMeshBuilder.obj
 0004:00000dec       $pdata$?saveMidPhaseStructure@BV4TriangleMeshBuilder@physx@@UEBAXAEAVPxOutputStream@2@_N@Z 0000000180057dec     TriangleMeshBuilder.obj
 0004:00000df8       $pdata$?saveMidPhaseStructure@RTreeTriangleMeshBuilder@physx@@UEBAXAEAVPxOutputStream@2@_N@Z 0000000180057df8     TriangleMeshBuilder.obj
 0004:00000e04       $pdata$0$?saveMidPhaseStructure@RTreeTriangleMeshBuilder@physx@@UEBAXAEAVPxOutputStream@2@_N@Z 0000000180057e04     TriangleMeshBuilder.obj
 0004:00000e10       $pdata$1$?saveMidPhaseStructure@RTreeTriangleMeshBuilder@physx@@UEBAXAEAVPxOutputStream@2@_N@Z 0000000180057e10     TriangleMeshBuilder.obj
 0004:00000e1c       $pdata$?computeValencies@BigConvexDataBuilder@physx@@QEAA_NAEBVConvexHullBuilder@2@@Z 0000000180057e1c     BigConvexDataBuilder.obj
 0004:00000e28       $pdata$2$?computeValencies@BigConvexDataBuilder@physx@@QEAA_NAEBVConvexHullBuilder@2@@Z 0000000180057e28     BigConvexDataBuilder.obj
 0004:00000e34       $pdata$3$?computeValencies@BigConvexDataBuilder@physx@@QEAA_NAEBVConvexHullBuilder@2@@Z 0000000180057e34     BigConvexDataBuilder.obj
 0004:00000e40       $pdata$?initialize@BigConvexDataBuilder@physx@@QEAA_NXZ 0000000180057e40     BigConvexDataBuilder.obj
 0004:00000e4c       $pdata$0$?initialize@BigConvexDataBuilder@physx@@QEAA_NXZ 0000000180057e4c     BigConvexDataBuilder.obj
 0004:00000e58       $pdata$1$?initialize@BigConvexDataBuilder@physx@@QEAA_NXZ 0000000180057e58     BigConvexDataBuilder.obj
 0004:00000e64       $pdata$?precompute@BigConvexDataBuilder@physx@@QEAA_NI@Z 0000000180057e64     BigConvexDataBuilder.obj
 0004:00000e70       $pdata$12$?precompute@BigConvexDataBuilder@physx@@QEAA_NI@Z 0000000180057e70     BigConvexDataBuilder.obj
 0004:00000e7c       $pdata$13$?precompute@BigConvexDataBuilder@physx@@QEAA_NI@Z 0000000180057e7c     BigConvexDataBuilder.obj
 0004:00000e88       $pdata$?save@BigConvexDataBuilder@physx@@QEBA_NAEAVPxOutputStream@2@_N@Z 0000000180057e88     BigConvexDataBuilder.obj
 0004:00000e94       $pdata$?saveValencies@BigConvexDataBuilder@physx@@QEBA_NAEAVPxOutputStream@2@_N@Z 0000000180057e94     BigConvexDataBuilder.obj
 0004:00000ea0       $pdata$1$?saveValencies@BigConvexDataBuilder@physx@@QEBA_NAEAVPxOutputStream@2@_N@Z 0000000180057ea0     BigConvexDataBuilder.obj
 0004:00000eac       $pdata$2$?saveValencies@BigConvexDataBuilder@physx@@QEBA_NAEAVPxOutputStream@2@_N@Z 0000000180057eac     BigConvexDataBuilder.obj
 0004:00000eb8       $pdata$3$?saveValencies@BigConvexDataBuilder@physx@@QEBA_NAEAVPxOutputStream@2@_N@Z 0000000180057eb8     BigConvexDataBuilder.obj
 0004:00000ec4       $pdata$4$?saveValencies@BigConvexDataBuilder@physx@@QEBA_NAEAVPxOutputStream@2@_N@Z 0000000180057ec4     BigConvexDataBuilder.obj
 0004:00000ed0       $pdata$??1ConvexHullBuilder@physx@@QEAA@XZ 0000000180057ed0     ConvexHullBuilder.obj
 0004:00000edc       $pdata$?calculateVertexMapTable@ConvexHullBuilder@physx@@QEAA_NI_N@Z 0000000180057edc     ConvexHullBuilder.obj
 0004:00000ee8       $pdata$2$?calculateVertexMapTable@ConvexHullBuilder@physx@@QEAA_NI_N@Z 0000000180057ee8     ConvexHullBuilder.obj
 0004:00000ef4       $pdata$3$?calculateVertexMapTable@ConvexHullBuilder@physx@@QEAA_NI_N@Z 0000000180057ef4     ConvexHullBuilder.obj
 0004:00000f00       $pdata$?checkHullPolygons@ConvexHullBuilder@physx@@QEBA_NXZ 0000000180057f00     ConvexHullBuilder.obj
 0004:00000f0c       $pdata$11$?checkHullPolygons@ConvexHullBuilder@physx@@QEBA_NXZ 0000000180057f0c     ConvexHullBuilder.obj
 0004:00000f18       $pdata$12$?checkHullPolygons@ConvexHullBuilder@physx@@QEBA_NXZ 0000000180057f18     ConvexHullBuilder.obj
 0004:00000f24       $pdata$?computeGeomCenter@ConvexHullBuilder@physx@@IEBA_NAEAVPxVec3@2@IPEAUHullTriangleData@2@@Z 0000000180057f24     ConvexHullBuilder.obj
 0004:00000f30       $pdata$0$?computeGeomCenter@ConvexHullBuilder@physx@@IEBA_NAEAVPxVec3@2@IPEAUHullTriangleData@2@@Z 0000000180057f30     ConvexHullBuilder.obj
 0004:00000f3c       $pdata$7$?computeGeomCenter@ConvexHullBuilder@physx@@IEBA_NAEAVPxVec3@2@IPEAUHullTriangleData@2@@Z 0000000180057f3c     ConvexHullBuilder.obj
 0004:00000f48       $pdata$8$?computeGeomCenter@ConvexHullBuilder@physx@@IEBA_NAEAVPxVec3@2@IPEAUHullTriangleData@2@@Z 0000000180057f48     ConvexHullBuilder.obj
 0004:00000f54       $pdata$9$?computeGeomCenter@ConvexHullBuilder@physx@@IEBA_NAEAVPxVec3@2@IPEAUHullTriangleData@2@@Z 0000000180057f54     ConvexHullBuilder.obj
 0004:00000f60       $pdata$?copy@ConvexHullBuilder@physx@@QEAA_NAEAUConvexHullData@Gu@2@AEAI@Z 0000000180057f60     ConvexHullBuilder.obj
 0004:00000f6c       $pdata$?createEdgeList@ConvexHullBuilder@physx@@QEAA_N_NI@Z 0000000180057f6c     ConvexHullBuilder.obj
 0004:00000f78       $pdata$5$?createEdgeList@ConvexHullBuilder@physx@@QEAA_N_NI@Z 0000000180057f78     ConvexHullBuilder.obj
 0004:00000f84       $pdata$7$?createEdgeList@ConvexHullBuilder@physx@@QEAA_N_NI@Z 0000000180057f84     ConvexHullBuilder.obj
 0004:00000f90       $pdata$?init@ConvexHullBuilder@physx@@QEAA_NIPEBVPxVec3@2@PEBIIIPEBUPxHullPolygon@2@_NPEAVConvexHullLib@2@@Z 0000000180057f90     ConvexHullBuilder.obj
 0004:00000f9c       $pdata$0$?init@ConvexHullBuilder@physx@@QEAA_NIPEBVPxVec3@2@PEBIIIPEBUPxHullPolygon@2@_NPEAVConvexHullLib@2@@Z 0000000180057f9c     ConvexHullBuilder.obj
 0004:00000fa8       $pdata$1$?init@ConvexHullBuilder@physx@@QEAA_NIPEBVPxVec3@2@PEBIIIPEBUPxHullPolygon@2@_NPEAVConvexHullLib@2@@Z 0000000180057fa8     ConvexHullBuilder.obj
 0004:00000fb4       $pdata$2$?init@ConvexHullBuilder@physx@@QEAA_NIPEBVPxVec3@2@PEBIIIPEBUPxHullPolygon@2@_NPEAVConvexHullLib@2@@Z 0000000180057fb4     ConvexHullBuilder.obj
 0004:00000fc0       $pdata$4$?init@ConvexHullBuilder@physx@@QEAA_NIPEBVPxVec3@2@PEBIIIPEBUPxHullPolygon@2@_NPEAVConvexHullLib@2@@Z 0000000180057fc0     ConvexHullBuilder.obj
 0004:00000fcc       $pdata$5$?init@ConvexHullBuilder@physx@@QEAA_NIPEBVPxVec3@2@PEBIIIPEBUPxHullPolygon@2@_NPEAVConvexHullLib@2@@Z 0000000180057fcc     ConvexHullBuilder.obj
 0004:00000fd8       $pdata$6$?init@ConvexHullBuilder@physx@@QEAA_NIPEBVPxVec3@2@PEBIIIPEBUPxHullPolygon@2@_NPEAVConvexHullLib@2@@Z 0000000180057fd8     ConvexHullBuilder.obj
 0004:00000fe4       $pdata$?save@ConvexHullBuilder@physx@@QEBA_NAEAVPxOutputStream@2@_N@Z 0000000180057fe4     ConvexHullBuilder.obj
 0004:00000ff0       $pdata$0$?save@ConvexHullBuilder@physx@@QEBA_NAEAVPxOutputStream@2@_N@Z 0000000180057ff0     ConvexHullBuilder.obj
 0004:00000ffc       $pdata$3$?save@ConvexHullBuilder@physx@@QEBA_NAEAVPxOutputStream@2@_N@Z 0000000180057ffc     ConvexHullBuilder.obj
 0004:00001008       $pdata$4$?save@ConvexHullBuilder@physx@@QEBA_NAEAVPxOutputStream@2@_N@Z 0000000180058008     ConvexHullBuilder.obj
 0004:00001014       $pdata$5$?save@ConvexHullBuilder@physx@@QEBA_NAEAVPxOutputStream@2@_N@Z 0000000180058014     ConvexHullBuilder.obj
 0004:00001020       $pdata$??1ConvexHullLib@physx@@UEAA@XZ 0000000180058020     ConvexHullLib.obj
 0004:0000102c       $pdata$??_GConvexHullLib@physx@@UEAAPEAXI@Z 000000018005802c     ConvexHullLib.obj
 0004:00001038       $pdata$?checkPointsAABBValidity@local@@YA_NIPEBVPxVec3@physx@@IMMAEAV23@1AEAIPEAV23@_N@Z 0000000180058038     ConvexHullLib.obj
 0004:00001044       $pdata$2$?checkPointsAABBValidity@local@@YA_NIPEBVPxVec3@physx@@IMMAEAV23@1AEAIPEAV23@_N@Z 0000000180058044     ConvexHullLib.obj
 0004:00001050       $pdata$3$?checkPointsAABBValidity@local@@YA_NIPEBVPxVec3@physx@@IMMAEAV23@1AEAIPEAV23@_N@Z 0000000180058050     ConvexHullLib.obj
 0004:0000105c       $pdata$4$?checkPointsAABBValidity@local@@YA_NIPEBVPxVec3@physx@@IMMAEAV23@1AEAIPEAV23@_N@Z 000000018005805c     ConvexHullLib.obj
 0004:00001068       $pdata$5$?checkPointsAABBValidity@local@@YA_NIPEBVPxVec3@physx@@IMMAEAV23@1AEAIPEAV23@_N@Z 0000000180058068     ConvexHullLib.obj
 0004:00001074       $pdata$?cleanupVertices@ConvexHullLib@physx@@IEAA_NIPEBVPxVec3@2@IAEAIPEAV32@AEAV32@3@Z 0000000180058074     ConvexHullLib.obj
 0004:00001080       $pdata$8$?cleanupVertices@ConvexHullLib@physx@@IEAA_NIPEBVPxVec3@2@IAEAIPEAV32@AEAV32@3@Z 0000000180058080     ConvexHullLib.obj
 0004:0000108c       $pdata$13$?cleanupVertices@ConvexHullLib@physx@@IEAA_NIPEBVPxVec3@2@IAEAIPEAV32@AEAV32@3@Z 000000018005808c     ConvexHullLib.obj
 0004:00001098       $pdata$14$?cleanupVertices@ConvexHullLib@physx@@IEAA_NIPEBVPxVec3@2@IAEAIPEAV32@AEAV32@3@Z 0000000180058098     ConvexHullLib.obj
 0004:000010a4       $pdata$15$?cleanupVertices@ConvexHullLib@physx@@IEAA_NIPEBVPxVec3@2@IAEAIPEAV32@AEAV32@3@Z 00000001800580a4     ConvexHullLib.obj
 0004:000010b0       $pdata$?shiftAndcleanupVertices@ConvexHullLib@physx@@IEAA_NIPEBVPxVec3@2@IAEAIPEAV32@AEAV32@3@Z 00000001800580b0     ConvexHullLib.obj
 0004:000010bc       $pdata$5$?shiftAndcleanupVertices@ConvexHullLib@physx@@IEAA_NIPEBVPxVec3@2@IAEAIPEAV32@AEAV32@3@Z 00000001800580bc     ConvexHullLib.obj
 0004:000010c8       $pdata$6$?shiftAndcleanupVertices@ConvexHullLib@physx@@IEAA_NIPEBVPxVec3@2@IAEAIPEAV32@AEAV32@3@Z 00000001800580c8     ConvexHullLib.obj
 0004:000010d4       $pdata$8$?shiftAndcleanupVertices@ConvexHullLib@physx@@IEAA_NIPEBVPxVec3@2@IAEAIPEAV32@AEAV32@3@Z 00000001800580d4     ConvexHullLib.obj
 0004:000010e0       $pdata$9$?shiftAndcleanupVertices@ConvexHullLib@physx@@IEAA_NIPEBVPxVec3@2@IAEAIPEAV32@AEAV32@3@Z 00000001800580e0     ConvexHullLib.obj
 0004:000010ec       $pdata$10$?shiftAndcleanupVertices@ConvexHullLib@physx@@IEAA_NIPEBVPxVec3@2@IAEAIPEAV32@AEAV32@3@Z 00000001800580ec     ConvexHullLib.obj
 0004:000010f8       $pdata$?swapLargestFace@ConvexHullLib@physx@@IEAAXAEAVPxConvexMeshDesc@2@@Z 00000001800580f8     ConvexHullLib.obj
 0004:00001104       $pdata$2$?swapLargestFace@ConvexHullLib@physx@@IEAAXAEAVPxConvexMeshDesc@2@@Z 0000000180058104     ConvexHullLib.obj
 0004:00001110       $pdata$3$?swapLargestFace@ConvexHullLib@physx@@IEAAXAEAVPxConvexMeshDesc@2@@Z 0000000180058110     ConvexHullLib.obj
 0004:0000111c       $pdata$??0ConvexHull@physx@@QEAA@AEBVPxVec3@1@AEBVPxTransform@1@AEBV?$Array@VPxPlane@physx@@V?$ReflectionAllocator@VPxPlane@physx@@@shdfnd@2@@shdfnd@1@@Z 000000018005811c     ConvexHullUtils.obj
 0004:00001128       $pdata$??0PxQuat@physx@@QEAA@AEBVPxMat33@1@@Z 0000000180058128     ConvexHullUtils.obj
 0004:00001134       $pdata$?allocate@?$ReflectionAllocator@VHalfEdge@ConvexHull@physx@@@shdfnd@physx@@QEAAPEAX_KPEBDH@Z 0000000180058134     ConvexHullUtils.obj
 0004:00001140       $pdata$0$?allocate@?$ReflectionAllocator@VHalfEdge@ConvexHull@physx@@@shdfnd@physx@@QEAAPEAX_KPEBDH@Z 0000000180058140     ConvexHullUtils.obj
 0004:0000114c       $pdata$1$?allocate@?$ReflectionAllocator@VHalfEdge@ConvexHull@physx@@@shdfnd@physx@@QEAAPEAX_KPEBDH@Z 000000018005814c     ConvexHullUtils.obj
 0004:00001158       $pdata$?allocate@?$ReflectionAllocator@VPxPlane@physx@@@shdfnd@physx@@QEAAPEAX_KPEBDH@Z 0000000180058158     ConvexHullUtils.obj
 0004:00001164       $pdata$0$?allocate@?$ReflectionAllocator@VPxPlane@physx@@@shdfnd@physx@@QEAAPEAX_KPEBDH@Z 0000000180058164     ConvexHullUtils.obj
 0004:00001170       $pdata$1$?allocate@?$ReflectionAllocator@VPxPlane@physx@@@shdfnd@physx@@QEAAPEAX_KPEBDH@Z 0000000180058170     ConvexHullUtils.obj
 0004:0000117c       $pdata$?assertIntact@ConvexHull@physx@@QEBA_NM@Z 000000018005817c     ConvexHullUtils.obj
 0004:00001188       $pdata$8$?assertIntact@ConvexHull@physx@@QEBA_NM@Z 0000000180058188     ConvexHullUtils.obj
 0004:00001194       $pdata$9$?assertIntact@ConvexHull@physx@@QEBA_NM@Z 0000000180058194     ConvexHullUtils.obj
 0004:000011a0       $pdata$10$?assertIntact@ConvexHull@physx@@QEBA_NM@Z 00000001800581a0     ConvexHullUtils.obj
 0004:000011ac       $pdata$?computeAABBExtent@Box@Gu@physx@@QEBA?AVPxVec3@3@XZ 00000001800581ac     ConvexHullUtils.obj
 0004:000011b8       $pdata$?computeBoxPoints@Box@Gu@physx@@QEBAXPEIAVPxVec3@3@@Z 00000001800581b8     ConvexHullUtils.obj
 0004:000011c4       $pdata$?computeOBBFromConvex@physx@@YA_NAEBVPxConvexMeshDesc@1@AEAVPxVec3@1@AEAVPxTransform@1@@Z 00000001800581c4     ConvexHullUtils.obj
 0004:000011d0       $pdata$6$?computeOBBFromConvex@physx@@YA_NAEBVPxConvexMeshDesc@1@AEAVPxVec3@1@AEAVPxTransform@1@@Z 00000001800581d0     ConvexHullUtils.obj
 0004:000011dc       $pdata$7$?computeOBBFromConvex@physx@@YA_NAEBVPxConvexMeshDesc@1@AEAVPxVec3@1@AEAVPxTransform@1@@Z 00000001800581dc     ConvexHullUtils.obj
 0004:000011e8       $pdata$?computeOBBSIMD@local@@YAXIPEBT__m128@@AEAT2@AEBT2@1@Z 00000001800581e8     ConvexHullUtils.obj
 0004:000011f4       $pdata$5$?computeOBBSIMD@local@@YAXIPEBT__m128@@AEAT2@AEBT2@1@Z 00000001800581f4     ConvexHullUtils.obj
 0004:00001200       $pdata$6$?computeOBBSIMD@local@@YAXIPEBT__m128@@AEAT2@AEBT2@1@Z 0000000180058200     ConvexHullUtils.obj
 0004:0000120c       $pdata$?convexHullCrop@physx@@YAPEAVConvexHull@1@AEBV21@AEBVPxPlane@1@M@Z 000000018005820c     ConvexHullUtils.obj
 0004:00001218       $pdata$6$?convexHullCrop@physx@@YAPEAVConvexHull@1@AEBV21@AEBVPxPlane@1@M@Z 0000000180058218     ConvexHullUtils.obj
 0004:00001224       $pdata$7$?convexHullCrop@physx@@YAPEAVConvexHull@1@AEBV21@AEBVPxPlane@1@M@Z 0000000180058224     ConvexHullUtils.obj
 0004:00001230       $pdata$8$?convexHullCrop@physx@@YAPEAVConvexHull@1@AEBV21@AEBVPxPlane@1@M@Z 0000000180058230     ConvexHullUtils.obj
 0004:0000123c       $pdata$9$?convexHullCrop@physx@@YAPEAVConvexHull@1@AEBV21@AEBVPxPlane@1@M@Z 000000018005823c     ConvexHullUtils.obj
 0004:00001248       $pdata$11$?convexHullCrop@physx@@YAPEAVConvexHull@1@AEBV21@AEBVPxPlane@1@M@Z 0000000180058248     ConvexHullUtils.obj
 0004:00001254       $pdata$12$?convexHullCrop@physx@@YAPEAVConvexHull@1@AEBV21@AEBVPxPlane@1@M@Z 0000000180058254     ConvexHullUtils.obj
 0004:00001260       $pdata$13$?convexHullCrop@physx@@YAPEAVConvexHull@1@AEBV21@AEBVPxPlane@1@M@Z 0000000180058260     ConvexHullUtils.obj
 0004:0000126c       $pdata$?copy@?$Array@VPxPlane@physx@@V?$ReflectionAllocator@VPxPlane@physx@@@shdfnd@2@@shdfnd@physx@@KAXPEAVPxPlane@3@0PEBV43@@Z 000000018005826c     ConvexHullUtils.obj
 0004:00001278       $pdata$0$?copy@?$Array@VPxPlane@physx@@V?$ReflectionAllocator@VPxPlane@physx@@@shdfnd@2@@shdfnd@physx@@KAXPEAVPxPlane@3@0PEBV43@@Z 0000000180058278     ConvexHullUtils.obj
 0004:00001284       $pdata$1$?copy@?$Array@VPxPlane@physx@@V?$ReflectionAllocator@VPxPlane@physx@@@shdfnd@2@@shdfnd@physx@@KAXPEAVPxPlane@3@0PEBV43@@Z 0000000180058284     ConvexHullUtils.obj
 0004:00001290       $pdata$?copyHull@ConvexHull@physx@@QEAAXAEBV12@@Z 0000000180058290     ConvexHullUtils.obj
 0004:0000129c       $pdata$?findCandidatePlane@ConvexHull@physx@@QEBAHMM@Z 000000018005829c     ConvexHullUtils.obj
 0004:000012a8       $pdata$7$?findCandidatePlane@ConvexHull@physx@@QEBAHMM@Z 00000001800582a8     ConvexHullUtils.obj
 0004:000012b4       $pdata$8$?findCandidatePlane@ConvexHull@physx@@QEBAHMM@Z 00000001800582b4     ConvexHullUtils.obj
 0004:000012c0       $pdata$?getInverse@PxMat33@physx@@QEBA?BV12@XZ 00000001800582c0     ConvexHullUtils.obj
 0004:000012cc       $pdata$5$?getInverse@PxMat33@physx@@QEBA?BV12@XZ 00000001800582cc     ConvexHullUtils.obj
 0004:000012d8       $pdata$6$?getInverse@PxMat33@physx@@QEBA?BV12@XZ 00000001800582d8     ConvexHullUtils.obj
 0004:000012e4       $pdata$?getTransform@Box@Gu@physx@@QEBA?AVPxTransform@3@XZ 00000001800582e4     ConvexHullUtils.obj
 0004:000012f0       $pdata$?growAndPushBack@?$Array@VHalfEdge@ConvexHull@physx@@V?$ReflectionAllocator@VHalfEdge@ConvexHull@physx@@@shdfnd@3@@shdfnd@physx@@IEAAAEAVHalfEdge@ConvexHull@3@AEBV453@@Z 00000001800582f0     ConvexHullUtils.obj
 0004:000012fc       $pdata$?growAndPushBack@?$Array@VPxPlane@physx@@V?$ReflectionAllocator@VPxPlane@physx@@@shdfnd@2@@shdfnd@physx@@IEAAAEAVPxPlane@3@AEBV43@@Z 00000001800582fc     ConvexHullUtils.obj
 0004:00001308       $pdata$?maxNumVertsPerFace@ConvexHull@physx@@QEBAIXZ 0000000180058308     ConvexHullUtils.obj
 0004:00001314       $pdata$0$?maxNumVertsPerFace@ConvexHull@physx@@QEBAIXZ 0000000180058314     ConvexHullUtils.obj
 0004:00001320       $pdata$1$?maxNumVertsPerFace@ConvexHull@physx@@QEBAIXZ 0000000180058320     ConvexHullUtils.obj
 0004:0000132c       $pdata$?recreate@?$Array@VHalfEdge@ConvexHull@physx@@V?$ReflectionAllocator@VHalfEdge@ConvexHull@physx@@@shdfnd@3@@shdfnd@physx@@IEAAXI@Z 000000018005832c     ConvexHullUtils.obj
 0004:00001338       $pdata$?recreate@?$Array@VPxPlane@physx@@V?$ReflectionAllocator@VPxPlane@physx@@@shdfnd@2@@shdfnd@physx@@IEAAXI@Z 0000000180058338     ConvexHullUtils.obj
 0004:00001344       $pdata$?resize@?$Array@VHalfEdge@ConvexHull@physx@@V?$ReflectionAllocator@VHalfEdge@ConvexHull@physx@@@shdfnd@3@@shdfnd@physx@@QEAAXIAEBVHalfEdge@ConvexHull@3@@Z 0000000180058344     ConvexHullUtils.obj
 0004:00001350       $pdata$?resize@?$Array@VPxPlane@physx@@V?$ReflectionAllocator@VPxPlane@physx@@@shdfnd@2@@shdfnd@physx@@QEAAXIAEBVPxPlane@3@@Z 0000000180058350     ConvexHullUtils.obj
 0004:0000135c       $pdata$?resize@?$Array@VPxVec3@physx@@V?$ReflectionAllocator@VPxVec3@physx@@@shdfnd@2@@shdfnd@physx@@QEAAXIAEBVPxVec3@3@@Z 000000018005835c     ConvexHullUtils.obj
 0004:00001368       $pdata$?rotate@Box@Gu@physx@@QEBA?AVPxVec3@3@AEBV43@@Z 0000000180058368     ConvexHullUtils.obj
 0004:00001374       $pdata$?rotateInv@Box@Gu@physx@@QEBA?AVPxVec3@3@AEBV43@@Z 0000000180058374     ConvexHullUtils.obj
 0004:00001380       $pdata$?transform@Box@Gu@physx@@QEBA?AVPxVec3@3@AEBV43@@Z 0000000180058380     ConvexHullUtils.obj
 0004:0000138c       $pdata$??0ConvexMeshBuilder@physx@@QEAA@_N@Z 000000018005838c     ConvexMeshBuilder.obj
 0004:00001398       $pdata$??1ConvexMeshBuilder@physx@@QEAA@XZ 0000000180058398     ConvexMeshBuilder.obj
 0004:000013a4       $pdata$?ComputeInternalExtent@@YAXAEAUConvexHullData@Gu@physx@@PEBUHullPolygonData@23@@Z 00000001800583a4     ConvexMeshBuilder.obj
 0004:000013b0       $pdata$0$?ComputeInternalExtent@@YAXAEAUConvexHullData@Gu@physx@@PEBUHullPolygonData@23@@Z 00000001800583b0     ConvexMeshBuilder.obj
 0004:000013bc       $pdata$1$?ComputeInternalExtent@@YAXAEAUConvexHullData@Gu@physx@@PEBUHullPolygonData@23@@Z 00000001800583bc     ConvexMeshBuilder.obj
 0004:000013c8       $pdata$2$?ComputeInternalExtent@@YAXAEAUConvexHullData@Gu@physx@@PEBUHullPolygonData@23@@Z 00000001800583c8     ConvexMeshBuilder.obj
 0004:000013d4       $pdata$3$?ComputeInternalExtent@@YAXAEAUConvexHullData@Gu@physx@@PEBUHullPolygonData@23@@Z 00000001800583d4     ConvexMeshBuilder.obj
 0004:000013e0       $pdata$4$?ComputeInternalExtent@@YAXAEAUConvexHullData@Gu@physx@@PEBUHullPolygonData@23@@Z 00000001800583e0     ConvexMeshBuilder.obj
 0004:000013ec       $pdata$?build@ConvexMeshBuilder@physx@@QEAA_NAEBVPxConvexMeshDesc@2@I_NPEAVConvexHullLib@2@@Z 00000001800583ec     ConvexMeshBuilder.obj
 0004:000013f8       $pdata$3$?build@ConvexMeshBuilder@physx@@QEAA_NAEBVPxConvexMeshDesc@2@I_NPEAVConvexHullLib@2@@Z 00000001800583f8     ConvexMeshBuilder.obj
 0004:00001404       $pdata$4$?build@ConvexMeshBuilder@physx@@QEAA_NAEBVPxConvexMeshDesc@2@I_NPEAVConvexHullLib@2@@Z 0000000180058404     ConvexMeshBuilder.obj
 0004:00001410       $pdata$?computeGaussMaps@ConvexMeshBuilder@physx@@QEAA_NXZ 0000000180058410     ConvexMeshBuilder.obj
 0004:0000141c       $pdata$?computeHullPolygons@ConvexMeshBuilder@physx@@QEAA_NAEBIPEBVPxVec3@2@0PEBIAEAVPxAllocatorCallback@2@AEAIAEAPEAV32@4AEAPEAI4AEAPEAUPxHullPolygon@2@@Z 000000018005841c     ConvexMeshBuilder.obj
 0004:00001428       $pdata$3$?computeHullPolygons@ConvexMeshBuilder@physx@@QEAA_NAEBIPEBVPxVec3@2@0PEBIAEAVPxAllocatorCallback@2@AEAIAEAPEAV32@4AEAPEAI4AEAPEAUPxHullPolygon@2@@Z 0000000180058428     ConvexMeshBuilder.obj
 0004:00001434       $pdata$4$?computeHullPolygons@ConvexMeshBuilder@physx@@QEAA_NAEBIPEBVPxVec3@2@0PEBIAEAVPxAllocatorCallback@2@AEAIAEAPEAV32@4AEAPEAI4AEAPEAUPxHullPolygon@2@@Z 0000000180058434     ConvexMeshBuilder.obj
 0004:00001440       $pdata$?computeMassInfo@ConvexMeshBuilder@physx@@QEAAX_N@Z 0000000180058440     ConvexMeshBuilder.obj
 0004:0000144c       $pdata$1$?computeMassInfo@ConvexMeshBuilder@physx@@QEAAX_N@Z 000000018005844c     ConvexMeshBuilder.obj
 0004:00001458       $pdata$2$?computeMassInfo@ConvexMeshBuilder@physx@@QEAAX_N@Z 0000000180058458     ConvexMeshBuilder.obj
 0004:00001464       $pdata$6$?computeMassInfo@ConvexMeshBuilder@physx@@QEAAX_N@Z 0000000180058464     ConvexMeshBuilder.obj
 0004:00001470       $pdata$7$?computeMassInfo@ConvexMeshBuilder@physx@@QEAAX_N@Z 0000000180058470     ConvexMeshBuilder.obj
 0004:0000147c       $pdata$8$?computeMassInfo@ConvexMeshBuilder@physx@@QEAAX_N@Z 000000018005847c     ConvexMeshBuilder.obj
 0004:00001488       $pdata$9$?computeMassInfo@ConvexMeshBuilder@physx@@QEAAX_N@Z 0000000180058488     ConvexMeshBuilder.obj
 0004:00001494       $pdata$?copy@ConvexMeshBuilder@physx@@QEAA_NAEAUConvexHullInitData@Gu@2@@Z 0000000180058494     ConvexMeshBuilder.obj
 0004:000014a0       $pdata$?isFinite@PxVec3@physx@@QEBA_NXZ 00000001800584a0     ConvexMeshBuilder.obj
 0004:000014ac       $pdata$?loadConvexHull@ConvexMeshBuilder@physx@@QEAA_NAEBVPxConvexMeshDesc@2@PEAVConvexHullLib@2@@Z 00000001800584ac     ConvexMeshBuilder.obj
 0004:000014b8       $pdata$?save@ConvexMeshBuilder@physx@@QEBA_NAEAVPxOutputStream@2@_N@Z 00000001800584b8     ConvexMeshBuilder.obj
 0004:000014c4       $pdata$??$PlaneEquation@U?$TriangleT@I@Gu@physx@@@@YA?AVPxPlane@physx@@AEBU?$TriangleT@I@Gu@1@PEBVPxVec3@1@@Z 00000001800584c4     ConvexPolygonsBuilder.obj
 0004:000014d0       $pdata$??$copy@V?$ReflectionAllocator@VPair@@@shdfnd@physx@@@?$Array@VPair@@V?$ReflectionAllocator@VPair@@@shdfnd@physx@@@shdfnd@physx@@IEAAXAEBV012@@Z 00000001800584d0     ConvexPolygonsBuilder.obj
 0004:000014dc       $pdata$??0ConvexPolygonsBuilder@physx@@QEAA@PEAUConvexHullData@Gu@1@_N@Z 00000001800584dc     ConvexPolygonsBuilder.obj
 0004:000014e8       $pdata$??1ConvexPolygonsBuilder@physx@@QEAA@XZ 00000001800584e8     ConvexPolygonsBuilder.obj
 0004:000014f4       $pdata$?CheckFloodFill@Local@?7??extractHullPolygons@@YA_NAEAIAEAV?$Array@IV?$ReflectionAllocator@I@shdfnd@physx@@@shdfnd@physx@@AEBVConvexPolygonsBuilder@5@PEAV345@1@Z@SA_N1PEAVAdjTriangle@5@PEA_NPEBI@Z 00000001800584f4     ConvexPolygonsBuilder.obj
 0004:00001500       $pdata$?CheckFloodFillFace@Local@?7??extractHullPolygons@@YA_NAEAIAEAV?$Array@IV?$ReflectionAllocator@I@shdfnd@physx@@@shdfnd@physx@@AEBVConvexPolygonsBuilder@5@PEAV345@1@Z@SA_NIPEBVAdjTriangle@5@PEBI@Z 0000000180058500     ConvexPolygonsBuilder.obj
 0004:0000150c       $pdata$6$?CheckFloodFillFace@Local@?7??extractHullPolygons@@YA_NAEAIAEAV?$Array@IV?$ReflectionAllocator@I@shdfnd@physx@@@shdfnd@physx@@AEBVConvexPolygonsBuilder@5@PEAV345@1@Z@SA_NIPEBVAdjTriangle@5@PEBI@Z 000000018005850c     ConvexPolygonsBuilder.obj
 0004:00001518       $pdata$8$?CheckFloodFillFace@Local@?7??extractHullPolygons@@YA_NAEAIAEAV?$Array@IV?$ReflectionAllocator@I@shdfnd@physx@@@shdfnd@physx@@AEBVConvexPolygonsBuilder@5@PEAV345@1@Z@SA_NIPEBVAdjTriangle@5@PEBI@Z 0000000180058518     ConvexPolygonsBuilder.obj
 0004:00001524       $pdata$?CleanFaces@@YA_NAEAIPEAU?$TriangleT@I@Gu@physx@@0PEAVPxVec3@3@@Z 0000000180058524     ConvexPolygonsBuilder.obj
 0004:00001530       $pdata$?FloodFill@Local@?7??extractHullPolygons@@YA_NAEAIAEAV?$Array@IV?$ReflectionAllocator@I@shdfnd@physx@@@shdfnd@physx@@AEBVConvexPolygonsBuilder@5@PEAV345@1@Z@SAX1PEBVAdjTriangle@5@IPEA_N@Z 0000000180058530     ConvexPolygonsBuilder.obj
 0004:0000153c       $pdata$?GetNeighborFace@Local@?7??extractHullPolygons@@YA_NAEAIAEAV?$Array@IV?$ReflectionAllocator@I@shdfnd@physx@@@shdfnd@physx@@AEBVConvexPolygonsBuilder@5@PEAV345@1@Z@SA_NIIPEBVAdjTriangle@5@PEBI00@Z 000000018005853c     ConvexPolygonsBuilder.obj
 0004:00001548       $pdata$?TestDuplicateTriangles@@YA_NAEAIPEAU?$TriangleT@I@Gu@physx@@_N@Z 0000000180058548     ConvexPolygonsBuilder.obj
 0004:00001554       $pdata$?TestUnifiedNormals@@YA_NIPEBVPxVec3@physx@@IPEAU?$TriangleT@I@Gu@2@_N@Z 0000000180058554     ConvexPolygonsBuilder.obj
 0004:00001560       $pdata$10$?TestUnifiedNormals@@YA_NIPEBVPxVec3@physx@@IPEAU?$TriangleT@I@Gu@2@_N@Z 0000000180058560     ConvexPolygonsBuilder.obj
 0004:0000156c       $pdata$12$?TestUnifiedNormals@@YA_NIPEBVPxVec3@physx@@IPEAU?$TriangleT@I@Gu@2@_N@Z 000000018005856c     ConvexPolygonsBuilder.obj
 0004:00001578       $pdata$13$?TestUnifiedNormals@@YA_NIPEBVPxVec3@physx@@IPEAU?$TriangleT@I@Gu@2@_N@Z 0000000180058578     ConvexPolygonsBuilder.obj
 0004:00001584       $pdata$14$?TestUnifiedNormals@@YA_NIPEBVPxVec3@physx@@IPEAU?$TriangleT@I@Gu@2@_N@Z 0000000180058584     ConvexPolygonsBuilder.obj
 0004:00001590       $pdata$?allocate@?$ReflectionAllocator@VPair@@@shdfnd@physx@@QEAAPEAX_KPEBDH@Z 0000000180058590     ConvexPolygonsBuilder.obj
 0004:0000159c       $pdata$0$?allocate@?$ReflectionAllocator@VPair@@@shdfnd@physx@@QEAAPEAX_KPEBDH@Z 000000018005859c     ConvexPolygonsBuilder.obj
 0004:000015a8       $pdata$1$?allocate@?$ReflectionAllocator@VPair@@@shdfnd@physx@@QEAAPEAX_KPEBDH@Z 00000001800585a8     ConvexPolygonsBuilder.obj
 0004:000015b4       $pdata$?checkRedundantVertices@@YAXAEAIAEAV?$Array@IV?$ReflectionAllocator@I@shdfnd@physx@@@shdfnd@physx@@AEBVConvexPolygonsBuilder@3@11@Z 00000001800585b4     ConvexPolygonsBuilder.obj
 0004:000015c0       $pdata$?computeHullPolygons@ConvexPolygonsBuilder@physx@@QEAA_NAEBIPEBVPxVec3@2@0PEBI@Z 00000001800585c0     ConvexPolygonsBuilder.obj
 0004:000015cc       $pdata$?computeNewellPlane@@YA_NAEAVPxPlane@physx@@IPEBEPEBVPxVec3@2@@Z 00000001800585cc     ConvexPolygonsBuilder.obj
 0004:000015d8       $pdata$7$?computeNewellPlane@@YA_NAEAVPxPlane@physx@@IPEBEPEBVPxVec3@2@@Z 00000001800585d8     ConvexPolygonsBuilder.obj
 0004:000015e4       $pdata$10$?computeNewellPlane@@YA_NAEAVPxPlane@physx@@IPEBEPEBVPxVec3@2@@Z 00000001800585e4     ConvexPolygonsBuilder.obj
 0004:000015f0       $pdata$11$?computeNewellPlane@@YA_NAEAVPxPlane@physx@@IPEBEPEBVPxVec3@2@@Z 00000001800585f0     ConvexPolygonsBuilder.obj
 0004:000015fc       $pdata$12$?computeNewellPlane@@YA_NAEAVPxPlane@physx@@IPEBEPEBVPxVec3@2@@Z 00000001800585fc     ConvexPolygonsBuilder.obj
 0004:00001608       $pdata$13$?computeNewellPlane@@YA_NAEAVPxPlane@physx@@IPEBEPEBVPxVec3@2@@Z 0000000180058608     ConvexPolygonsBuilder.obj
 0004:00001614       $pdata$?createPolygonData@ConvexPolygonsBuilder@physx@@AEAA_NXZ 0000000180058614     ConvexPolygonsBuilder.obj
 0004:00001620       $pdata$6$?createPolygonData@ConvexPolygonsBuilder@physx@@AEAA_NXZ 0000000180058620     ConvexPolygonsBuilder.obj
 0004:0000162c       $pdata$7$?createPolygonData@ConvexPolygonsBuilder@physx@@AEAA_NXZ 000000018005862c     ConvexPolygonsBuilder.obj
 0004:00001638       $pdata$8$?createPolygonData@ConvexPolygonsBuilder@physx@@AEAA_NXZ 0000000180058638     ConvexPolygonsBuilder.obj
 0004:00001644       $pdata$?createTrianglesFromPolygons@ConvexPolygonsBuilder@physx@@AEAA_NXZ 0000000180058644     ConvexPolygonsBuilder.obj
 0004:00001650       $pdata$1$?createTrianglesFromPolygons@ConvexPolygonsBuilder@physx@@AEAA_NXZ 0000000180058650     ConvexPolygonsBuilder.obj
 0004:0000165c       $pdata$7$?createTrianglesFromPolygons@ConvexPolygonsBuilder@physx@@AEAA_NXZ 000000018005865c     ConvexPolygonsBuilder.obj
 0004:00001668       $pdata$8$?createTrianglesFromPolygons@ConvexPolygonsBuilder@physx@@AEAA_NXZ 0000000180058668     ConvexPolygonsBuilder.obj
 0004:00001674       $pdata$11$?createTrianglesFromPolygons@ConvexPolygonsBuilder@physx@@AEAA_NXZ 0000000180058674     ConvexPolygonsBuilder.obj
 0004:00001680       $pdata$12$?createTrianglesFromPolygons@ConvexPolygonsBuilder@physx@@AEAA_NXZ 0000000180058680     ConvexPolygonsBuilder.obj
 0004:0000168c       $pdata$14$?createTrianglesFromPolygons@ConvexPolygonsBuilder@physx@@AEAA_NXZ 000000018005868c     ConvexPolygonsBuilder.obj
 0004:00001698       $pdata$19$?createTrianglesFromPolygons@ConvexPolygonsBuilder@physx@@AEAA_NXZ 0000000180058698     ConvexPolygonsBuilder.obj
 0004:000016a4       $pdata$20$?createTrianglesFromPolygons@ConvexPolygonsBuilder@physx@@AEAA_NXZ 00000001800586a4     ConvexPolygonsBuilder.obj
 0004:000016b0       $pdata$21$?createTrianglesFromPolygons@ConvexPolygonsBuilder@physx@@AEAA_NXZ 00000001800586b0     ConvexPolygonsBuilder.obj
 0004:000016bc       $pdata$?extractHullPolygons@@YA_NAEAIAEAV?$Array@IV?$ReflectionAllocator@I@shdfnd@physx@@@shdfnd@physx@@AEBVConvexPolygonsBuilder@3@PEAV123@1@Z 00000001800586bc     ConvexPolygonsBuilder.obj
 0004:000016c8       $pdata$?findLineStrip@@YA_NAEAV?$Array@IV?$ReflectionAllocator@I@shdfnd@physx@@@shdfnd@physx@@AEBV?$Array@VPair@@V?$ReflectionAllocator@VPair@@@shdfnd@physx@@@23@@Z 00000001800586c8     ConvexPolygonsBuilder.obj
 0004:000016d4       $pdata$2$?findLineStrip@@YA_NAEAV?$Array@IV?$ReflectionAllocator@I@shdfnd@physx@@@shdfnd@physx@@AEBV?$Array@VPair@@V?$ReflectionAllocator@VPair@@@shdfnd@physx@@@23@@Z 00000001800586d4     ConvexPolygonsBuilder.obj
 0004:000016e0       $pdata$5$?findLineStrip@@YA_NAEAV?$Array@IV?$ReflectionAllocator@I@shdfnd@physx@@@shdfnd@physx@@AEBV?$Array@VPair@@V?$ReflectionAllocator@VPair@@@shdfnd@physx@@@23@@Z 00000001800586e0     ConvexPolygonsBuilder.obj
 0004:000016ec       $pdata$6$?findLineStrip@@YA_NAEAV?$Array@IV?$ReflectionAllocator@I@shdfnd@physx@@@shdfnd@physx@@AEBV?$Array@VPair@@V?$ReflectionAllocator@VPair@@@shdfnd@physx@@@23@@Z 00000001800586ec     ConvexPolygonsBuilder.obj
 0004:000016f8       $pdata$7$?findLineStrip@@YA_NAEAV?$Array@IV?$ReflectionAllocator@I@shdfnd@physx@@@shdfnd@physx@@AEBV?$Array@VPair@@V?$ReflectionAllocator@VPair@@@shdfnd@physx@@@23@@Z 00000001800586f8     ConvexPolygonsBuilder.obj
 0004:00001704       $pdata$?growAndPushBack@?$Array@VPair@@V?$ReflectionAllocator@VPair@@@shdfnd@physx@@@shdfnd@physx@@IEAAAEAVPair@@AEBV4@@Z 0000000180058704     ConvexPolygonsBuilder.obj
 0004:00001710       $pdata$??0QuickHullConvexHullLib@physx@@QEAA@AEBVPxConvexMeshDesc@1@AEBUPxCookingParams@1@@Z 0000000180058710     QuickHullConvexHullLib.obj
 0004:0000171c       $pdata$??1?$MemBlock@UQuickHullHalfEdge@local@@$0A@@local@@QEAA@XZ 000000018005871c     QuickHullConvexHullLib.obj
 0004:0000171c       $pdata$??1?$MemBlock@UQuickHullFace@local@@$00@local@@QEAA@XZ 000000018005871c     QuickHullConvexHullLib.obj
 0004:00001728       $pdata$0$??1?$MemBlock@UQuickHullFace@local@@$00@local@@QEAA@XZ 0000000180058728     QuickHullConvexHullLib.obj
 0004:00001728       $pdata$0$??1?$MemBlock@UQuickHullHalfEdge@local@@$0A@@local@@QEAA@XZ 0000000180058728     QuickHullConvexHullLib.obj
 0004:00001734       $pdata$1$??1?$MemBlock@UQuickHullFace@local@@$00@local@@QEAA@XZ 0000000180058734     QuickHullConvexHullLib.obj
 0004:00001734       $pdata$1$??1?$MemBlock@UQuickHullHalfEdge@local@@$0A@@local@@QEAA@XZ 0000000180058734     QuickHullConvexHullLib.obj
 0004:00001740       $pdata$2$??1?$MemBlock@UQuickHullHalfEdge@local@@$0A@@local@@QEAA@XZ 0000000180058740     QuickHullConvexHullLib.obj
 0004:00001740       $pdata$2$??1?$MemBlock@UQuickHullFace@local@@$00@local@@QEAA@XZ 0000000180058740     QuickHullConvexHullLib.obj
 0004:0000174c       $pdata$3$??1?$MemBlock@UQuickHullHalfEdge@local@@$0A@@local@@QEAA@XZ 000000018005874c     QuickHullConvexHullLib.obj
 0004:0000174c       $pdata$3$??1?$MemBlock@UQuickHullFace@local@@$00@local@@QEAA@XZ 000000018005874c     QuickHullConvexHullLib.obj
 0004:00001758       $pdata$??1ConvexHull@physx@@QEAA@XZ 0000000180058758     QuickHullConvexHullLib.obj
 0004:00001764       $pdata$??1QuickHull@local@@QEAA@XZ 0000000180058764     QuickHullConvexHullLib.obj
 0004:00001770       $pdata$??1QuickHullConvexHullLib@physx@@UEAA@XZ 0000000180058770     QuickHullConvexHullLib.obj
 0004:0000177c       $pdata$??_GQuickHullConvexHullLib@physx@@UEAAPEAXI@Z 000000018005877c     QuickHullConvexHullLib.obj
 0004:00001788       $pdata$?addNewFacesFromHorizon@QuickHull@local@@IEAAXPEBUQuickHullVertex@2@AEBV?$Array@PEAUQuickHullHalfEdge@local@@V?$ReflectionAllocator@PEAUQuickHullHalfEdge@local@@@shdfnd@physx@@@shdfnd@physx@@AEAV?$Array@PEAUQuickHullFace@local@@V?$ReflectionAllocator@PEAUQuickHullFace@local@@@shdfnd@physx@@@56@@Z 0000000180058788     QuickHullConvexHullLib.obj
 0004:00001794       $pdata$2$?addNewFacesFromHorizon@QuickHull@local@@IEAAXPEBUQuickHullVertex@2@AEBV?$Array@PEAUQuickHullHalfEdge@local@@V?$ReflectionAllocator@PEAUQuickHullHalfEdge@local@@@shdfnd@physx@@@shdfnd@physx@@AEAV?$Array@PEAUQuickHullFace@local@@V?$ReflectionAllocator@PEAUQuickHullFace@local@@@shdfnd@physx@@@56@@Z 0000000180058794     QuickHullConvexHullLib.obj
 0004:000017a0       $pdata$3$?addNewFacesFromHorizon@QuickHull@local@@IEAAXPEBUQuickHullVertex@2@AEBV?$Array@PEAUQuickHullHalfEdge@local@@V?$ReflectionAllocator@PEAUQuickHullHalfEdge@local@@@shdfnd@physx@@@shdfnd@physx@@AEAV?$Array@PEAUQuickHullFace@local@@V?$ReflectionAllocator@PEAUQuickHullFace@local@@@shdfnd@physx@@@56@@Z 00000001800587a0     QuickHullConvexHullLib.obj
 0004:000017ac       $pdata$?addPointToHull@QuickHull@local@@IEAA_NPEBUQuickHullVertex@2@AEAUQuickHullFace@2@AEA_N@Z 00000001800587ac     QuickHullConvexHullLib.obj
 0004:000017b8       $pdata$2$?addPointToHull@QuickHull@local@@IEAA_NPEBUQuickHullVertex@2@AEAUQuickHullFace@2@AEA_N@Z 00000001800587b8     QuickHullConvexHullLib.obj
 0004:000017c4       $pdata$3$?addPointToHull@QuickHull@local@@IEAA_NPEBUQuickHullVertex@2@AEAUQuickHullFace@2@AEA_N@Z 00000001800587c4     QuickHullConvexHullLib.obj
 0004:000017d0       $pdata$4$?addPointToHull@QuickHull@local@@IEAA_NPEBUQuickHullVertex@2@AEAUQuickHullFace@2@AEA_N@Z 00000001800587d0     QuickHullConvexHullLib.obj
 0004:000017dc       $pdata$5$?addPointToHull@QuickHull@local@@IEAA_NPEBUQuickHullVertex@2@AEAUQuickHullFace@2@AEA_N@Z 00000001800587dc     QuickHullConvexHullLib.obj
 0004:000017e8       $pdata$?addSimplex@QuickHull@local@@IEAAXPEAUQuickHullVertex@2@_N@Z 00000001800587e8     QuickHullConvexHullLib.obj
 0004:000017f4       $pdata$2$?addSimplex@QuickHull@local@@IEAAXPEAUQuickHullVertex@2@_N@Z 00000001800587f4     QuickHullConvexHullLib.obj
 0004:00001800       $pdata$4$?addSimplex@QuickHull@local@@IEAAXPEAUQuickHullVertex@2@_N@Z 0000000180058800     QuickHullConvexHullLib.obj
 0004:0000180c       $pdata$3$?addSimplex@QuickHull@local@@IEAAXPEAUQuickHullVertex@2@_N@Z 000000018005880c     QuickHullConvexHullLib.obj
 0004:00001818       $pdata$?allocate@?$ReflectionAllocator@PEAUQuickHullFace@local@@@shdfnd@physx@@QEAAPEAX_KPEBDH@Z 0000000180058818     QuickHullConvexHullLib.obj
 0004:00001824       $pdata$0$?allocate@?$ReflectionAllocator@PEAUQuickHullFace@local@@@shdfnd@physx@@QEAAPEAX_KPEBDH@Z 0000000180058824     QuickHullConvexHullLib.obj
 0004:00001830       $pdata$1$?allocate@?$ReflectionAllocator@PEAUQuickHullFace@local@@@shdfnd@physx@@QEAAPEAX_KPEBDH@Z 0000000180058830     QuickHullConvexHullLib.obj
 0004:0000183c       $pdata$?allocate@?$ReflectionAllocator@PEAUQuickHullHalfEdge@local@@@shdfnd@physx@@QEAAPEAX_KPEBDH@Z 000000018005883c     QuickHullConvexHullLib.obj
 0004:00001848       $pdata$0$?allocate@?$ReflectionAllocator@PEAUQuickHullHalfEdge@local@@@shdfnd@physx@@QEAAPEAX_KPEBDH@Z 0000000180058848     QuickHullConvexHullLib.obj
 0004:00001854       $pdata$1$?allocate@?$ReflectionAllocator@PEAUQuickHullHalfEdge@local@@@shdfnd@physx@@QEAAPEAX_KPEBDH@Z 0000000180058854     QuickHullConvexHullLib.obj
 0004:00001860       $pdata$?allocate@?$ReflectionAllocator@PEAUQuickHullVertex@local@@@shdfnd@physx@@QEAAPEAX_KPEBDH@Z 0000000180058860     QuickHullConvexHullLib.obj
 0004:0000186c       $pdata$0$?allocate@?$ReflectionAllocator@PEAUQuickHullVertex@local@@@shdfnd@physx@@QEAAPEAX_KPEBDH@Z 000000018005886c     QuickHullConvexHullLib.obj
 0004:00001878       $pdata$1$?allocate@?$ReflectionAllocator@PEAUQuickHullVertex@local@@@shdfnd@physx@@QEAAPEAX_KPEBDH@Z 0000000180058878     QuickHullConvexHullLib.obj
 0004:00001884       $pdata$?allocate@?$ReflectionAllocator@UExpandPoint@local@@@shdfnd@physx@@QEAAPEAX_KPEBDH@Z 0000000180058884     QuickHullConvexHullLib.obj
 0004:00001890       $pdata$0$?allocate@?$ReflectionAllocator@UExpandPoint@local@@@shdfnd@physx@@QEAAPEAX_KPEBDH@Z 0000000180058890     QuickHullConvexHullLib.obj
 0004:0000189c       $pdata$1$?allocate@?$ReflectionAllocator@UExpandPoint@local@@@shdfnd@physx@@QEAAPEAX_KPEBDH@Z 000000018005889c     QuickHullConvexHullLib.obj
 0004:000018a8       $pdata$?buildHull@QuickHull@local@@QEAA?AW4Enum@QuickHullResult@2@XZ 00000001800588a8     QuickHullConvexHullLib.obj
 0004:000018b4       $pdata$?calculateHorizon@QuickHull@local@@IEAAXAEBVPxVec3@physx@@PEAUQuickHullHalfEdge@2@AEAUQuickHullFace@2@AEAV?$Array@PEAUQuickHullHalfEdge@local@@V?$ReflectionAllocator@PEAUQuickHullHalfEdge@local@@@shdfnd@physx@@@shdfnd@4@AEAV?$Array@PEAUQuickHullFace@local@@V?$ReflectionAllocator@PEAUQuickHullFace@local@@@shdfnd@physx@@@84@@Z 00000001800588b4     QuickHullConvexHullLib.obj
 0004:000018c0       $pdata$?canMergeFaces@QuickHull@local@@IEAA_NAEBUQuickHullHalfEdge@2@@Z 00000001800588c0     QuickHullConvexHullLib.obj
 0004:000018cc       $pdata$?cleanupForSimplex@QuickHullConvexHullLib@physx@@IEAA_NPEAVPxVec3@2@IPEAUQuickHullVertex@local@@1AEAM2@Z 00000001800588cc     QuickHullConvexHullLib.obj
 0004:000018d8       $pdata$0$?cleanupForSimplex@QuickHullConvexHullLib@physx@@IEAA_NPEAVPxVec3@2@IPEAUQuickHullVertex@local@@1AEAM2@Z 00000001800588d8     QuickHullConvexHullLib.obj
 0004:000018e4       $pdata$8$?cleanupForSimplex@QuickHullConvexHullLib@physx@@IEAA_NPEAVPxVec3@2@IPEAUQuickHullVertex@local@@1AEAM2@Z 00000001800588e4     QuickHullConvexHullLib.obj
 0004:000018f0       $pdata$9$?cleanupForSimplex@QuickHullConvexHullLib@physx@@IEAA_NPEAVPxVec3@2@IPEAUQuickHullVertex@local@@1AEAM2@Z 00000001800588f0     QuickHullConvexHullLib.obj
 0004:000018fc       $pdata$10$?cleanupForSimplex@QuickHullConvexHullLib@physx@@IEAA_NPEAVPxVec3@2@IPEAUQuickHullVertex@local@@1AEAM2@Z 00000001800588fc     QuickHullConvexHullLib.obj
 0004:00001908       $pdata$11$?cleanupForSimplex@QuickHullConvexHullLib@physx@@IEAA_NPEAVPxVec3@2@IPEAUQuickHullVertex@local@@1AEAM2@Z 0000000180058908     QuickHullConvexHullLib.obj
 0004:00001914       $pdata$12$?cleanupForSimplex@QuickHullConvexHullLib@physx@@IEAA_NPEAVPxVec3@2@IPEAUQuickHullVertex@local@@1AEAM2@Z 0000000180058914     QuickHullConvexHullLib.obj
 0004:00001920       $pdata$?computeMinMaxVerts@QuickHull@local@@IEAAXXZ 0000000180058920     QuickHullConvexHullLib.obj
 0004:0000192c       $pdata$?connectHalfEdges@QuickHullFace@local@@AEAAPEAU12@PEAUQuickHullHalfEdge@2@0@Z 000000018005892c     QuickHullConvexHullLib.obj
 0004:00001938       $pdata$4$?connectHalfEdges@QuickHullFace@local@@AEAAPEAU12@PEAUQuickHullHalfEdge@2@0@Z 0000000180058938     QuickHullConvexHullLib.obj
 0004:00001944       $pdata$5$?connectHalfEdges@QuickHullFace@local@@AEAAPEAU12@PEAUQuickHullHalfEdge@2@0@Z 0000000180058944     QuickHullConvexHullLib.obj
 0004:00001950       $pdata$6$?connectHalfEdges@QuickHullFace@local@@AEAAPEAU12@PEAUQuickHullHalfEdge@2@0@Z 0000000180058950     QuickHullConvexHullLib.obj
 0004:0000195c       $pdata$7$?connectHalfEdges@QuickHullFace@local@@AEAAPEAU12@PEAUQuickHullHalfEdge@2@0@Z 000000018005895c     QuickHullConvexHullLib.obj
 0004:00001968       $pdata$?createConvexHull@QuickHullConvexHullLib@physx@@UEAA?AW4Enum@PxConvexMeshCookingResult@2@XZ 0000000180058968     QuickHullConvexHullLib.obj
 0004:00001974       $pdata$?createEdgeList@QuickHullConvexHullLib@physx@@UEAA_NIPEBEPEAPEAEPEAPEAG2@Z 0000000180058974     QuickHullConvexHullLib.obj
 0004:00001980       $pdata$?createTriangle@QuickHull@local@@IEAAPEAUQuickHullFace@2@AEBUQuickHullVertex@2@00@Z 0000000180058980     QuickHullConvexHullLib.obj
 0004:0000198c       $pdata$?deleteFacePoints@QuickHull@local@@IEAAXAEAUQuickHullFace@2@PEAU32@@Z 000000018005898c     QuickHullConvexHullLib.obj
 0004:00001998       $pdata$0$?deleteFacePoints@QuickHull@local@@IEAAXAEAUQuickHullFace@2@PEAU32@@Z 0000000180058998     QuickHullConvexHullLib.obj
 0004:000019a4       $pdata$1$?deleteFacePoints@QuickHull@local@@IEAAXAEAUQuickHullFace@2@PEAU32@@Z 00000001800589a4     QuickHullConvexHullLib.obj
 0004:000019b0       $pdata$?doAdjacentMerge@QuickHull@local@@IEAA_NAEAUQuickHullFace@2@_NAEA_N@Z 00000001800589b0     QuickHullConvexHullLib.obj
 0004:000019bc       $pdata$1$?doAdjacentMerge@QuickHull@local@@IEAA_NAEAUQuickHullFace@2@_NAEA_N@Z 00000001800589bc     QuickHullConvexHullLib.obj
 0004:000019c8       $pdata$?expandHull@QuickHullConvexHullLib@physx@@IEAA?AW4Enum@PxConvexMeshCookingResult@2@XZ 00000001800589c8     QuickHullConvexHullLib.obj
 0004:000019d4       $pdata$?expandHullOBB@QuickHullConvexHullLib@physx@@IEAA?AW4Enum@PxConvexMeshCookingResult@2@XZ 00000001800589d4     QuickHullConvexHullLib.obj
 0004:000019e0       $pdata$4$?expandHullOBB@QuickHullConvexHullLib@physx@@IEAA?AW4Enum@PxConvexMeshCookingResult@2@XZ 00000001800589e0     QuickHullConvexHullLib.obj
 0004:000019ec       $pdata$5$?expandHullOBB@QuickHullConvexHullLib@physx@@IEAA?AW4Enum@PxConvexMeshCookingResult@2@XZ 00000001800589ec     QuickHullConvexHullLib.obj
 0004:000019f8       $pdata$6$?expandHullOBB@QuickHullConvexHullLib@physx@@IEAA?AW4Enum@PxConvexMeshCookingResult@2@XZ 00000001800589f8     QuickHullConvexHullLib.obj
 0004:00001a04       $pdata$7$?expandHullOBB@QuickHullConvexHullLib@physx@@IEAA?AW4Enum@PxConvexMeshCookingResult@2@XZ 0000000180058a04     QuickHullConvexHullLib.obj
 0004:00001a10       $pdata$?fillConvexMeshDesc@QuickHullConvexHullLib@physx@@UEAAXAEAVPxConvexMeshDesc@2@@Z 0000000180058a10     QuickHullConvexHullLib.obj
 0004:00001a1c       $pdata$?fillConvexMeshDescFromCroppedHull@QuickHullConvexHullLib@physx@@IEAAXAEAVPxConvexMeshDesc@2@@Z 0000000180058a1c     QuickHullConvexHullLib.obj
 0004:00001a28       $pdata$?fillConvexMeshDescFromQuickHull@QuickHullConvexHullLib@physx@@IEAAXAEAVPxConvexMeshDesc@2@@Z 0000000180058a28     QuickHullConvexHullLib.obj
 0004:00001a34       $pdata$?findSimplex@QuickHull@local@@IEAA_NXZ 0000000180058a34     QuickHullConvexHullLib.obj
 0004:00001a40       $pdata$7$?findSimplex@QuickHull@local@@IEAA_NXZ 0000000180058a40     QuickHullConvexHullLib.obj
 0004:00001a4c       $pdata$11$?findSimplex@QuickHull@local@@IEAA_NXZ 0000000180058a4c     QuickHullConvexHullLib.obj
 0004:00001a58       $pdata$12$?findSimplex@QuickHull@local@@IEAA_NXZ 0000000180058a58     QuickHullConvexHullLib.obj
 0004:00001a64       $pdata$13$?findSimplex@QuickHull@local@@IEAA_NXZ 0000000180058a64     QuickHullConvexHullLib.obj
 0004:00001a70       $pdata$14$?findSimplex@QuickHull@local@@IEAA_NXZ 0000000180058a70     QuickHullConvexHullLib.obj
 0004:00001a7c       $pdata$?getFreeItem@?$MemBlock@UQuickHullFace@local@@$00@local@@QEAAPEAUQuickHullFace@2@XZ 0000000180058a7c     QuickHullConvexHullLib.obj
 0004:00001a88       $pdata$?getFreeItem@?$MemBlock@UQuickHullHalfEdge@local@@$0A@@local@@QEAAPEAUQuickHullHalfEdge@2@XZ 0000000180058a88     QuickHullConvexHullLib.obj
 0004:00001a94       $pdata$?growAndPushBack@?$Array@PEAUQuickHullFace@local@@V?$ReflectionAllocator@PEAUQuickHullFace@local@@@shdfnd@physx@@@shdfnd@physx@@IEAAAEAPEAUQuickHullFace@local@@AEBQEAU45@@Z 0000000180058a94     QuickHullConvexHullLib.obj
 0004:00001aa0       $pdata$?growAndPushBack@?$Array@PEAUQuickHullHalfEdge@local@@V?$ReflectionAllocator@PEAUQuickHullHalfEdge@local@@@shdfnd@physx@@@shdfnd@physx@@IEAAAEAPEAUQuickHullHalfEdge@local@@AEBQEAU45@@Z 0000000180058aa0     QuickHullConvexHullLib.obj
 0004:00001aac       $pdata$?growAndPushBack@?$Array@PEAUQuickHullVertex@local@@V?$ReflectionAllocator@PEAUQuickHullVertex@local@@@shdfnd@physx@@@shdfnd@physx@@IEAAAEAPEAUQuickHullVertex@local@@AEBQEAU45@@Z 0000000180058aac     QuickHullConvexHullLib.obj
 0004:00001ab8       $pdata$?growAndPushBack@?$Array@UExpandPoint@local@@V?$ReflectionAllocator@UExpandPoint@local@@@shdfnd@physx@@@shdfnd@physx@@IEAAAEAUExpandPoint@local@@AEBU45@@Z 0000000180058ab8     QuickHullConvexHullLib.obj
 0004:00001ac4       $pdata$?init@?$MemBlock@UQuickHullFace@local@@$00@local@@QEAAXI@Z 0000000180058ac4     QuickHullConvexHullLib.obj
 0004:00001ad0       $pdata$?init@?$MemBlock@UQuickHullHalfEdge@local@@$0A@@local@@QEAAXI@Z 0000000180058ad0     QuickHullConvexHullLib.obj
 0004:00001adc       $pdata$?mergeAdjacentFace@QuickHullFace@local@@QEAA_NPEAUQuickHullHalfEdge@2@AEAV?$Array@PEAUQuickHullFace@local@@V?$ReflectionAllocator@PEAUQuickHullFace@local@@@shdfnd@physx@@@shdfnd@physx@@@Z 0000000180058adc     QuickHullConvexHullLib.obj
 0004:00001ae8       $pdata$3$?mergeAdjacentFace@QuickHullFace@local@@QEAA_NPEAUQuickHullHalfEdge@2@AEAV?$Array@PEAUQuickHullFace@local@@V?$ReflectionAllocator@PEAUQuickHullFace@local@@@shdfnd@physx@@@shdfnd@physx@@@Z 0000000180058ae8     QuickHullConvexHullLib.obj
 0004:00001af4       $pdata$4$?mergeAdjacentFace@QuickHullFace@local@@QEAA_NPEAUQuickHullHalfEdge@2@AEAV?$Array@PEAUQuickHullFace@local@@V?$ReflectionAllocator@PEAUQuickHullFace@local@@@shdfnd@physx@@@shdfnd@physx@@@Z 0000000180058af4     QuickHullConvexHullLib.obj
 0004:00001b00       $pdata$5$?mergeAdjacentFace@QuickHullFace@local@@QEAA_NPEAUQuickHullHalfEdge@2@AEAV?$Array@PEAUQuickHullFace@local@@V?$ReflectionAllocator@PEAUQuickHullFace@local@@@shdfnd@physx@@@shdfnd@physx@@@Z 0000000180058b00     QuickHullConvexHullLib.obj
 0004:00001b0c       $pdata$6$?mergeAdjacentFace@QuickHullFace@local@@QEAA_NPEAUQuickHullHalfEdge@2@AEAV?$Array@PEAUQuickHullFace@local@@V?$ReflectionAllocator@PEAUQuickHullFace@local@@@shdfnd@physx@@@shdfnd@physx@@@Z 0000000180058b0c     QuickHullConvexHullLib.obj
 0004:00001b18       $pdata$7$?mergeAdjacentFace@QuickHullFace@local@@QEAA_NPEAUQuickHullHalfEdge@2@AEAV?$Array@PEAUQuickHullFace@local@@V?$ReflectionAllocator@PEAUQuickHullFace@local@@@shdfnd@physx@@@shdfnd@physx@@@Z 0000000180058b18     QuickHullConvexHullLib.obj
 0004:00001b24       $pdata$?nextPointToAdd@QuickHull@local@@IEAAPEAUQuickHullVertex@2@AEAPEAUQuickHullFace@2@@Z 0000000180058b24     QuickHullConvexHullLib.obj
 0004:00001b30       $pdata$?parseInputVertices@QuickHull@local@@QEAAXPEBVPxVec3@physx@@I@Z 0000000180058b30     QuickHullConvexHullLib.obj
 0004:00001b3c       $pdata$0$?parseInputVertices@QuickHull@local@@QEAAXPEBVPxVec3@physx@@I@Z 0000000180058b3c     QuickHullConvexHullLib.obj
 0004:00001b48       $pdata$1$?parseInputVertices@QuickHull@local@@QEAAXPEBVPxVec3@physx@@I@Z 0000000180058b48     QuickHullConvexHullLib.obj
 0004:00001b54       $pdata$?postMergeHull@QuickHull@local@@IEAAXXZ 0000000180058b54     QuickHullConvexHullLib.obj
 0004:00001b60       $pdata$4$?postMergeHull@QuickHull@local@@IEAAXXZ 0000000180058b60     QuickHullConvexHullLib.obj
 0004:00001b6c       $pdata$5$?postMergeHull@QuickHull@local@@IEAAXXZ 0000000180058b6c     QuickHullConvexHullLib.obj
 0004:00001b78       $pdata$6$?postMergeHull@QuickHull@local@@IEAAXXZ 0000000180058b78     QuickHullConvexHullLib.obj
 0004:00001b84       $pdata$?preallocate@QuickHull@local@@QEAAXI@Z 0000000180058b84     QuickHullConvexHullLib.obj
 0004:00001b90       $pdata$?recreate@?$Array@PEAUQuickHullFace@local@@V?$ReflectionAllocator@PEAUQuickHullFace@local@@@shdfnd@physx@@@shdfnd@physx@@IEAAXI@Z 0000000180058b90     QuickHullConvexHullLib.obj
 0004:00001b9c       $pdata$?recreate@?$Array@PEAUQuickHullHalfEdge@local@@V?$ReflectionAllocator@PEAUQuickHullHalfEdge@local@@@shdfnd@physx@@@shdfnd@physx@@IEAAXI@Z 0000000180058b9c     QuickHullConvexHullLib.obj
 0004:00001ba8       $pdata$?recreate@?$Array@PEAUQuickHullVertex@local@@V?$ReflectionAllocator@PEAUQuickHullVertex@local@@@shdfnd@physx@@@shdfnd@physx@@IEAAXI@Z 0000000180058ba8     QuickHullConvexHullLib.obj
 0004:00001bb4       $pdata$?recreate@?$Array@UExpandPoint@local@@V?$ReflectionAllocator@UExpandPoint@local@@@shdfnd@physx@@@shdfnd@physx@@IEAAXI@Z 0000000180058bb4     QuickHullConvexHullLib.obj
 0004:00001bc0       $pdata$?reset@?$MemBlock@UQuickHullFace@local@@$00@local@@QEAAXXZ 0000000180058bc0     QuickHullConvexHullLib.obj
 0004:00001bcc       $pdata$0$?reset@?$MemBlock@UQuickHullFace@local@@$00@local@@QEAAXXZ 0000000180058bcc     QuickHullConvexHullLib.obj
 0004:00001bd8       $pdata$1$?reset@?$MemBlock@UQuickHullFace@local@@$00@local@@QEAAXXZ 0000000180058bd8     QuickHullConvexHullLib.obj
 0004:00001be4       $pdata$?reset@?$MemBlock@UQuickHullHalfEdge@local@@$0A@@local@@QEAAXXZ 0000000180058be4     QuickHullConvexHullLib.obj
 0004:00001bf0       $pdata$0$?reset@?$MemBlock@UQuickHullHalfEdge@local@@$0A@@local@@QEAAXXZ 0000000180058bf0     QuickHullConvexHullLib.obj
 0004:00001bfc       $pdata$1$?reset@?$MemBlock@UQuickHullHalfEdge@local@@$0A@@local@@QEAAXXZ 0000000180058bfc     QuickHullConvexHullLib.obj
 0004:00001c08       $pdata$?resolveUnclaimedPoints@QuickHull@local@@IEAAXAEBV?$Array@PEAUQuickHullFace@local@@V?$ReflectionAllocator@PEAUQuickHullFace@local@@@shdfnd@physx@@@shdfnd@physx@@@Z 0000000180058c08     QuickHullConvexHullLib.obj
 0004:00001c14       $pdata$?threePlaneIntersection@local@@YA?AVPxVec3@physx@@AEBVPxPlane@3@00@Z 0000000180058c14     QuickHullConvexHullLib.obj
 0004:00001c20       $pdata$?computeVolumeIntegrals@VolumeIntegratorEberly@?A0xabad1410@physx@@QEAA_NAEAUPxIntegrals@3@AEBVPxVec3@3@@Z 0000000180058c20     VolumeIntegration.obj
 0004:00001c2c       $pdata$0$?computeVolumeIntegrals@VolumeIntegratorEberly@?A0xabad1410@physx@@QEAA_NAEAUPxIntegrals@3@AEBVPxVec3@3@@Z 0000000180058c2c     VolumeIntegration.obj
 0004:00001c38       $pdata$6$?computeVolumeIntegrals@VolumeIntegratorEberly@?A0xabad1410@physx@@QEAA_NAEAUPxIntegrals@3@AEBVPxVec3@3@@Z 0000000180058c38     VolumeIntegration.obj
 0004:00001c44       $pdata$7$?computeVolumeIntegrals@VolumeIntegratorEberly@?A0xabad1410@physx@@QEAA_NAEAUPxIntegrals@3@AEBVPxVec3@3@@Z 0000000180058c44     VolumeIntegration.obj
 0004:00001c50       $pdata$8$?computeVolumeIntegrals@VolumeIntegratorEberly@?A0xabad1410@physx@@QEAA_NAEAUPxIntegrals@3@AEBVPxVec3@3@@Z 0000000180058c50     VolumeIntegration.obj
 0004:00001c5c       $pdata$?computeVolumeIntegralsEberly@physx@@YA_NAEBVPxConvexMeshDesc@1@MAEAUPxIntegrals@1@AEBVPxVec3@1@@Z 0000000180058c5c     VolumeIntegration.obj
 0004:00001c68       $pdata$?computeVolumeIntegralsEberlySIMD@physx@@YA_NAEBVPxConvexMeshDesc@1@MAEAUPxIntegrals@1@AEBVPxVec3@1@@Z 0000000180058c68     VolumeIntegration.obj
 0004:00001c74       $pdata$?computeVolumeIntegralsSIMD@VolumeIntegratorEberly@?A0xabad1410@physx@@QEAA_NAEAUPxIntegrals@3@AEBVPxVec3@3@@Z 0000000180058c74     VolumeIntegration.obj
 0004:00001c80       $pdata$0$?computeVolumeIntegralsSIMD@VolumeIntegratorEberly@?A0xabad1410@physx@@QEAA_NAEAUPxIntegrals@3@AEBVPxVec3@3@@Z 0000000180058c80     VolumeIntegration.obj
 0004:00001c8c       $pdata$2$?computeVolumeIntegralsSIMD@VolumeIntegratorEberly@?A0xabad1410@physx@@QEAA_NAEAUPxIntegrals@3@AEBVPxVec3@3@@Z 0000000180058c8c     VolumeIntegration.obj
 0004:00001c98       $pdata$3$?computeVolumeIntegralsSIMD@VolumeIntegratorEberly@?A0xabad1410@physx@@QEAA_NAEAUPxIntegrals@3@AEBVPxVec3@3@@Z 0000000180058c98     VolumeIntegration.obj
 0004:00001ca4       $pdata$4$?computeVolumeIntegralsSIMD@VolumeIntegratorEberly@?A0xabad1410@physx@@QEAA_NAEAUPxIntegrals@3@AEBVPxVec3@3@@Z 0000000180058ca4     VolumeIntegration.obj
 0004:00001cb0       $pdata$?physXCommonDliNotePreLoadLibrary@Cm@physx@@YAP6A_JXZPEBDPEBVPxDelayLoadHook@2@@Z 0000000180058cb0     WindowsCookingDelayLoadHook.obj
 0004:00001cd4       $pdata$?DloadAcquireSectionWriteAccess@@YAXXZ 0000000180058cd4     Delayimp:delayhlp.obj
 0004:00001ce0       $pdata$?DloadGetSRWLockFunctionPointers@@YAEXZ 0000000180058ce0     Delayimp:delayhlp.obj
 0004:00001cec       $pdata$?DloadMakePermanentImageCommit@@YAXPEAX_K@Z 0000000180058cec     Delayimp:delayhlp.obj
 0004:00001cf8       $pdata$?DloadObtainSection@@YAPEAXPEAK0@Z 0000000180058cf8     Delayimp:delayhlp.obj
 0004:00001d04       $pdata$?DloadProtectSection@@YAXKPEAK@Z 0000000180058d04     Delayimp:delayhlp.obj
 0004:00001d10       $pdata$?DloadReleaseSectionWriteAccess@@YAXXZ 0000000180058d10     Delayimp:delayhlp.obj
 0004:00001d1c       $pdata$__delayLoadHelper2  0000000180058d1c     Delayimp:delayhlp.obj
 0004:00001d28       $pdata$??_Gtype_info@@UEAAPEAXI@Z 0000000180058d28     LIBCMT:std_type_info_static.obj
 0004:00001d40       $pdata$?dllmain_crt_dispatch@@YAHQEAUHINSTANCE__@@KQEAX@Z 0000000180058d40     LIBCMT:dll_dllmain.obj
 0004:00001d4c       $pdata$?dllmain_crt_process_attach@@YAHQEAUHINSTANCE__@@QEAX@Z 0000000180058d4c     LIBCMT:dll_dllmain.obj
 0004:00001d58       $pdata$?dllmain_crt_process_detach@@YAH_N@Z 0000000180058d58     LIBCMT:dll_dllmain.obj
 0004:00001d64       $pdata$?dllmain_dispatch@@YAHQEAUHINSTANCE__@@KQEAX@Z 0000000180058d64     LIBCMT:dll_dllmain.obj
 0004:00001d70       $pdata$?dllmain_raw@@YAHQEAUHINSTANCE__@@KQEAX@Z 0000000180058d70     LIBCMT:dll_dllmain.obj
 0004:00001d7c       $pdata$_DllMainCRTStartup  0000000180058d7c     LIBCMT:dll_dllmain.obj
 0004:00001d88       $pdata$__scrt_acquire_startup_lock 0000000180058d88     LIBCMT:utility.obj
 0004:00001d94       $pdata$__scrt_dllmain_after_initialize_c 0000000180058d94     LIBCMT:utility.obj
 0004:00001da0       $pdata$__scrt_dllmain_before_initialize_c 0000000180058da0     LIBCMT:utility.obj
 0004:00001dac       $pdata$__scrt_dllmain_crt_thread_attach 0000000180058dac     LIBCMT:utility.obj
 0004:00001db8       $pdata$__scrt_dllmain_crt_thread_detach 0000000180058db8     LIBCMT:utility.obj
 0004:00001dc4       $pdata$__scrt_dllmain_exception_filter 0000000180058dc4     LIBCMT:utility.obj
 0004:00001dd0       $pdata$__scrt_dllmain_uninitialize_c 0000000180058dd0     LIBCMT:utility.obj
 0004:00001ddc       $pdata$__scrt_dllmain_uninitialize_critical 0000000180058ddc     LIBCMT:utility.obj
 0004:00001de8       $pdata$__scrt_initialize_crt 0000000180058de8     LIBCMT:utility.obj
 0004:00001df4       $pdata$__scrt_initialize_onexit_tables 0000000180058df4     LIBCMT:utility.obj
 0004:00001e00       $pdata$__scrt_is_nonwritable_in_current_image 0000000180058e00     LIBCMT:utility.obj
 0004:00001e0c       $pdata$__scrt_release_startup_lock 0000000180058e0c     LIBCMT:utility.obj
 0004:00001e18       $pdata$__scrt_uninitialize_crt 0000000180058e18     LIBCMT:utility.obj
 0004:00001e24       $pdata$_onexit             0000000180058e24     LIBCMT:utility.obj
 0004:00001e30       $pdata$atexit              0000000180058e30     LIBCMT:utility.obj
 0004:00001e3c       $pdata$__security_init_cookie 0000000180058e3c     LIBCMT:gs_support.obj
 0004:00001e48       $pdata$__scrt_initialize_default_local_stdio_options 0000000180058e48     LIBCMT:default_local_stdio_options.obj
 0004:00001e54       $pdata$__scrt_fastfail     0000000180058e54     LIBCMT:utility_desktop.obj
 0004:00001e60       $pdata$_RTC_Initialize     0000000180058e60     LIBCMT:_initsect_.obj
 0004:00001e6c       $pdata$_RTC_Terminate      0000000180058e6c     LIBCMT:_initsect_.obj
 0004:00001e78       $pdata$__isa_available_init 0000000180058e78     LIBCMT:_cpu_disp_.obj
 0004:00001e84       $pdata$_purecall           0000000180058e84     libvcruntime:purevirt.obj
 0004:00001e90       $pdata$__std_type_info_destroy_list 0000000180058e90     libvcruntime:std_type_info.obj
 0004:00001e9c       $pdata$__std_type_info_name 0000000180058e9c     libvcruntime:std_type_info.obj
 0004:00001ec0       $pdata$strstr              0000000180058ec0     libvcruntime:strstr.obj
 0004:00001ecc       $pdata$__C_specific_handler 0000000180058ecc     libvcruntime:_chandler_.obj
 0004:00001ed8       $pdata$__vcrt_initialize   0000000180058ed8     libvcruntime:initialization.obj
 0004:00001ee4       $pdata$__vcrt_thread_attach 0000000180058ee4     libvcruntime:initialization.obj
 0004:00001ef0       $pdata$__vcrt_thread_detach 0000000180058ef0     libvcruntime:initialization.obj
 0004:00001efc       $pdata$__vcrt_uninitialize 0000000180058efc     libvcruntime:initialization.obj
 0004:00001f08       $pdata$__vcrt_uninitialize_critical 0000000180058f08     libvcruntime:initialization.obj
 0004:00001f14       $pdata$??0DName@@QEAA@AEAPEBDD@Z 0000000180058f14     libvcruntime:undname.obj
 0004:00001f20       $pdata$??0DName@@QEAA@D@Z  0000000180058f20     libvcruntime:undname.obj
 0004:00001f2c       $pdata$??0DName@@QEAA@PEAV0@@Z 0000000180058f2c     libvcruntime:undname.obj
 0004:00001f38       $pdata$??0DName@@QEAA@PEBD@Z 0000000180058f38     libvcruntime:undname.obj
 0004:00001f44       $pdata$??0DName@@QEAA@W4DNameStatus@@@Z 0000000180058f44     libvcruntime:undname.obj
 0004:00001f50       $pdata$??0DName@@QEAA@_J@Z 0000000180058f50     libvcruntime:undname.obj
 0004:00001f5c       $pdata$??0DName@@QEAA@_K@Z 0000000180058f5c     libvcruntime:undname.obj
 0004:00001f68       $pdata$??0pcharNode@@QEAA@PEBDH@Z 0000000180058f68     libvcruntime:undname.obj
 0004:00001f74       $pdata$??4DName@@QEAAAEAV0@PEBD@Z 0000000180058f74     libvcruntime:undname.obj
 0004:00001f80       $pdata$??4DName@@QEAAAEAV0@W4DNameStatus@@@Z 0000000180058f80     libvcruntime:undname.obj
 0004:00001f8c       $pdata$??AReplicator@@QEBA?AVDName@@H@Z 0000000180058f8c     libvcruntime:undname.obj
 0004:00001f98       $pdata$??BUnDecorator@@QEAAPEADXZ 0000000180058f98     libvcruntime:undname.obj
 0004:00001fa4       $pdata$??YDName@@QEAAAEAV0@AEBV0@@Z 0000000180058fa4     libvcruntime:undname.obj
 0004:00001fb0       $pdata$??YDName@@QEAAAEAV0@D@Z 0000000180058fb0     libvcruntime:undname.obj
 0004:00001fbc       $pdata$??YDName@@QEAAAEAV0@PEBD@Z 0000000180058fbc     libvcruntime:undname.obj
 0004:00001fc8       $pdata$??YDName@@QEAAAEAV0@W4DNameStatus@@@Z 0000000180058fc8     libvcruntime:undname.obj
 0004:00001fd4       $pdata$??YReplicator@@QEAAAEAV0@AEBVDName@@@Z 0000000180058fd4     libvcruntime:undname.obj
 0004:00001fe0       $pdata$?append@DName@@AEAAXPEAVDNameNode@@@Z 0000000180058fe0     libvcruntime:undname.obj
 0004:00001fec       $pdata$?composeDeclaration@UnDecorator@@CA?AVDName@@AEBV2@@Z 0000000180058fec     libvcruntime:undname.obj
 0004:00001ff8       $pdata$?doPchar@DName@@AEAAXPEBDH@Z 0000000180058ff8     libvcruntime:undname.obj
 0004:00002004       $pdata$?getArgumentList@UnDecorator@@CA?AVDName@@XZ 0000000180059004     libvcruntime:undname.obj
 0004:00002010       $pdata$?getArgumentTypes@UnDecorator@@CA?AVDName@@XZ 0000000180059010     libvcruntime:undname.obj
 0004:0000201c       $pdata$?getArrayType@UnDecorator@@CA?AVDName@@AEBV2@@Z 000000018005901c     libvcruntime:undname.obj
 0004:00002028       $pdata$?getBasedType@UnDecorator@@CA?AVDName@@XZ 0000000180059028     libvcruntime:undname.obj
 0004:00002034       $pdata$?getBasicDataType@UnDecorator@@CA?AVDName@@AEBV2@@Z 0000000180059034     libvcruntime:undname.obj
 0004:00002040       $pdata$?getCallingConvention@UnDecorator@@CA?AVDName@@XZ 0000000180059040     libvcruntime:undname.obj
 0004:0000204c       $pdata$?getDataIndirectType@UnDecorator@@CA?AVDName@@AEBV2@PEBD0H@Z 000000018005904c     libvcruntime:undname.obj
 0004:00002058       $pdata$?getDataType@UnDecorator@@CA?AVDName@@PEAV2@@Z 0000000180059058     libvcruntime:undname.obj
 0004:00002064       $pdata$?getDecoratedName@UnDecorator@@CA?AVDName@@XZ 0000000180059064     libvcruntime:undname.obj
 0004:00002070       $pdata$?getDimension@UnDecorator@@CA?AVDName@@_N@Z 0000000180059070     libvcruntime:undname.obj
 0004:0000207c       $pdata$?getDispatchTarget@UnDecorator@@CA?AVDName@@XZ 000000018005907c     libvcruntime:undname.obj
 0004:00002088       $pdata$?getECSUDataType@UnDecorator@@CA?AVDName@@XZ 0000000180059088     libvcruntime:undname.obj
 0004:00002094       $pdata$?getEnumType@UnDecorator@@CA?AVDName@@XZ 0000000180059094     libvcruntime:undname.obj
 0004:000020a0       $pdata$?getExtendedDataIndirectType@UnDecorator@@CA?AVDName@@AEAPEBDAEA_NH@Z 00000001800590a0     libvcruntime:undname.obj
 0004:000020ac       $pdata$?getExternalDataType@UnDecorator@@CA?AVDName@@AEBV2@@Z 00000001800590ac     libvcruntime:undname.obj
 0004:000020b8       $pdata$?getFunctionIndirectType@UnDecorator@@CA?AVDName@@AEBV2@@Z 00000001800590b8     libvcruntime:undname.obj
 0004:000020c4       $pdata$?getLastChar@pDNameNode@@UEBADXZ 00000001800590c4     libvcruntime:undname.obj
 0004:000020d0       $pdata$?getLastChar@pairNode@@UEBADXZ 00000001800590d0     libvcruntime:undname.obj
 0004:000020dc       $pdata$?getMemory@_HeapManager@@QEAAPEAX_KH@Z 00000001800590dc     libvcruntime:undname.obj
 0004:000020e8       $pdata$?getOperatorName@UnDecorator@@CA?AVDName@@_NPEA_N@Z 00000001800590e8     libvcruntime:undname.obj
 0004:000020f4       $pdata$?getPrimaryDataType@UnDecorator@@CA?AVDName@@AEBV2@@Z 00000001800590f4     libvcruntime:undname.obj
 0004:00002100       $pdata$?getPtrRefDataType@UnDecorator@@CA?AVDName@@AEBV2@H@Z 0000000180059100     libvcruntime:undname.obj
 0004:0000210c       $pdata$?getPtrRefType@UnDecorator@@CA?AVDName@@AEBV2@0PEBD@Z 000000018005910c     libvcruntime:undname.obj
 0004:00002118       $pdata$?getRestrictionSpec@UnDecorator@@CA?AVDName@@XZ 0000000180059118     libvcruntime:undname.obj
 0004:00002124       $pdata$?getReturnType@UnDecorator@@CA?AVDName@@PEAV2@@Z 0000000180059124     libvcruntime:undname.obj
 0004:00002130       $pdata$?getScope@UnDecorator@@CA?AVDName@@XZ 0000000180059130     libvcruntime:undname.obj
 0004:0000213c       $pdata$?getScopedName@UnDecorator@@CA?AVDName@@XZ 000000018005913c     libvcruntime:undname.obj
 0004:00002148       $pdata$?getSignedDimension@UnDecorator@@CA?AVDName@@XZ 0000000180059148     libvcruntime:undname.obj
 0004:00002154       $pdata$?getString@DName@@QEBAPEADPEADH@Z 0000000180059154     libvcruntime:undname.obj
 0004:00002160       $pdata$?getString@pDNameNode@@UEBAPEADPEAD0@Z 0000000180059160     libvcruntime:undname.obj
 0004:0000216c       $pdata$?getString@pairNode@@UEBAPEADPEAD0@Z 000000018005916c     libvcruntime:undname.obj
 0004:00002178       $pdata$?getStringEncoding@UnDecorator@@CA?AVDName@@PEADH@Z 0000000180059178     libvcruntime:undname.obj
 0004:00002184       $pdata$?getSymbolName@UnDecorator@@CA?AVDName@@XZ 0000000180059184     libvcruntime:undname.obj
 0004:00002190       $pdata$?getTemplateArgumentList@UnDecorator@@CA?AVDName@@XZ 0000000180059190     libvcruntime:undname.obj
 0004:0000219c       $pdata$?getTemplateConstant@UnDecorator@@CA?AVDName@@XZ 000000018005919c     libvcruntime:undname.obj
 0004:000021a8       $pdata$?getTemplateName@UnDecorator@@CA?AVDName@@_N@Z 00000001800591a8     libvcruntime:undname.obj
 0004:000021b4       $pdata$?getThrowTypes@UnDecorator@@CA?AVDName@@XZ 00000001800591b4     libvcruntime:undname.obj
 0004:000021c0       $pdata$?getTypeEncoding@UnDecorator@@CAHXZ 00000001800591c0     libvcruntime:undname.obj
 0004:000021cc       $pdata$?getVfTableType@UnDecorator@@CA?AVDName@@AEBV2@@Z 00000001800591cc     libvcruntime:undname.obj
 0004:000021d8       $pdata$?getZName@UnDecorator@@CA?AVDName@@_N0@Z 00000001800591d8     libvcruntime:undname.obj
 0004:000021e4       $pdata$?length@pDNameNode@@UEBAHXZ 00000001800591e4     libvcruntime:undname.obj
 0004:000021f0       $pdata$?length@pairNode@@UEBAHXZ 00000001800591f0     libvcruntime:undname.obj
 0004:000021fc       $pdata$__unDName           00000001800591fc     libvcruntime:undname.obj
 0004:00002208       $pdata$sprintf_s           0000000180059208     libvcruntime:undname.obj
 0004:00002244       $pdata$__vcrt_freefls      0000000180059244     libvcruntime:per_thread_data.obj
 0004:00002250       $pdata$__vcrt_freeptd      0000000180059250     libvcruntime:per_thread_data.obj
 0004:0000225c       $pdata$__vcrt_getptd_noexit 000000018005925c     libvcruntime:per_thread_data.obj
 0004:00002268       $pdata$__vcrt_initialize_ptd 0000000180059268     libvcruntime:per_thread_data.obj
 0004:00002274       $pdata$__vcrt_uninitialize_ptd 0000000180059274     libvcruntime:per_thread_data.obj
 0004:00002280       $pdata$__vcrt_initialize_locks 0000000180059280     libvcruntime:locks.obj
 0004:0000228c       $pdata$__vcrt_uninitialize_locks 000000018005928c     libvcruntime:locks.obj
 0004:00002298       $pdata$?try_get_function@@YAPEAXW4function_id@?A0x58e6d967@@QEBDQEBW4module_id@2@2@Z 0000000180059298     libvcruntime:winapi_downlevel.obj
 0004:000022a4       $pdata$__vcrt_FlsAlloc     00000001800592a4     libvcruntime:winapi_downlevel.obj
 0004:000022b0       $pdata$__vcrt_FlsFree      00000001800592b0     libvcruntime:winapi_downlevel.obj
 0004:000022bc       $pdata$__vcrt_FlsGetValue  00000001800592bc     libvcruntime:winapi_downlevel.obj
 0004:000022c8       $pdata$__vcrt_FlsSetValue  00000001800592c8     libvcruntime:winapi_downlevel.obj
 0004:000022d4       $pdata$__vcrt_InitializeCriticalSectionEx 00000001800592d4     libvcruntime:winapi_downlevel.obj
 0004:000022e0       $pdata$__vcrt_uninitialize_winapi_thunks 00000001800592e0     libvcruntime:winapi_downlevel.obj
 0004:000022f8       $pdata$atan2f              00000001800592f8     libucrt:atan2f.obj
 0004:00002328       $pdata$_initterm           0000000180059328     libucrt:initterm.obj
 0004:00002334       $pdata$_initterm_e         0000000180059334     libucrt:initterm.obj
 0004:00002340       $pdata$_seh_filter_exe     0000000180059340     libucrt:exception_filter.obj
 0004:0000234c       $pdata$??$?RV<lambda_d80eeec6fff315bfe5c115232f3240e3>@@AEAV<lambda_6e4b09c48022b2350581041d5f6b0c4c>@@V<lambda_2358e3775559c9db80273638284d5e45>@@@?$__crt_seh_guarded_call@X@@QEAAX$$QEAV<lambda_d80eeec6fff315bfe5c115232f3240e3>@@AEAV<lambda_6e4b09c48022b2350581041d5f6b0c4c>@@$$QEAV<lambda_2358e3775559c9db80273638284d5e45>@@@Z 000000018005934c     libucrt:exit.obj
 0004:00002358       $pdata$??R<lambda_6e4b09c48022b2350581041d5f6b0c4c>@@QEBA@XZ 0000000180059358     libucrt:exit.obj
 0004:00002364       $pdata$?common_exit@@YAXHW4_crt_exit_cleanup_mode@@W4_crt_exit_return_mode@@@Z 0000000180059364     libucrt:exit.obj
 0004:00002370       $pdata$?exit_or_terminate_process@@YAXI@Z 0000000180059370     libucrt:exit.obj
 0004:0000237c       $pdata$?try_cor_exit_process@@YAXI@Z 000000018005937c     libucrt:exit.obj
 0004:00002388       $pdata$??$parse_command_line@D@@YAXPEADPEAPEAD0PEA_K2@Z 0000000180059388     libucrt:argv_parsing.obj
 0004:00002394       $pdata$__acrt_allocate_buffer_for_argv 0000000180059394     libucrt:argv_parsing.obj
 0004:000023a0       $pdata$_configure_narrow_argv 00000001800593a0     libucrt:argv_parsing.obj
 0004:000023ac       $pdata$??$common_initialize_environment_nolock@D@@YAHXZ 00000001800593ac     libucrt:environment_initialization.obj
 0004:000023b8       $pdata$??$create_environment@D@@YAQEAPEADQEAD@Z 00000001800593b8     libucrt:environment_initialization.obj
 0004:000023c4       $pdata$??$free_environment@_W@@YAXQEAPEA_W@Z 00000001800593c4     libucrt:environment_initialization.obj
 0004:000023c4       $pdata$??$free_environment@D@@YAXQEAPEAD@Z 00000001800593c4     libucrt:environment_initialization.obj
 0004:000023d0       $pdata$??$uninitialize_environment_internal@D@@YAXAEAPEAPEAD@Z 00000001800593d0     libucrt:environment_initialization.obj
 0004:000023dc       $pdata$??$uninitialize_environment_internal@_W@@YAXAEAPEAPEA_W@Z 00000001800593dc     libucrt:environment_initialization.obj
 0004:000023e8       $pdata$__dcrt_uninitialize_environments_nolock 00000001800593e8     libucrt:environment_initialization.obj
 0004:000023f4       $pdata$??$?RV<lambda_638799b9deba96c50f710eeac98168cd>@@AEAV<lambda_22ebabd17bc4fa466a2aca6d8deb888d>@@V<lambda_a6f7d7db0129f75315ebf26d50c089f1>@@@?$__crt_seh_guarded_call@H@@QEAAH$$QEAV<lambda_638799b9deba96c50f710eeac98168cd>@@AEAV<lambda_22ebabd17bc4fa466a2aca6d8deb888d>@@$$QEAV<lambda_a6f7d7db0129f75315ebf26d50c089f1>@@@Z 00000001800593f4     libucrt:onexit.obj
 0004:00002400       $pdata$??$?RV<lambda_7777bce6b2f8c936911f934f8298dc43>@@AEAV<lambda_f03950bc5685219e0bcd2087efbe011e>@@V<lambda_3883c3dff614d5e0c5f61bb1ac94921c>@@@?$__crt_seh_guarded_call@H@@QEAAH$$QEAV<lambda_7777bce6b2f8c936911f934f8298dc43>@@AEAV<lambda_f03950bc5685219e0bcd2087efbe011e>@@$$QEAV<lambda_3883c3dff614d5e0c5f61bb1ac94921c>@@@Z 0000000180059400     libucrt:onexit.obj
 0004:0000240c       $pdata$??R<lambda_22ebabd17bc4fa466a2aca6d8deb888d>@@QEBAHXZ 000000018005940c     libucrt:onexit.obj
 0004:00002418       $pdata$??R<lambda_f03950bc5685219e0bcd2087efbe011e>@@QEBAHXZ 0000000180059418     libucrt:onexit.obj
 0004:00002424       $pdata$_execute_onexit_table 0000000180059424     libucrt:onexit.obj
 0004:00002430       $pdata$_register_onexit_function 0000000180059430     libucrt:onexit.obj
 0004:0000243c       $pdata$initialize_c        000000018005943c     libucrt:initialization.obj
 0004:00002448       $pdata$uninitialize_environment 0000000180059448     libucrt:initialization.obj
 0004:00002454       $pdata$initialize_pointers 0000000180059454     libucrt:initialization.obj
 0004:00002460       $pdata$uninitialize_allocated_memory 0000000180059460     libucrt:initialization.obj
 0004:0000246c       $pdata$uninitialize_allocated_io_buffers 000000018005946c     libucrt:initialization.obj
 0004:00002478       $pdata$__acrt_thread_attach 0000000180059478     libucrt:initialization.obj
 0004:00002484       $pdata$__acrt_thread_detach 0000000180059484     libucrt:initialization.obj
 0004:00002490       $pdata$__acrt_uninitialize 0000000180059490     libucrt:initialization.obj
 0004:0000249c       $pdata$__acrt_uninitialize_critical 000000018005949c     libucrt:initialization.obj
 0004:000024a8       $pdata$terminate           00000001800594a8     libucrt:terminate.obj
 0004:000024b4       $pdata$abort               00000001800594b4     libucrt:abort.obj
 0004:000024c0       $pdata$_free_base          00000001800594c0     libucrt:free_base.obj
 0004:000024cc       $pdata$_malloc_base        00000001800594cc     libucrt:malloc_base.obj
 0004:000024d8       $pdata$strcpy_s            00000001800594d8     libucrt:strcpy_s.obj
 0004:000024e4       $pdata$??$common_vsprintf@Vformat_validation_base@__crt_stdio_output@@D@@YAH_KQEAD0QEBDQEAU__crt_locale_pointers@@1@Z 00000001800594e4     libucrt:output.obj
 0004:000024f0       $pdata$??$ensure_buffer_is_big_enough@D@formatting_buffer@__crt_stdio_output@@QEAA_N_K@Z 00000001800594f0     libucrt:output.obj
 0004:000024fc       $pdata$??$type_case_integer_parse_into_buffer@I@?$output_processor@DV?$string_output_adapter@D@__crt_stdio_output@@V?$format_validation_base@DV?$string_output_adapter@D@__crt_stdio_output@@@2@@__crt_stdio_output@@AEAAXII_N@Z 00000001800594fc     libucrt:output.obj
 0004:00002508       $pdata$??$type_case_integer_parse_into_buffer@_K@?$output_processor@DV?$string_output_adapter@D@__crt_stdio_output@@V?$format_validation_base@DV?$string_output_adapter@D@__crt_stdio_output@@@2@@__crt_stdio_output@@AEAAX_KI_N@Z 0000000180059508     libucrt:output.obj
 0004:00002514       $pdata$??$write_multiple_characters@V?$string_output_adapter@D@__crt_stdio_output@@D@__crt_stdio_output@@YAXAEBV?$string_output_adapter@D@0@DHQEAH@Z 0000000180059514     libucrt:output.obj
 0004:00002520       $pdata$??0_LocaleUpdate@@QEAA@QEAU__crt_locale_pointers@@@Z 0000000180059520     libucrt:output.obj
 0004:0000252c       $pdata$?force_decimal_point@__crt_stdio_output@@YAXPEADQEAU__crt_locale_pointers@@@Z 000000018005952c     libucrt:output.obj
 0004:00002538       $pdata$?parse_int_from_format_string@?$output_processor@DV?$string_output_adapter@D@__crt_stdio_output@@V?$format_validation_base@DV?$string_output_adapter@D@__crt_stdio_output@@@2@@__crt_stdio_output@@AEAA_NQEAH@Z 0000000180059538     libucrt:output.obj
 0004:00002544       $pdata$?process@?$output_processor@DV?$string_output_adapter@D@__crt_stdio_output@@V?$format_validation_base@DV?$string_output_adapter@D@__crt_stdio_output@@@2@@__crt_stdio_output@@QEAAHXZ 0000000180059544     libucrt:output.obj
 0004:00002550       $pdata$?state_case_normal@?$output_processor@DV?$string_output_adapter@D@__crt_stdio_output@@V?$format_validation_base@DV?$string_output_adapter@D@__crt_stdio_output@@@2@@__crt_stdio_output@@AEAA_NXZ 0000000180059550     libucrt:output.obj
 0004:0000255c       $pdata$?state_case_normal_tchar@?$output_processor@DV?$string_output_adapter@D@__crt_stdio_output@@V?$format_validation_base@DV?$string_output_adapter@D@__crt_stdio_output@@@2@@__crt_stdio_output@@AEAA_ND@Z 000000018005955c     libucrt:output.obj
 0004:00002568       $pdata$?state_case_size@?$output_processor@DV?$string_output_adapter@D@__crt_stdio_output@@V?$format_validation_base@DV?$string_output_adapter@D@__crt_stdio_output@@@2@@__crt_stdio_output@@AEAA_NXZ 0000000180059568     libucrt:output.obj
 0004:00002574       $pdata$?state_case_type@?$output_processor@DV?$string_output_adapter@D@__crt_stdio_output@@V?$format_validation_base@DV?$string_output_adapter@D@__crt_stdio_output@@@2@@__crt_stdio_output@@AEAA_NXZ 0000000180059574     libucrt:output.obj
 0004:00002580       $pdata$?type_case_a@?$output_processor@DV?$string_output_adapter@D@__crt_stdio_output@@V?$format_validation_base@DV?$string_output_adapter@D@__crt_stdio_output@@@2@@__crt_stdio_output@@AEAA_NXZ 0000000180059580     libucrt:output.obj
 0004:0000258c       $pdata$?type_case_c_tchar@?$output_processor@DV?$string_output_adapter@D@__crt_stdio_output@@V?$format_validation_base@DV?$string_output_adapter@D@__crt_stdio_output@@@2@@__crt_stdio_output@@AEAA_ND@Z 000000018005958c     libucrt:output.obj
 0004:00002598       $pdata$?type_case_integer@?$output_processor@DV?$string_output_adapter@D@__crt_stdio_output@@V?$format_validation_base@DV?$string_output_adapter@D@__crt_stdio_output@@@2@@__crt_stdio_output@@AEAA_NI_N@Z 0000000180059598     libucrt:output.obj
 0004:000025a4       $pdata$?type_case_n@?$output_processor@DV?$string_output_adapter@D@__crt_stdio_output@@V?$format_validation_base@DV?$string_output_adapter@D@__crt_stdio_output@@@2@@__crt_stdio_output@@AEAA_NXZ 00000001800595a4     libucrt:output.obj
 0004:000025b0       $pdata$?type_case_s@?$output_processor@DV?$string_output_adapter@D@__crt_stdio_output@@V?$format_validation_base@DV?$string_output_adapter@D@__crt_stdio_output@@@2@@__crt_stdio_output@@AEAA_NXZ 00000001800595b0     libucrt:output.obj
 0004:000025bc       $pdata$?write_stored_string_tchar@?$output_processor@DV?$string_output_adapter@D@__crt_stdio_output@@V?$format_validation_base@DV?$string_output_adapter@D@__crt_stdio_output@@@2@@__crt_stdio_output@@AEAA_ND@Z 00000001800595bc     libucrt:output.obj
 0004:000025c8       $pdata$?write_string@?$string_output_adapter@D@__crt_stdio_output@@QEBAXQEBDHQEAHAEAV__crt_deferred_errno_cache@@@Z 00000001800595c8     libucrt:output.obj
 0004:000025d4       $pdata$__stdio_common_vsprintf_s 00000001800595d4     libucrt:output.obj
 0004:000025e0       $pdata$??$parse_integer@KV?$c_string_character_source@D@__crt_strtox@@@__crt_strtox@@YAKQEAU__crt_locale_pointers@@V?$c_string_character_source@D@0@H_N@Z 00000001800595e0     libucrt:atox.obj
 0004:000025ec       $pdata$atol                00000001800595ec     libucrt:atox.obj
 0004:000025f8       $pdata$_calloc_base        00000001800595f8     libucrt:calloc_base.obj
 0004:00002604       $pdata$_clrfp              0000000180059604     libucrt:fpctrl.obj
 0004:00002610       $pdata$_ctrlfp             0000000180059610     libucrt:fpctrl.obj
 0004:0000261c       $pdata$_set_statfp         000000018005961c     libucrt:fpctrl.obj
 0004:00002628       $pdata$_statfp             0000000180059628     libucrt:fpctrl.obj
 0004:00002634       $pdata$_call_matherr       0000000180059634     libucrt:libm_error.obj
 0004:00002640       $pdata$_exception_enabled  0000000180059640     libucrt:libm_error.obj
 0004:0000264c       $pdata$_handle_error       000000018005964c     libucrt:libm_error.obj
 0004:00002658       $pdata$_handle_errorf      0000000180059658     libucrt:libm_error.obj
 0004:00002664       $pdata$_powf_special       0000000180059664     libucrt:pow_special.obj
 0004:00002670       $pdata$__acrt_initialize_fma3 0000000180059670     libucrt:fma3_available.obj
 0004:000026a0       $pdata$_sincosf_special    00000001800596a0     libucrt:sincos_special.obj
 0004:000026b8       $pdata$??$?RV<lambda_0ae27a3a962d80f24befdcbee591983d>@@AEAV<lambda_8d0ee55de4b1038c4002e0adecdf1839>@@V<lambda_dc504788e8f1664fe9b84e20bfb512f2>@@@?$__crt_seh_guarded_call@X@@QEAAX$$QEAV<lambda_0ae27a3a962d80f24befdcbee591983d>@@AEAV<lambda_8d0ee55de4b1038c4002e0adecdf1839>@@$$QEAV<lambda_dc504788e8f1664fe9b84e20bfb512f2>@@@Z 00000001800596b8     libucrt:per_thread_data.obj
 0004:000026c4       $pdata$??$?RV<lambda_2d41944a1d46af3157314b8a01080d33>@@AEAV<lambda_8f455de75cd7d7f24b4096f044d8b9e6>@@V<lambda_aa500f224e6afead328df44964fe2772>@@@?$__crt_seh_guarded_call@X@@QEAAX$$QEAV<lambda_2d41944a1d46af3157314b8a01080d33>@@AEAV<lambda_8f455de75cd7d7f24b4096f044d8b9e6>@@$$QEAV<lambda_aa500f224e6afead328df44964fe2772>@@@Z 00000001800596c4     libucrt:per_thread_data.obj
 0004:000026d0       $pdata$??$?RV<lambda_aa87e3671a710a21b5dc78c0bdf72e11>@@AEAV<lambda_92619d2358a28f41a33ba319515a20b9>@@V<lambda_6992ecaafeb10aed2b74cb1fae11a551>@@@?$__crt_seh_guarded_call@X@@QEAAX$$QEAV<lambda_aa87e3671a710a21b5dc78c0bdf72e11>@@AEAV<lambda_92619d2358a28f41a33ba319515a20b9>@@$$QEAV<lambda_6992ecaafeb10aed2b74cb1fae11a551>@@@Z 00000001800596d0     libucrt:per_thread_data.obj
 0004:000026dc       $pdata$??$?RV<lambda_f2e299630e499de9f9a165e60fcd3db5>@@AEAV<lambda_2ae9d31cdba2644fcbeaf08da7c24588>@@V<lambda_40d01ff24d0e7b3814fdbdcee8eab3c7>@@@?$__crt_seh_guarded_call@X@@QEAAX$$QEAV<lambda_f2e299630e499de9f9a165e60fcd3db5>@@AEAV<lambda_2ae9d31cdba2644fcbeaf08da7c24588>@@$$QEAV<lambda_40d01ff24d0e7b3814fdbdcee8eab3c7>@@@Z 00000001800596dc     libucrt:per_thread_data.obj
 0004:000026e8       $pdata$?construct_ptd_array@@YAXQEAU__acrt_ptd@@@Z 00000001800596e8     libucrt:per_thread_data.obj
 0004:000026f4       $pdata$?destroy_fls@@YAXPEAX@Z 00000001800596f4     libucrt:per_thread_data.obj
 0004:00002700       $pdata$?destroy_ptd_array@@YAXQEAU__acrt_ptd@@@Z 0000000180059700     libucrt:per_thread_data.obj
 0004:0000270c       $pdata$?replace_current_thread_locale_nolock@@YAXQEAU__acrt_ptd@@QEAU__crt_locale_data@@@Z 000000018005970c     libucrt:per_thread_data.obj
 0004:00002718       $pdata$__acrt_freeptd      0000000180059718     libucrt:per_thread_data.obj
 0004:00002724       $pdata$__acrt_getptd       0000000180059724     libucrt:per_thread_data.obj
 0004:00002730       $pdata$__acrt_getptd_head  0000000180059730     libucrt:per_thread_data.obj
 0004:0000273c       $pdata$__acrt_getptd_noexit 000000018005973c     libucrt:per_thread_data.obj
 0004:00002748       $pdata$__acrt_initialize_ptd 0000000180059748     libucrt:per_thread_data.obj
 0004:00002754       $pdata$__acrt_uninitialize_ptd 0000000180059754     libucrt:per_thread_data.obj
 0004:00002760       $pdata$__acrt_initialize_locks 0000000180059760     libucrt:locks.obj
 0004:0000276c       $pdata$__acrt_uninitialize_locks 000000018005976c     libucrt:locks.obj
 0004:00002778       $pdata$__acrt_get_process_end_policy 0000000180059778     libucrt:win_policies.obj
 0004:00002784       $pdata$__acrt_call_reportfault 0000000180059784     libucrt:invalid_parameter.obj
 0004:00002790       $pdata$_invalid_parameter  0000000180059790     libucrt:invalid_parameter.obj
 0004:0000279c       $pdata$_invalid_parameter_noinfo 000000018005979c     libucrt:invalid_parameter.obj
 0004:000027a8       $pdata$_invoke_watson      00000001800597a8     libucrt:invalid_parameter.obj
 0004:000027b4       $pdata$__acrt_errno_map_os_error 00000001800597b4     libucrt:errno.obj
 0004:000027c0       $pdata$__doserrno          00000001800597c0     libucrt:errno.obj
 0004:000027cc       $pdata$_errno              00000001800597cc     libucrt:errno.obj
 0004:000027d8       $pdata$??$__acrt_mbs_to_wcs_cp@U__crt_win32_buffer_internal_dynamic_resizing@@@@YAHQEBDAEAV?$__crt_win32_buffer@_WU__crt_win32_buffer_internal_dynamic_resizing@@@@I@Z 00000001800597d8     libucrt:argv_wildcards.obj
 0004:000027e4       $pdata$??$__acrt_wcs_to_mbs_cp@U__crt_win32_buffer_internal_dynamic_resizing@@@@YAHQEB_WAEAV?$__crt_win32_buffer@DU__crt_win32_buffer_internal_dynamic_resizing@@@@I@Z 00000001800597e4     libucrt:argv_wildcards.obj
 0004:000027f0       $pdata$??$common_expand_argv_wildcards@D@@YAHQEAPEADQEAPEAPEAD@Z 00000001800597f0     libucrt:argv_wildcards.obj
 0004:000027fc       $pdata$??$copy_and_add_argument_to_buffer@D@@YAHQEBD0_KAEAV?$argument_list@D@?A0x5f5c8891@@@Z 00000001800597fc     libucrt:argv_wildcards.obj
 0004:00002808       $pdata$??$expand_argument_wildcards@D@@YAHQEAD0AEAV?$argument_list@D@?A0x5f5c8891@@@Z 0000000180059808     libucrt:argv_wildcards.obj
 0004:00002814       $pdata$??$__acrt_wcs_to_mbs_cp@U__crt_win32_buffer_no_resizing@@@@YAHQEB_WAEAV?$__crt_win32_buffer@DU__crt_win32_buffer_no_resizing@@@@I@Z 0000000180059814     libucrt:getmodulefilenamea.obj
 0004:00002820       $pdata$__acrt_GetModuleFileNameA 0000000180059820     libucrt:getmodulefilenamea.obj
 0004:0000282c       $pdata$??$?RV<lambda_efdfa57d1f175319df784efa44bb7b81>@@AEAV<lambda_5f0a4c1567f8adc6734073e5d1e1b35c>@@V<lambda_2e8a7d3640ea6ccb4c2413664c2db6fd>@@@?$__crt_seh_guarded_call@X@@QEAAX$$QEAV<lambda_efdfa57d1f175319df784efa44bb7b81>@@AEAV<lambda_5f0a4c1567f8adc6734073e5d1e1b35c>@@$$QEAV<lambda_2e8a7d3640ea6ccb4c2413664c2db6fd>@@@Z 000000018005982c     libucrt:mbctype.obj
 0004:00002838       $pdata$?getSystemCP@@YAHH@Z 0000000180059838     libucrt:mbctype.obj
 0004:00002844       $pdata$?setSBCS@@YAXPEAU__crt_multibyte_data@@@Z 0000000180059844     libucrt:mbctype.obj
 0004:00002850       $pdata$?setSBUpLow@@YAXPEAU__crt_multibyte_data@@@Z 0000000180059850     libucrt:mbctype.obj
 0004:0000285c       $pdata$?setmbcp_internal@@YAHH_NQEAU__acrt_ptd@@QEAPEAU__crt_multibyte_data@@@Z 000000018005985c     libucrt:mbctype.obj
 0004:00002868       $pdata$?update_thread_multibyte_data_internal@@YAPEAU__crt_multibyte_data@@QEAU__acrt_ptd@@QEAPEAU1@@Z 0000000180059868     libucrt:mbctype.obj
 0004:00002874       $pdata$__acrt_initialize_multibyte 0000000180059874     libucrt:mbctype.obj
 0004:00002880       $pdata$__acrt_update_thread_multibyte_data 0000000180059880     libucrt:mbctype.obj
 0004:0000288c       $pdata$_setmbcp_nolock     000000018005988c     libucrt:mbctype.obj
 0004:00002898       $pdata$?x_ismbbtype_l@@YAHPEAU__crt_locale_pointers@@IHH@Z 0000000180059898     libucrt:ismbbyte.obj
 0004:000028a4       $pdata$__acrt_initialize_command_line 00000001800598a4     libucrt:argv_data.obj
 0004:000028b0       $pdata$__acrt_WideCharToMultiByte 00000001800598b0     libucrt:widechartomultibyte.obj
 0004:000028bc       $pdata$__dcrt_get_narrow_environment_from_os 00000001800598bc     libucrt:get_environment_from_os.obj
 0004:000028c8       $pdata$_recalloc_base      00000001800598c8     libucrt:recalloc.obj
 0004:000028d4       $pdata$?try_get_function@@YAPEAXW4function_id@?A0x391cf84c@@QEBDQEBW4module_id@2@2@Z 00000001800598d4     libucrt:winapi_thunks.obj
 0004:000028e0       $pdata$__acrt_AppPolicyGetProcessTerminationMethodInternal 00000001800598e0     libucrt:winapi_thunks.obj
 0004:000028ec       $pdata$__acrt_AreFileApisANSI 00000001800598ec     libucrt:winapi_thunks.obj
 0004:000028f8       $pdata$__acrt_FlsAlloc     00000001800598f8     libucrt:winapi_thunks.obj
 0004:00002904       $pdata$__acrt_FlsFree      0000000180059904     libucrt:winapi_thunks.obj
 0004:00002910       $pdata$__acrt_FlsGetValue  0000000180059910     libucrt:winapi_thunks.obj
 0004:0000291c       $pdata$__acrt_FlsSetValue  000000018005991c     libucrt:winapi_thunks.obj
 0004:00002928       $pdata$__acrt_InitializeCriticalSectionEx 0000000180059928     libucrt:winapi_thunks.obj
 0004:00002934       $pdata$__acrt_LCMapStringEx 0000000180059934     libucrt:winapi_thunks.obj
 0004:00002940       $pdata$__acrt_LocaleNameToLCID 0000000180059940     libucrt:winapi_thunks.obj
 0004:0000294c       $pdata$__acrt_initialize_winapi_thunks 000000018005994c     libucrt:winapi_thunks.obj
 0004:00002958       $pdata$__acrt_uninitialize_winapi_thunks 0000000180059958     libucrt:winapi_thunks.obj
 0004:00002964       $pdata$__acrt_initialize_heap 0000000180059964     libucrt:heap_handle.obj
 0004:00002970       $pdata$?initialize_inherited_file_handles_nolock@@YAXXZ 0000000180059970     libucrt:ioinit.obj
 0004:0000297c       $pdata$?initialize_stdio_handles_nolock@@YAXXZ 000000018005997c     libucrt:ioinit.obj
 0004:00002988       $pdata$__acrt_initialize_lowio 0000000180059988     libucrt:ioinit.obj
 0004:00002994       $pdata$__acrt_uninitialize_lowio 0000000180059994     libucrt:ioinit.obj
 0004:000029a0       $pdata$__acrt_execute_initializers 00000001800599a0     libucrt:shared_initialization.obj
 0004:000029ac       $pdata$__acrt_execute_uninitializers 00000001800599ac     libucrt:shared_initialization.obj
 0004:000029b8       $pdata$_callnewh           00000001800599b8     libucrt:new_handler.obj
 0004:000029c4       $pdata$_query_new_handler  00000001800599c4     libucrt:new_handler.obj
 0004:000029d0       $pdata$??$?RV<lambda_450d765d439847d4c735a33c368b5fc0>@@AEAV<lambda_44731a7d0e6d81c3e6aa82d741081786>@@V<lambda_601a2a7da3b7a96e9554ac7215c4b07c>@@@?$__crt_seh_guarded_call@P6AXH@Z@@QEAAP6AXH@Z$$QEAV<lambda_450d765d439847d4c735a33c368b5fc0>@@AEAV<lambda_44731a7d0e6d81c3e6aa82d741081786>@@$$QEAV<lambda_601a2a7da3b7a96e9554ac7215c4b07c>@@@Z 00000001800599d0     libucrt:signal.obj
 0004:000029dc       $pdata$__acrt_get_sigabrt_handler 00000001800599dc     libucrt:signal.obj
 0004:000029e8       $pdata$raise               00000001800599e8     libucrt:signal.obj
 0004:000029f4       $pdata$??$?RV<lambda_842d9ff0dc9ef11c61343bbaebe7f885>@@AEAV<lambda_c5860995281e5c4ce005b3de8f5874ee>@@V<lambda_d90129c13df834fdcbf8d2b88dafcf2d>@@@?$__crt_seh_guarded_call@X@@QEAAX$$QEAV<lambda_842d9ff0dc9ef11c61343bbaebe7f885>@@AEAV<lambda_c5860995281e5c4ce005b3de8f5874ee>@@$$QEAV<lambda_d90129c13df834fdcbf8d2b88dafcf2d>@@@Z 00000001800599f4     libucrt:fflush.obj
 0004:00002a00       $pdata$??$?RV<lambda_886d6c58226a84441f68b9f2b8217b83>@@AEAV<lambda_ab61a845afdef5b7c387490eaf3616ee>@@V<lambda_f7f22ab5edc0698d5f6905b0d3f44752>@@@?$__crt_seh_guarded_call@X@@QEAAX$$QEAV<lambda_886d6c58226a84441f68b9f2b8217b83>@@AEAV<lambda_ab61a845afdef5b7c387490eaf3616ee>@@$$QEAV<lambda_f7f22ab5edc0698d5f6905b0d3f44752>@@@Z 0000000180059a00     libucrt:fflush.obj
 0004:00002a0c       $pdata$?common_flush_all@@YAH_N@Z 0000000180059a0c     libucrt:fflush.obj
 0004:00002a18       $pdata$__acrt_stdio_flush_nolock 0000000180059a18     libucrt:fflush.obj
 0004:00002a24       $pdata$_fflush_nolock      0000000180059a24     libucrt:fflush.obj
 0004:00002a30       $pdata$__acrt_initialize_stdio 0000000180059a30     libucrt:_file.obj
 0004:00002a3c       $pdata$__acrt_uninitialize_stdio 0000000180059a3c     libucrt:_file.obj
 0004:00002a48       $pdata$isdigit             0000000180059a48     libucrt:_ctype.obj
 0004:00002a54       $pdata$?internal_isupper_l@@YA_NHQEAU__crt_locale_pointers@@@Z 0000000180059a54     libucrt:tolower_toupper.obj
 0004:00002a60       $pdata$_tolower_l          0000000180059a60     libucrt:tolower_toupper.obj
 0004:00002a6c       $pdata$tolower             0000000180059a6c     libucrt:tolower_toupper.obj
 0004:00002a78       $pdata$strtol              0000000180059a78     libucrt:strtox.obj
 0004:00002a84       $pdata$_mbtowc_l           0000000180059a84     libucrt:mbtowc.obj
 0004:00002a90       $pdata$_wctomb_s_l         0000000180059a90     libucrt:wctomb.obj
 0004:00002a9c       $pdata$wctomb_s            0000000180059a9c     libucrt:wctomb.obj
 0004:00002aa8       $pdata$__acrt_update_locale_info 0000000180059aa8     libucrt:locale_update.obj
 0004:00002ab4       $pdata$__acrt_update_multibyte_info 0000000180059ab4     libucrt:locale_update.obj
 0004:00002ac0       $pdata$?fp_format_a@@YAHQEBNPEAD_KQEAD2H_NIQEAU__crt_locale_pointers@@@Z 0000000180059ac0     libucrt:cvt.obj
 0004:00002acc       $pdata$?fp_format_e@@YAHQEBNQEAD_K12H_NIQEAU__crt_locale_pointers@@@Z 0000000180059acc     libucrt:cvt.obj
 0004:00002ad8       $pdata$?fp_format_e_internal@@YAHQEAD_KH_NIQEAU_strflt@@2QEAU__crt_locale_pointers@@@Z 0000000180059ad8     libucrt:cvt.obj
 0004:00002ae4       $pdata$?fp_format_f_internal@@YAHQEAD_KHQEAU_strflt@@_NQEAU__crt_locale_pointers@@@Z 0000000180059ae4     libucrt:cvt.obj
 0004:00002af0       $pdata$?fp_format_g@@YAHQEBNQEAD_K12H_NIQEAU__crt_locale_pointers@@@Z 0000000180059af0     libucrt:cvt.obj
 0004:00002afc       $pdata$?fp_format_nan_or_infinity@@YAHW4__acrt_fp_class@@_NPEAD_K1@Z 0000000180059afc     libucrt:cvt.obj
 0004:00002b08       $pdata$__acrt_fp_format    0000000180059b08     libucrt:cvt.obj
 0004:00002b14       $pdata$_fileno             0000000180059b14     libucrt:fileno.obj
 0004:00002b20       $pdata$??$?RV<lambda_410d79af7f07d98d83a3f525b3859a53>@@AEAV<lambda_3e16ef9562a7dcce91392c22ab16ea36>@@V<lambda_38119f0e861e05405d8a144b9b982f0a>@@@?$__crt_seh_guarded_call@X@@QEAAX$$QEAV<lambda_410d79af7f07d98d83a3f525b3859a53>@@AEAV<lambda_3e16ef9562a7dcce91392c22ab16ea36>@@$$QEAV<lambda_38119f0e861e05405d8a144b9b982f0a>@@@Z 0000000180059b20     libucrt:wsetlocale.obj
 0004:00002b2c       $pdata$__acrt_uninitialize_locale 0000000180059b2c     libucrt:wsetlocale.obj
 0004:00002b38       $pdata$__pctype_func       0000000180059b38     libucrt:ctype.obj
 0004:00002b44       $pdata$_isctype_l          0000000180059b44     libucrt:isctype.obj
 0004:00002b5c       $pdata$_raise_exc          0000000180059b5c     libucrt:fpexcept.obj
 0004:00002b68       $pdata$_raise_exc_ex       0000000180059b68     libucrt:fpexcept.obj
 0004:00002b74       $pdata$_raise_excf         0000000180059b74     libucrt:fpexcept.obj
 0004:00002b80       $pdata$_set_errno_from_matherr 0000000180059b80     libucrt:fpexcept.obj
 0004:00002b8c       $pdata$__acrt_free_locale  0000000180059b8c     libucrt:locale_refcounting.obj
 0004:00002b98       $pdata$__acrt_locale_free_lc_time_if_unreferenced 0000000180059b98     libucrt:locale_refcounting.obj
 0004:00002ba4       $pdata$__acrt_release_locale_ref 0000000180059ba4     libucrt:locale_refcounting.obj
 0004:00002bb0       $pdata$__acrt_update_thread_locale_data 0000000180059bb0     libucrt:locale_refcounting.obj
 0004:00002bbc       $pdata$_updatetlocinfoEx_nolock 0000000180059bbc     libucrt:locale_refcounting.obj
 0004:00002bc8       $pdata$qsort               0000000180059bc8     libucrt:qsort.obj
 0004:00002bd4       $pdata$4$qsort             0000000180059bd4     libucrt:qsort.obj
 0004:00002be0       $pdata$5$qsort             0000000180059be0     libucrt:qsort.obj
 0004:00002bec       $pdata$strncpy_s           0000000180059bec     libucrt:strncpy_s.obj
 0004:00002bf8       $pdata$fallbackMethod      0000000180059bf8     libucrt:strpbrk.obj
 0004:00002c04       $pdata$strpbrk             0000000180059c04     libucrt:strpbrk.obj
 0004:00002c10       $pdata$_mbsdec_l           0000000180059c10     libucrt:mbsdec.obj
 0004:00002c1c       $pdata$?initialize_multibyte@@YAHXZ 0000000180059c1c     libucrt:multibyte_initializer.obj
 0004:00002c28       $pdata$__acrt_GetStringTypeA 0000000180059c28     libucrt:getstringtypea.obj
 0004:00002c34       $pdata$?__acrt_LCMapStringA_stat@@YAHPEAU__crt_locale_pointers@@PEB_WKPEBDHPEADHHH@Z 0000000180059c34     libucrt:lcmapstringa.obj
 0004:00002c40       $pdata$__acrt_LCMapStringA 0000000180059c40     libucrt:lcmapstringa.obj
 0004:00002c4c       $pdata$_msize_base         0000000180059c4c     libucrt:msize.obj
 0004:00002c58       $pdata$_realloc_base       0000000180059c58     libucrt:realloc_base.obj
 0004:00002c64       $pdata$?GetTableIndexFromLocaleName@@YAHPEB_W@Z 0000000180059c64     libucrt:lcidtoname_downlevel.obj
 0004:00002c70       $pdata$__acrt_DownlevelLocaleNameToLCID 0000000180059c70     libucrt:lcidtoname_downlevel.obj
 0004:00002c7c       $pdata$__acrt_lowio_create_handle_array 0000000180059c7c     libucrt:osfinfo.obj
 0004:00002c88       $pdata$__acrt_lowio_destroy_handle_array 0000000180059c88     libucrt:osfinfo.obj
 0004:00002c94       $pdata$__acrt_lowio_ensure_fh_exists 0000000180059c94     libucrt:osfinfo.obj
 0004:00002ca0       $pdata$_free_osfhnd        0000000180059ca0     libucrt:osfinfo.obj
 0004:00002cac       $pdata$_get_osfhandle      0000000180059cac     libucrt:osfinfo.obj
 0004:00002cb8       $pdata$??$?RV<lambda_a37b2b86f63e897a80ea819b0eb08c01>@@AEAV<lambda_38ce7e780aa69e748d6df282ebc68efe>@@V<lambda_99fb1378e971ab6e7edea83e3a7a83a2>@@@?$__crt_seh_guarded_call@H@@QEAAH$$QEAV<lambda_a37b2b86f63e897a80ea819b0eb08c01>@@AEAV<lambda_38ce7e780aa69e748d6df282ebc68efe>@@$$QEAV<lambda_99fb1378e971ab6e7edea83e3a7a83a2>@@@Z 0000000180059cb8     libucrt:commit.obj
 0004:00002cc4       $pdata$_commit             0000000180059cc4     libucrt:commit.obj
 0004:00002cd0       $pdata$?write_double_translated_ansi_nolock@@YA?AUwrite_result@?A0x17268360@@HQEBDI@Z 0000000180059cd0     libucrt:write.obj
 0004:00002cdc       $pdata$?write_text_ansi_nolock@@YA?AUwrite_result@?A0x17268360@@HQEBDI@Z 0000000180059cdc     libucrt:write.obj
 0004:00002ce8       $pdata$?write_text_utf16le_nolock@@YA?AUwrite_result@?A0x17268360@@HQEBDI@Z 0000000180059ce8     libucrt:write.obj
 0004:00002cf4       $pdata$?write_text_utf8_nolock@@YA?AUwrite_result@?A0x17268360@@HQEBDI@Z 0000000180059cf4     libucrt:write.obj
 0004:00002d00       $pdata$_write              0000000180059d00     libucrt:write.obj
 0004:00002d0c       $pdata$_write_nolock       0000000180059d0c     libucrt:write.obj
 0004:00002d18       $pdata$_fcloseall          0000000180059d18     libucrt:closeall.obj
 0004:00002d24       $pdata$__acrt_stdio_free_buffer_nolock 0000000180059d24     libucrt:_freebuf.obj
 0004:00002d30       $pdata$_isatty             0000000180059d30     libucrt:isatty.obj
 0004:00002d3c       $pdata$_isleadbyte_l       0000000180059d3c     libucrt:_wctype.obj
 0004:00002d48       $pdata$?__mbrtowc_utf8@__crt_mbstring@@YA_KPEA_WPEBD_KPEAU_Mbstatet@@@Z 0000000180059d48     libucrt:mbrtowc.obj
 0004:00002d54       $pdata$?__mbsrtowcs_utf8@__crt_mbstring@@YA_KPEA_WPEAPEBD_KPEAU_Mbstatet@@@Z 0000000180059d54     libucrt:mbrtowc.obj
 0004:00002d60       $pdata$?__c32rtomb_utf8@__crt_mbstring@@YA_KPEAD_UPEAU_Mbstatet@@@Z 0000000180059d60     libucrt:c32rtomb.obj
 0004:00002d6c       $pdata$__acrt_fp_strflt_to_string 0000000180059d6c     libucrt:_fptostr.obj
 0004:00002d78       $pdata$?divide@__crt_strtox@@YA_KAEAUbig_integer@1@AEBU21@@Z 0000000180059d78     libucrt:cfout.obj
 0004:00002d84       $pdata$0$?divide@__crt_strtox@@YA_KAEAUbig_integer@1@AEBU21@@Z 0000000180059d84     libucrt:cfout.obj
 0004:00002d90       $pdata$1$?divide@__crt_strtox@@YA_KAEAUbig_integer@1@AEBU21@@Z 0000000180059d90     libucrt:cfout.obj
 0004:00002d9c       $pdata$__acrt_fltout       0000000180059d9c     libucrt:cfout.obj
 0004:00002da8       $pdata$memcpy_s            0000000180059da8     libucrt:cfout.obj
 0004:00002db4       $pdata$__acrt_locale_free_monetary 0000000180059db4     libucrt:initmon.obj
 0004:00002dc0       $pdata$__acrt_locale_free_numeric 0000000180059dc0     libucrt:initnum.obj
 0004:00002dcc       $pdata$?free_crt_array_internal@@YAXQEAPEBX_K@Z 0000000180059dcc     libucrt:inittime.obj
 0004:00002dd8       $pdata$__acrt_locale_free_time 0000000180059dd8     libucrt:inittime.obj
 0004:00002de4       $pdata$??$common_lseek_nolock@_J@@YA_JH_JH@Z 0000000180059de4     libucrt:lseek.obj
 0004:00002df0       $pdata$_putwch_nolock      0000000180059df0     libucrt:putwch.obj
 0004:00002dfc       $pdata$_fclose_nolock      0000000180059dfc     libucrt:fclose.obj
 0004:00002e08       $pdata$fclose              0000000180059e08     libucrt:fclose.obj
 0004:00002e14       $pdata$?__mbrtoc32_utf8@__crt_mbstring@@YA_KPEA_UPEBD_KPEAU_Mbstatet@@@Z 0000000180059e14     libucrt:mbrtoc32.obj
 0004:00002e20       $pdata$fegetenv            0000000180059e20     libucrt:fegetenv.obj
 0004:00002e2c       $pdata$fesetenv            0000000180059e2c     libucrt:fesetenv.obj
 0004:00002e38       $pdata$feholdexcept        0000000180059e38     libucrt:feholdexcept.obj
 0004:00002e50       $pdata$__acrt_fenv_set_control 0000000180059e50     libucrt:_fenvutils.obj
 0004:00002e5c       $pdata$__dcrt_lowio_ensure_console_output_initialized 0000000180059e5c     libucrt:initcon.obj
 0004:00002e68       $pdata$__dcrt_terminate_console_output 0000000180059e68     libucrt:initcon.obj
 0004:00002e74       $pdata$__dcrt_write_console 0000000180059e74     libucrt:initcon.obj
 0004:00002e80       $pdata$??$?RV<lambda_751a882b2c74d4b022dec766aa51a29a>@@AEAV<lambda_628dfdc04ba53c8bfc02c9951375f3f5>@@V<lambda_f6c7be5f7998530c34de24c7437d6b54>@@@?$__crt_seh_guarded_call@H@@QEAAH$$QEAV<lambda_751a882b2c74d4b022dec766aa51a29a>@@AEAV<lambda_628dfdc04ba53c8bfc02c9951375f3f5>@@$$QEAV<lambda_f6c7be5f7998530c34de24c7437d6b54>@@@Z 0000000180059e80     libucrt:close.obj
 0004:00002e8c       $pdata$_close              0000000180059e8c     libucrt:close.obj
 0004:00002e98       $pdata$_close_nolock       0000000180059e98     libucrt:close.obj
 0004:00002ea4       $pdata$_clearfp            0000000180059ea4     libucrt:ieee.obj
 0004:00002eb0       $pdata$_log10_special      0000000180059eb0     libucrt:log_special.obj
 0004:00002ebc       $pdata$_log_special_common 0000000180059ebc     libucrt:log_special.obj
 0004:00002ec8       $pdata$_IsNonwritableInCurrentImage 0000000180059ec8     LIBCMT:pesect.obj
 0004:00002ed4       $pdata$__GSHandlerCheck    0000000180059ed4     LIBCMT:_gshandler_.obj
 0004:00002ee0       $pdata$__GSHandlerCheckCommon 0000000180059ee0     LIBCMT:_gshandler_.obj
 0004:00002ef8       $pdata$__raise_securityfailure 0000000180059ef8     LIBCMT:gs_report.obj
 0004:00002f04       $pdata$__report_gsfailure  0000000180059f04     LIBCMT:gs_report.obj
 0004:00002f10       $pdata$__report_rangecheckfailure 0000000180059f10     LIBCMT:gs_report.obj
 0004:00002f1c       $pdata$__report_securityfailure 0000000180059f1c     LIBCMT:gs_report.obj
 0004:00002f28       $pdata$capture_current_context 0000000180059f28     LIBCMT:gs_report.obj
 0004:00002f34       $pdata$capture_previous_context 0000000180059f34     LIBCMT:gs_report.obj
 0004:00002f40       $pdata$strrchr             0000000180059f40     libvcruntime:strrchr.obj
 0004:00002f64       $pdata$?fin$0@?0??dllmain_crt_process_attach@@YAHQEAUHINSTANCE__@@QEAX@Z@4HA 0000000180059f64     LIBCMT:dll_dllmain.obj
 0004:00002f70       $pdata$?fin$0@?0??dllmain_crt_process_detach@@YAH_N@Z@4HA 0000000180059f70     LIBCMT:dll_dllmain.obj
 0004:00002f7c       $pdata$?filt$0@?0??dllmain_dispatch@@YAHQEAUHINSTANCE__@@KQEAX@Z@4HA 0000000180059f7c     LIBCMT:dll_dllmain.obj
 0004:00002f88       $pdata$__scrt_is_nonwritable_in_current_image$filt$0 0000000180059f88     LIBCMT:utility.obj
 0004:00002f94       $pdata$__unDName$fin$0     0000000180059f94     libvcruntime:undname.obj
 0004:00002fa0       $pdata$?filt$0@?0???R<lambda_6e4b09c48022b2350581041d5f6b0c4c>@@QEBA@XZ@4HA 0000000180059fa0     libucrt:exit.obj
 0004:00002fac       $pdata$_ctrlfp$filt$0      0000000180059fac     libucrt:fpctrl.obj
 0004:00002fb8       $pdata$?fin$0@?0???$?RV<lambda_0ae27a3a962d80f24befdcbee591983d>@@AEAV<lambda_8d0ee55de4b1038c4002e0adecdf1839>@@V<lambda_dc504788e8f1664fe9b84e20bfb512f2>@@@?$__crt_seh_guarded_call@X@@QEAAX$$QEAV<lambda_0ae27a3a962d80f24befdcbee591983d>@@AEAV<lambda_8d0ee55de4b1038c4002e0adecdf1839>@@$$QEAV<lambda_dc504788e8f1664fe9b84e20bfb512f2>@@@Z@4HA 0000000180059fb8     libucrt:per_thread_data.obj
 0004:00002fb8       $pdata$?fin$0@?0???$?RV<lambda_efdfa57d1f175319df784efa44bb7b81>@@AEAV<lambda_5f0a4c1567f8adc6734073e5d1e1b35c>@@V<lambda_2e8a7d3640ea6ccb4c2413664c2db6fd>@@@?$__crt_seh_guarded_call@X@@QEAAX$$QEAV<lambda_efdfa57d1f175319df784efa44bb7b81>@@AEAV<lambda_5f0a4c1567f8adc6734073e5d1e1b35c>@@$$QEAV<lambda_2e8a7d3640ea6ccb4c2413664c2db6fd>@@@Z@4HA 0000000180059fb8     libucrt:mbctype.obj
 0004:00002fb8       $pdata$?fin$0@?0???$?RV<lambda_aa87e3671a710a21b5dc78c0bdf72e11>@@AEAV<lambda_92619d2358a28f41a33ba319515a20b9>@@V<lambda_6992ecaafeb10aed2b74cb1fae11a551>@@@?$__crt_seh_guarded_call@X@@QEAAX$$QEAV<lambda_aa87e3671a710a21b5dc78c0bdf72e11>@@AEAV<lambda_92619d2358a28f41a33ba319515a20b9>@@$$QEAV<lambda_6992ecaafeb10aed2b74cb1fae11a551>@@@Z@4HA 0000000180059fb8     libucrt:per_thread_data.obj
 0004:00002fb8       $pdata$?fin$0@?0???$?RV<lambda_f2e299630e499de9f9a165e60fcd3db5>@@AEAV<lambda_2ae9d31cdba2644fcbeaf08da7c24588>@@V<lambda_40d01ff24d0e7b3814fdbdcee8eab3c7>@@@?$__crt_seh_guarded_call@X@@QEAAX$$QEAV<lambda_f2e299630e499de9f9a165e60fcd3db5>@@AEAV<lambda_2ae9d31cdba2644fcbeaf08da7c24588>@@$$QEAV<lambda_40d01ff24d0e7b3814fdbdcee8eab3c7>@@@Z@4HA 0000000180059fb8     libucrt:per_thread_data.obj
 0004:00002fb8       $pdata$?fin$0@?0???$?RV<lambda_638799b9deba96c50f710eeac98168cd>@@AEAV<lambda_22ebabd17bc4fa466a2aca6d8deb888d>@@V<lambda_a6f7d7db0129f75315ebf26d50c089f1>@@@?$__crt_seh_guarded_call@H@@QEAAH$$QEAV<lambda_638799b9deba96c50f710eeac98168cd>@@AEAV<lambda_22ebabd17bc4fa466a2aca6d8deb888d>@@$$QEAV<lambda_a6f7d7db0129f75315ebf26d50c089f1>@@@Z@4HA 0000000180059fb8     libucrt:onexit.obj
 0004:00002fb8       $pdata$?fin$0@?0???$?RV<lambda_2d41944a1d46af3157314b8a01080d33>@@AEAV<lambda_8f455de75cd7d7f24b4096f044d8b9e6>@@V<lambda_aa500f224e6afead328df44964fe2772>@@@?$__crt_seh_guarded_call@X@@QEAAX$$QEAV<lambda_2d41944a1d46af3157314b8a01080d33>@@AEAV<lambda_8f455de75cd7d7f24b4096f044d8b9e6>@@$$QEAV<lambda_aa500f224e6afead328df44964fe2772>@@@Z@4HA 0000000180059fb8     libucrt:per_thread_data.obj
 0004:00002fb8       $pdata$?fin$0@?0???$?RV<lambda_d80eeec6fff315bfe5c115232f3240e3>@@AEAV<lambda_6e4b09c48022b2350581041d5f6b0c4c>@@V<lambda_2358e3775559c9db80273638284d5e45>@@@?$__crt_seh_guarded_call@X@@QEAAX$$QEAV<lambda_d80eeec6fff315bfe5c115232f3240e3>@@AEAV<lambda_6e4b09c48022b2350581041d5f6b0c4c>@@$$QEAV<lambda_2358e3775559c9db80273638284d5e45>@@@Z@4HA 0000000180059fb8     libucrt:exit.obj
 0004:00002fb8       $pdata$?fin$0@?0???$?RV<lambda_7777bce6b2f8c936911f934f8298dc43>@@AEAV<lambda_f03950bc5685219e0bcd2087efbe011e>@@V<lambda_3883c3dff614d5e0c5f61bb1ac94921c>@@@?$__crt_seh_guarded_call@H@@QEAAH$$QEAV<lambda_7777bce6b2f8c936911f934f8298dc43>@@AEAV<lambda_f03950bc5685219e0bcd2087efbe011e>@@$$QEAV<lambda_3883c3dff614d5e0c5f61bb1ac94921c>@@@Z@4HA 0000000180059fb8     libucrt:onexit.obj
 0004:00002fb8       $pdata$?fin$0@?0???$?RV<lambda_450d765d439847d4c735a33c368b5fc0>@@AEAV<lambda_44731a7d0e6d81c3e6aa82d741081786>@@V<lambda_601a2a7da3b7a96e9554ac7215c4b07c>@@@?$__crt_seh_guarded_call@P6AXH@Z@@QEAAP6AXH@Z$$QEAV<lambda_450d765d439847d4c735a33c368b5fc0>@@AEAV<lambda_44731a7d0e6d81c3e6aa82d741081786>@@$$QEAV<lambda_601a2a7da3b7a96e9554ac7215c4b07c>@@@Z@4HA 0000000180059fb8     libucrt:signal.obj
 0004:00002fc4       $pdata$?fin$0@?0??update_thread_multibyte_data_internal@@YAPEAU__crt_multibyte_data@@QEAU__acrt_ptd@@QEAPEAU1@@Z@4HA 0000000180059fc4     libucrt:mbctype.obj
 0004:00002fd0       $pdata$_query_new_handler$fin$0 0000000180059fd0     libucrt:new_handler.obj
 0004:00002fdc       $pdata$raise$fin$0         0000000180059fdc     libucrt:signal.obj
 0004:00002fe8       $pdata$?fin$0@?0???$?RV<lambda_842d9ff0dc9ef11c61343bbaebe7f885>@@AEAV<lambda_c5860995281e5c4ce005b3de8f5874ee>@@V<lambda_d90129c13df834fdcbf8d2b88dafcf2d>@@@?$__crt_seh_guarded_call@X@@QEAAX$$QEAV<lambda_842d9ff0dc9ef11c61343bbaebe7f885>@@AEAV<lambda_c5860995281e5c4ce005b3de8f5874ee>@@$$QEAV<lambda_d90129c13df834fdcbf8d2b88dafcf2d>@@@Z@4HA 0000000180059fe8     libucrt:fflush.obj
 0004:00002ff4       $pdata$?fin$0@?0???$?RV<lambda_886d6c58226a84441f68b9f2b8217b83>@@AEAV<lambda_ab61a845afdef5b7c387490eaf3616ee>@@V<lambda_f7f22ab5edc0698d5f6905b0d3f44752>@@@?$__crt_seh_guarded_call@X@@QEAAX$$QEAV<lambda_886d6c58226a84441f68b9f2b8217b83>@@AEAV<lambda_ab61a845afdef5b7c387490eaf3616ee>@@$$QEAV<lambda_f7f22ab5edc0698d5f6905b0d3f44752>@@@Z@4HA 0000000180059ff4     libucrt:fflush.obj
 0004:00003000       $pdata$?fin$0@?0???$?RV<lambda_410d79af7f07d98d83a3f525b3859a53>@@AEAV<lambda_3e16ef9562a7dcce91392c22ab16ea36>@@V<lambda_38119f0e861e05405d8a144b9b982f0a>@@@?$__crt_seh_guarded_call@X@@QEAAX$$QEAV<lambda_410d79af7f07d98d83a3f525b3859a53>@@AEAV<lambda_3e16ef9562a7dcce91392c22ab16ea36>@@$$QEAV<lambda_38119f0e861e05405d8a144b9b982f0a>@@@Z@4HA 000000018005a000     libucrt:wsetlocale.obj
 0004:0000300c       $pdata$__acrt_update_thread_locale_data$fin$0 000000018005a00c     libucrt:locale_refcounting.obj
 0004:00003018       $pdata$__acrt_initialize_lowio$fin$0 000000018005a018     libucrt:ioinit.obj
 0004:00003018       $pdata$__acrt_lowio_ensure_fh_exists$fin$0 000000018005a018     libucrt:osfinfo.obj
 0004:00003024       $pdata$?fin$0@?0???$?RV<lambda_a37b2b86f63e897a80ea819b0eb08c01>@@AEAV<lambda_38ce7e780aa69e748d6df282ebc68efe>@@V<lambda_99fb1378e971ab6e7edea83e3a7a83a2>@@@?$__crt_seh_guarded_call@H@@QEAAH$$QEAV<lambda_a37b2b86f63e897a80ea819b0eb08c01>@@AEAV<lambda_38ce7e780aa69e748d6df282ebc68efe>@@$$QEAV<lambda_99fb1378e971ab6e7edea83e3a7a83a2>@@@Z@4HA 000000018005a024     libucrt:commit.obj
 0004:00003024       $pdata$?fin$0@?0???$?RV<lambda_751a882b2c74d4b022dec766aa51a29a>@@AEAV<lambda_628dfdc04ba53c8bfc02c9951375f3f5>@@V<lambda_f6c7be5f7998530c34de24c7437d6b54>@@@?$__crt_seh_guarded_call@H@@QEAAH$$QEAV<lambda_751a882b2c74d4b022dec766aa51a29a>@@AEAV<lambda_628dfdc04ba53c8bfc02c9951375f3f5>@@$$QEAV<lambda_f6c7be5f7998530c34de24c7437d6b54>@@@Z@4HA 000000018005a024     libucrt:close.obj
 0004:00003030       $pdata$_write$fin$0        000000018005a030     libucrt:write.obj
 0004:0000303c       $pdata$_fcloseall$fin$0    000000018005a03c     libucrt:closeall.obj
 0004:00003048       $pdata$fclose$fin$0        000000018005a048     libucrt:fclose.obj
 0004:00003054       $pdata$_IsNonwritableInCurrentImage$filt$0 000000018005a054     LIBCMT:pesect.obj
 0005:00000000       __guard_fids__             000000018005b000     LIBCMT:std_type_info_static.obj
 0005:00000004       __guard_fids_?dllmain_crt_process_attach@@YAHQEAUHINSTANCE__@@QEAX@Z 000000018005b004     LIBCMT:dll_dllmain.obj
 0005:0000000c       __guard_fids_?dllmain_dispatch@@YAHQEAUHINSTANCE__@@KQEAX@Z 000000018005b00c     LIBCMT:dll_dllmain.obj
 0005:00000010       __guard_fids__             000000018005b010     LIBCMT:guard_support.obj
 0005:00000014       __guard_fids___std_type_info_name 000000018005b014     libvcruntime:std_type_info.obj
 0005:0000001c       __guard_fids__             000000018005b01c     libvcruntime:undname.obj
 0005:00000028       __guard_fids__             000000018005b028     libvcruntime:undname.obj
 0005:00000034       __guard_fids__             000000018005b034     libvcruntime:undname.obj
 0005:00000040       __guard_fids__             000000018005b040     libvcruntime:undname.obj
 0005:0000004c       __guard_fids__             000000018005b04c     libvcruntime:undname.obj
 0005:00000058       __guard_fids___vcrt_initialize_ptd 000000018005b058     libvcruntime:per_thread_data.obj
 0005:0000005c       __guard_fids__             000000018005b05c     libucrt:initialization.obj
 0005:000000c0       __guard_fids___acrt_initialize_ptd 000000018005b0c0     libucrt:per_thread_data.obj
 0005:000000c4       __guard_fids_??$expand_argument_wildcards@D@@YAHQEAD0AEAV?$argument_list@D@?A0x5f5c8891@@@Z 000000018005b0c4     libucrt:argv_wildcards.obj
 0005:000000c8       __guard_fids__             000000018005b0c8     libucrt:fma3_initializer.obj
 0005:000000cc       __guard_fids__             000000018005b0cc     libucrt:multibyte_initializer.obj
 0005:000000d0       __guard_fids__             000000018005b0d0     libucrt:stdio_initializer.obj
 0005:000000d4       __guard_fids__             000000018005b0d4     libucrt:stdio_initializer.obj
 0005:000000d8       __guard_fids__             000000018005b0d8     libucrt:locale_initializer.obj
 0005:000000dc       __guard_fids__             000000018005b0dc     libucrt:console_output_initializer.obj
 0006:000000a0       $R000000                   000000018005c0a0     PhysXCooking.res
 0006:000003d0       $R000330                   000000018005c3d0     PhysXCooking.res
